
Black_Line_Following.elf:     file format elf32-avr

Sections:
Idx Name          Size      VMA       LMA       File off  Algn
  0 .data         00000032  00800200  0000a32a  0000a3be  2**0
                  CONTENTS, ALLOC, LOAD, DATA
  1 .text         0000a32a  00000000  00000000  00000094  2**1
                  CONTENTS, ALLOC, LOAD, READONLY, CODE
  2 .bss          00000013  00800232  00800232  0000a3f0  2**0
                  ALLOC
  3 .comment      00000030  00000000  00000000  0000a3f0  2**0
                  CONTENTS, READONLY
  4 .note.gnu.avr.deviceinfo 00000040  00000000  00000000  0000a420  2**2
                  CONTENTS, READONLY
  5 .debug_info   00000bbc  00000000  00000000  0000a460  2**0
                  CONTENTS, READONLY, DEBUGGING
  6 .debug_abbrev 00000b1a  00000000  00000000  0000b01c  2**0
                  CONTENTS, READONLY, DEBUGGING
  7 .debug_line   0000001a  00000000  00000000  0000bb36  2**0
                  CONTENTS, READONLY, DEBUGGING
  8 .debug_str    000003e6  00000000  00000000  0000bb50  2**0
                  CONTENTS, READONLY, DEBUGGING

Disassembly of section .text:

00000000 <__vectors>:
       0:	71 c0       	rjmp	.+226    	; 0xe4 <__ctors_end>
       2:	00 00       	nop
       4:	90 c0       	rjmp	.+288    	; 0x126 <__bad_interrupt>
       6:	00 00       	nop
       8:	8e c0       	rjmp	.+284    	; 0x126 <__bad_interrupt>
       a:	00 00       	nop
       c:	8c c0       	rjmp	.+280    	; 0x126 <__bad_interrupt>
       e:	00 00       	nop
      10:	8a c0       	rjmp	.+276    	; 0x126 <__bad_interrupt>
      12:	00 00       	nop
      14:	88 c0       	rjmp	.+272    	; 0x126 <__bad_interrupt>
      16:	00 00       	nop
      18:	86 c0       	rjmp	.+268    	; 0x126 <__bad_interrupt>
      1a:	00 00       	nop
      1c:	84 c0       	rjmp	.+264    	; 0x126 <__bad_interrupt>
      1e:	00 00       	nop
      20:	82 c0       	rjmp	.+260    	; 0x126 <__bad_interrupt>
      22:	00 00       	nop
      24:	80 c0       	rjmp	.+256    	; 0x126 <__bad_interrupt>
      26:	00 00       	nop
      28:	7e c0       	rjmp	.+252    	; 0x126 <__bad_interrupt>
      2a:	00 00       	nop
      2c:	7c c0       	rjmp	.+248    	; 0x126 <__bad_interrupt>
      2e:	00 00       	nop
      30:	7a c0       	rjmp	.+244    	; 0x126 <__bad_interrupt>
      32:	00 00       	nop
      34:	78 c0       	rjmp	.+240    	; 0x126 <__bad_interrupt>
      36:	00 00       	nop
      38:	76 c0       	rjmp	.+236    	; 0x126 <__bad_interrupt>
      3a:	00 00       	nop
      3c:	74 c0       	rjmp	.+232    	; 0x126 <__bad_interrupt>
      3e:	00 00       	nop
      40:	72 c0       	rjmp	.+228    	; 0x126 <__bad_interrupt>
      42:	00 00       	nop
      44:	70 c0       	rjmp	.+224    	; 0x126 <__bad_interrupt>
      46:	00 00       	nop
      48:	6e c0       	rjmp	.+220    	; 0x126 <__bad_interrupt>
      4a:	00 00       	nop
      4c:	6c c0       	rjmp	.+216    	; 0x126 <__bad_interrupt>
      4e:	00 00       	nop
      50:	6a c0       	rjmp	.+212    	; 0x126 <__bad_interrupt>
      52:	00 00       	nop
      54:	68 c0       	rjmp	.+208    	; 0x126 <__bad_interrupt>
      56:	00 00       	nop
      58:	66 c0       	rjmp	.+204    	; 0x126 <__bad_interrupt>
      5a:	00 00       	nop
      5c:	64 c0       	rjmp	.+200    	; 0x126 <__bad_interrupt>
      5e:	00 00       	nop
      60:	62 c0       	rjmp	.+196    	; 0x126 <__bad_interrupt>
      62:	00 00       	nop
      64:	60 c0       	rjmp	.+192    	; 0x126 <__bad_interrupt>
      66:	00 00       	nop
      68:	5e c0       	rjmp	.+188    	; 0x126 <__bad_interrupt>
      6a:	00 00       	nop
      6c:	5c c0       	rjmp	.+184    	; 0x126 <__bad_interrupt>
      6e:	00 00       	nop
      70:	5a c0       	rjmp	.+180    	; 0x126 <__bad_interrupt>
      72:	00 00       	nop
      74:	58 c0       	rjmp	.+176    	; 0x126 <__bad_interrupt>
      76:	00 00       	nop
      78:	56 c0       	rjmp	.+172    	; 0x126 <__bad_interrupt>
      7a:	00 00       	nop
      7c:	54 c0       	rjmp	.+168    	; 0x126 <__bad_interrupt>
      7e:	00 00       	nop
      80:	52 c0       	rjmp	.+164    	; 0x126 <__bad_interrupt>
      82:	00 00       	nop
      84:	50 c0       	rjmp	.+160    	; 0x126 <__bad_interrupt>
      86:	00 00       	nop
      88:	4e c0       	rjmp	.+156    	; 0x126 <__bad_interrupt>
      8a:	00 00       	nop
      8c:	4c c0       	rjmp	.+152    	; 0x126 <__bad_interrupt>
      8e:	00 00       	nop
      90:	4a c0       	rjmp	.+148    	; 0x126 <__bad_interrupt>
      92:	00 00       	nop
      94:	48 c0       	rjmp	.+144    	; 0x126 <__bad_interrupt>
      96:	00 00       	nop
      98:	46 c0       	rjmp	.+140    	; 0x126 <__bad_interrupt>
      9a:	00 00       	nop
      9c:	44 c0       	rjmp	.+136    	; 0x126 <__bad_interrupt>
      9e:	00 00       	nop
      a0:	42 c0       	rjmp	.+132    	; 0x126 <__bad_interrupt>
      a2:	00 00       	nop
      a4:	40 c0       	rjmp	.+128    	; 0x126 <__bad_interrupt>
      a6:	00 00       	nop
      a8:	3e c0       	rjmp	.+124    	; 0x126 <__bad_interrupt>
      aa:	00 00       	nop
      ac:	3c c0       	rjmp	.+120    	; 0x126 <__bad_interrupt>
      ae:	00 00       	nop
      b0:	3a c0       	rjmp	.+116    	; 0x126 <__bad_interrupt>
      b2:	00 00       	nop
      b4:	38 c0       	rjmp	.+112    	; 0x126 <__bad_interrupt>
      b6:	00 00       	nop
      b8:	36 c0       	rjmp	.+108    	; 0x126 <__bad_interrupt>
      ba:	00 00       	nop
      bc:	34 c0       	rjmp	.+104    	; 0x126 <__bad_interrupt>
      be:	00 00       	nop
      c0:	32 c0       	rjmp	.+100    	; 0x126 <__bad_interrupt>
      c2:	00 00       	nop
      c4:	30 c0       	rjmp	.+96     	; 0x126 <__bad_interrupt>
      c6:	00 00       	nop
      c8:	2e c0       	rjmp	.+92     	; 0x126 <__bad_interrupt>
      ca:	00 00       	nop
      cc:	2c c0       	rjmp	.+88     	; 0x126 <__bad_interrupt>
      ce:	00 00       	nop
      d0:	2a c0       	rjmp	.+84     	; 0x126 <__bad_interrupt>
      d2:	00 00       	nop
      d4:	28 c0       	rjmp	.+80     	; 0x126 <__bad_interrupt>
      d6:	00 00       	nop
      d8:	26 c0       	rjmp	.+76     	; 0x126 <__bad_interrupt>
      da:	00 00       	nop
      dc:	24 c0       	rjmp	.+72     	; 0x126 <__bad_interrupt>
      de:	00 00       	nop
      e0:	22 c0       	rjmp	.+68     	; 0x126 <__bad_interrupt>
	...

000000e4 <__ctors_end>:
      e4:	11 24       	eor	r1, r1
      e6:	1f be       	out	0x3f, r1	; 63
      e8:	cf ef       	ldi	r28, 0xFF	; 255
      ea:	d1 e2       	ldi	r29, 0x21	; 33
      ec:	de bf       	out	0x3e, r29	; 62
      ee:	cd bf       	out	0x3d, r28	; 61
      f0:	00 e0       	ldi	r16, 0x00	; 0
      f2:	0c bf       	out	0x3c, r16	; 60

000000f4 <__do_copy_data>:
      f4:	12 e0       	ldi	r17, 0x02	; 2
      f6:	a0 e0       	ldi	r26, 0x00	; 0
      f8:	b2 e0       	ldi	r27, 0x02	; 2
      fa:	ea e2       	ldi	r30, 0x2A	; 42
      fc:	f3 ea       	ldi	r31, 0xA3	; 163
      fe:	00 e0       	ldi	r16, 0x00	; 0
     100:	0b bf       	out	0x3b, r16	; 59
     102:	02 c0       	rjmp	.+4      	; 0x108 <__do_copy_data+0x14>
     104:	07 90       	elpm	r0, Z+
     106:	0d 92       	st	X+, r0
     108:	a2 33       	cpi	r26, 0x32	; 50
     10a:	b1 07       	cpc	r27, r17
     10c:	d9 f7       	brne	.-10     	; 0x104 <__do_copy_data+0x10>

0000010e <__do_clear_bss>:
     10e:	22 e0       	ldi	r18, 0x02	; 2
     110:	a2 e3       	ldi	r26, 0x32	; 50
     112:	b2 e0       	ldi	r27, 0x02	; 2
     114:	01 c0       	rjmp	.+2      	; 0x118 <.do_clear_bss_start>

00000116 <.do_clear_bss_loop>:
     116:	1d 92       	st	X+, r1

00000118 <.do_clear_bss_start>:
     118:	a5 34       	cpi	r26, 0x45	; 69
     11a:	b2 07       	cpc	r27, r18
     11c:	e1 f7       	brne	.-8      	; 0x116 <.do_clear_bss_loop>
     11e:	0e 94 49 0f 	call	0x1e92	; 0x1e92 <main>
     122:	0c 94 93 51 	jmp	0xa326	; 0xa326 <_exit>

00000126 <__bad_interrupt>:
     126:	6c cf       	rjmp	.-296    	; 0x0 <__vectors>

00000128 <lcd_set_4bit>:
     128:	0f 93       	push	r16
     12a:	1f 93       	push	r17
     12c:	cf 93       	push	r28
     12e:	df 93       	push	r29
     130:	cd b7       	in	r28, 0x3d	; 61
     132:	de b7       	in	r29, 0x3e	; 62
     134:	c0 57       	subi	r28, 0x70	; 112
     136:	d1 09       	sbc	r29, r1
     138:	0f b6       	in	r0, 0x3f	; 63
     13a:	f8 94       	cli
     13c:	de bf       	out	0x3e, r29	; 62
     13e:	0f be       	out	0x3f, r0	; 63
     140:	cd bf       	out	0x3d, r28	; 61
     142:	80 e0       	ldi	r24, 0x00	; 0
     144:	90 e0       	ldi	r25, 0x00	; 0
     146:	a0 e8       	ldi	r26, 0x80	; 128
     148:	bf e3       	ldi	r27, 0x3F	; 63
     14a:	89 83       	std	Y+1, r24	; 0x01
     14c:	9a 83       	std	Y+2, r25	; 0x02
     14e:	ab 83       	std	Y+3, r26	; 0x03
     150:	bc 83       	std	Y+4, r27	; 0x04
     152:	8e 01       	movw	r16, r28
     154:	09 59       	subi	r16, 0x99	; 153
     156:	1f 4f       	sbci	r17, 0xFF	; 255
     158:	26 e6       	ldi	r18, 0x66	; 102
     15a:	36 e6       	ldi	r19, 0x66	; 102
     15c:	46 e6       	ldi	r20, 0x66	; 102
     15e:	55 e4       	ldi	r21, 0x45	; 69
     160:	69 81       	ldd	r22, Y+1	; 0x01
     162:	7a 81       	ldd	r23, Y+2	; 0x02
     164:	8b 81       	ldd	r24, Y+3	; 0x03
     166:	9c 81       	ldd	r25, Y+4	; 0x04
     168:	0e 94 65 50 	call	0xa0ca	; 0xa0ca <__mulsf3>
     16c:	dc 01       	movw	r26, r24
     16e:	cb 01       	movw	r24, r22
     170:	f8 01       	movw	r30, r16
     172:	80 83       	st	Z, r24
     174:	91 83       	std	Z+1, r25	; 0x01
     176:	a2 83       	std	Z+2, r26	; 0x02
     178:	b3 83       	std	Z+3, r27	; 0x03
     17a:	ce 01       	movw	r24, r28
     17c:	89 59       	subi	r24, 0x99	; 153
     17e:	9f 4f       	sbci	r25, 0xFF	; 255
     180:	20 e0       	ldi	r18, 0x00	; 0
     182:	30 e0       	ldi	r19, 0x00	; 0
     184:	40 e8       	ldi	r20, 0x80	; 128
     186:	5f e3       	ldi	r21, 0x3F	; 63
     188:	fc 01       	movw	r30, r24
     18a:	60 81       	ld	r22, Z
     18c:	71 81       	ldd	r23, Z+1	; 0x01
     18e:	82 81       	ldd	r24, Z+2	; 0x02
     190:	93 81       	ldd	r25, Z+3	; 0x03
     192:	0e 94 e4 4f 	call	0x9fc8	; 0x9fc8 <__cmpsf2>
     196:	88 23       	and	r24, r24
     198:	4c f4       	brge	.+18     	; 0x1ac <lcd_set_4bit+0x84>
     19a:	ce 01       	movw	r24, r28
     19c:	85 59       	subi	r24, 0x95	; 149
     19e:	9f 4f       	sbci	r25, 0xFF	; 255
     1a0:	21 e0       	ldi	r18, 0x01	; 1
     1a2:	30 e0       	ldi	r19, 0x00	; 0
     1a4:	fc 01       	movw	r30, r24
     1a6:	31 83       	std	Z+1, r19	; 0x01
     1a8:	20 83       	st	Z, r18
     1aa:	69 c0       	rjmp	.+210    	; 0x27e <lcd_set_4bit+0x156>
     1ac:	ce 01       	movw	r24, r28
     1ae:	89 59       	subi	r24, 0x99	; 153
     1b0:	9f 4f       	sbci	r25, 0xFF	; 255
     1b2:	20 e0       	ldi	r18, 0x00	; 0
     1b4:	3f ef       	ldi	r19, 0xFF	; 255
     1b6:	4f e7       	ldi	r20, 0x7F	; 127
     1b8:	57 e4       	ldi	r21, 0x47	; 71
     1ba:	fc 01       	movw	r30, r24
     1bc:	60 81       	ld	r22, Z
     1be:	71 81       	ldd	r23, Z+1	; 0x01
     1c0:	82 81       	ldd	r24, Z+2	; 0x02
     1c2:	93 81       	ldd	r25, Z+3	; 0x03
     1c4:	0e 94 61 50 	call	0xa0c2	; 0xa0c2 <__gesf2>
     1c8:	18 16       	cp	r1, r24
     1ca:	0c f0       	brlt	.+2      	; 0x1ce <lcd_set_4bit+0xa6>
     1cc:	46 c0       	rjmp	.+140    	; 0x25a <lcd_set_4bit+0x132>
     1ce:	20 e0       	ldi	r18, 0x00	; 0
     1d0:	30 e0       	ldi	r19, 0x00	; 0
     1d2:	40 e2       	ldi	r20, 0x20	; 32
     1d4:	51 e4       	ldi	r21, 0x41	; 65
     1d6:	69 81       	ldd	r22, Y+1	; 0x01
     1d8:	7a 81       	ldd	r23, Y+2	; 0x02
     1da:	8b 81       	ldd	r24, Y+3	; 0x03
     1dc:	9c 81       	ldd	r25, Y+4	; 0x04
     1de:	0e 94 65 50 	call	0xa0ca	; 0xa0ca <__mulsf3>
     1e2:	dc 01       	movw	r26, r24
     1e4:	cb 01       	movw	r24, r22
     1e6:	8e 01       	movw	r16, r28
     1e8:	05 59       	subi	r16, 0x95	; 149
     1ea:	1f 4f       	sbci	r17, 0xFF	; 255
     1ec:	bc 01       	movw	r22, r24
     1ee:	cd 01       	movw	r24, r26
     1f0:	0e 94 e8 4f 	call	0x9fd0	; 0x9fd0 <__fixunssfsi>
     1f4:	dc 01       	movw	r26, r24
     1f6:	cb 01       	movw	r24, r22
     1f8:	f8 01       	movw	r30, r16
     1fa:	91 83       	std	Z+1, r25	; 0x01
     1fc:	80 83       	st	Z, r24
     1fe:	24 c0       	rjmp	.+72     	; 0x248 <lcd_set_4bit+0x120>
     200:	ce 01       	movw	r24, r28
     202:	83 59       	subi	r24, 0x93	; 147
     204:	9f 4f       	sbci	r25, 0xFF	; 255
     206:	20 e7       	ldi	r18, 0x70	; 112
     208:	31 e0       	ldi	r19, 0x01	; 1
     20a:	fc 01       	movw	r30, r24
     20c:	31 83       	std	Z+1, r19	; 0x01
     20e:	20 83       	st	Z, r18
     210:	ce 01       	movw	r24, r28
     212:	83 59       	subi	r24, 0x93	; 147
     214:	9f 4f       	sbci	r25, 0xFF	; 255
     216:	fc 01       	movw	r30, r24
     218:	80 81       	ld	r24, Z
     21a:	91 81       	ldd	r25, Z+1	; 0x01
     21c:	01 97       	sbiw	r24, 0x01	; 1
     21e:	f1 f7       	brne	.-4      	; 0x21c <lcd_set_4bit+0xf4>
     220:	9e 01       	movw	r18, r28
     222:	23 59       	subi	r18, 0x93	; 147
     224:	3f 4f       	sbci	r19, 0xFF	; 255
     226:	f9 01       	movw	r30, r18
     228:	91 83       	std	Z+1, r25	; 0x01
     22a:	80 83       	st	Z, r24
     22c:	ce 01       	movw	r24, r28
     22e:	85 59       	subi	r24, 0x95	; 149
     230:	9f 4f       	sbci	r25, 0xFF	; 255
     232:	9e 01       	movw	r18, r28
     234:	25 59       	subi	r18, 0x95	; 149
     236:	3f 4f       	sbci	r19, 0xFF	; 255
     238:	f9 01       	movw	r30, r18
     23a:	20 81       	ld	r18, Z
     23c:	31 81       	ldd	r19, Z+1	; 0x01
     23e:	21 50       	subi	r18, 0x01	; 1
     240:	31 09       	sbc	r19, r1
     242:	fc 01       	movw	r30, r24
     244:	31 83       	std	Z+1, r19	; 0x01
     246:	20 83       	st	Z, r18
     248:	ce 01       	movw	r24, r28
     24a:	85 59       	subi	r24, 0x95	; 149
     24c:	9f 4f       	sbci	r25, 0xFF	; 255
     24e:	fc 01       	movw	r30, r24
     250:	80 81       	ld	r24, Z
     252:	91 81       	ldd	r25, Z+1	; 0x01
     254:	89 2b       	or	r24, r25
     256:	a1 f6       	brne	.-88     	; 0x200 <lcd_set_4bit+0xd8>
     258:	2c c0       	rjmp	.+88     	; 0x2b2 <lcd_set_4bit+0x18a>
     25a:	8e 01       	movw	r16, r28
     25c:	05 59       	subi	r16, 0x95	; 149
     25e:	1f 4f       	sbci	r17, 0xFF	; 255
     260:	ce 01       	movw	r24, r28
     262:	89 59       	subi	r24, 0x99	; 153
     264:	9f 4f       	sbci	r25, 0xFF	; 255
     266:	fc 01       	movw	r30, r24
     268:	60 81       	ld	r22, Z
     26a:	71 81       	ldd	r23, Z+1	; 0x01
     26c:	82 81       	ldd	r24, Z+2	; 0x02
     26e:	93 81       	ldd	r25, Z+3	; 0x03
     270:	0e 94 e8 4f 	call	0x9fd0	; 0x9fd0 <__fixunssfsi>
     274:	dc 01       	movw	r26, r24
     276:	cb 01       	movw	r24, r22
     278:	f8 01       	movw	r30, r16
     27a:	91 83       	std	Z+1, r25	; 0x01
     27c:	80 83       	st	Z, r24
     27e:	ce 01       	movw	r24, r28
     280:	81 59       	subi	r24, 0x91	; 145
     282:	9f 4f       	sbci	r25, 0xFF	; 255
     284:	9e 01       	movw	r18, r28
     286:	25 59       	subi	r18, 0x95	; 149
     288:	3f 4f       	sbci	r19, 0xFF	; 255
     28a:	f9 01       	movw	r30, r18
     28c:	20 81       	ld	r18, Z
     28e:	31 81       	ldd	r19, Z+1	; 0x01
     290:	fc 01       	movw	r30, r24
     292:	31 83       	std	Z+1, r19	; 0x01
     294:	20 83       	st	Z, r18
     296:	ce 01       	movw	r24, r28
     298:	81 59       	subi	r24, 0x91	; 145
     29a:	9f 4f       	sbci	r25, 0xFF	; 255
     29c:	fc 01       	movw	r30, r24
     29e:	80 81       	ld	r24, Z
     2a0:	91 81       	ldd	r25, Z+1	; 0x01
     2a2:	01 97       	sbiw	r24, 0x01	; 1
     2a4:	f1 f7       	brne	.-4      	; 0x2a2 <lcd_set_4bit+0x17a>
     2a6:	9e 01       	movw	r18, r28
     2a8:	21 59       	subi	r18, 0x91	; 145
     2aa:	3f 4f       	sbci	r19, 0xFF	; 255
     2ac:	f9 01       	movw	r30, r18
     2ae:	91 83       	std	Z+1, r25	; 0x01
     2b0:	80 83       	st	Z, r24
     2b2:	88 e2       	ldi	r24, 0x28	; 40
     2b4:	90 e0       	ldi	r25, 0x00	; 0
     2b6:	28 e2       	ldi	r18, 0x28	; 40
     2b8:	30 e0       	ldi	r19, 0x00	; 0
     2ba:	f9 01       	movw	r30, r18
     2bc:	20 81       	ld	r18, Z
     2be:	2e 7f       	andi	r18, 0xFE	; 254
     2c0:	fc 01       	movw	r30, r24
     2c2:	20 83       	st	Z, r18
     2c4:	88 e2       	ldi	r24, 0x28	; 40
     2c6:	90 e0       	ldi	r25, 0x00	; 0
     2c8:	28 e2       	ldi	r18, 0x28	; 40
     2ca:	30 e0       	ldi	r19, 0x00	; 0
     2cc:	f9 01       	movw	r30, r18
     2ce:	20 81       	ld	r18, Z
     2d0:	2d 7f       	andi	r18, 0xFD	; 253
     2d2:	fc 01       	movw	r30, r24
     2d4:	20 83       	st	Z, r18
     2d6:	88 e2       	ldi	r24, 0x28	; 40
     2d8:	90 e0       	ldi	r25, 0x00	; 0
     2da:	20 e3       	ldi	r18, 0x30	; 48
     2dc:	fc 01       	movw	r30, r24
     2de:	20 83       	st	Z, r18
     2e0:	88 e2       	ldi	r24, 0x28	; 40
     2e2:	90 e0       	ldi	r25, 0x00	; 0
     2e4:	28 e2       	ldi	r18, 0x28	; 40
     2e6:	30 e0       	ldi	r19, 0x00	; 0
     2e8:	f9 01       	movw	r30, r18
     2ea:	20 81       	ld	r18, Z
     2ec:	24 60       	ori	r18, 0x04	; 4
     2ee:	fc 01       	movw	r30, r24
     2f0:	20 83       	st	Z, r18
     2f2:	80 e0       	ldi	r24, 0x00	; 0
     2f4:	90 e0       	ldi	r25, 0x00	; 0
     2f6:	a0 ea       	ldi	r26, 0xA0	; 160
     2f8:	b0 e4       	ldi	r27, 0x40	; 64
     2fa:	8d 83       	std	Y+5, r24	; 0x05
     2fc:	9e 83       	std	Y+6, r25	; 0x06
     2fe:	af 83       	std	Y+7, r26	; 0x07
     300:	b8 87       	std	Y+8, r27	; 0x08
     302:	8e 01       	movw	r16, r28
     304:	03 5a       	subi	r16, 0xA3	; 163
     306:	1f 4f       	sbci	r17, 0xFF	; 255
     308:	26 e6       	ldi	r18, 0x66	; 102
     30a:	36 e6       	ldi	r19, 0x66	; 102
     30c:	46 e6       	ldi	r20, 0x66	; 102
     30e:	55 e4       	ldi	r21, 0x45	; 69
     310:	6d 81       	ldd	r22, Y+5	; 0x05
     312:	7e 81       	ldd	r23, Y+6	; 0x06
     314:	8f 81       	ldd	r24, Y+7	; 0x07
     316:	98 85       	ldd	r25, Y+8	; 0x08
     318:	0e 94 65 50 	call	0xa0ca	; 0xa0ca <__mulsf3>
     31c:	dc 01       	movw	r26, r24
     31e:	cb 01       	movw	r24, r22
     320:	f8 01       	movw	r30, r16
     322:	80 83       	st	Z, r24
     324:	91 83       	std	Z+1, r25	; 0x01
     326:	a2 83       	std	Z+2, r26	; 0x02
     328:	b3 83       	std	Z+3, r27	; 0x03
     32a:	ce 01       	movw	r24, r28
     32c:	83 5a       	subi	r24, 0xA3	; 163
     32e:	9f 4f       	sbci	r25, 0xFF	; 255
     330:	20 e0       	ldi	r18, 0x00	; 0
     332:	30 e0       	ldi	r19, 0x00	; 0
     334:	40 e8       	ldi	r20, 0x80	; 128
     336:	5f e3       	ldi	r21, 0x3F	; 63
     338:	fc 01       	movw	r30, r24
     33a:	60 81       	ld	r22, Z
     33c:	71 81       	ldd	r23, Z+1	; 0x01
     33e:	82 81       	ldd	r24, Z+2	; 0x02
     340:	93 81       	ldd	r25, Z+3	; 0x03
     342:	0e 94 e4 4f 	call	0x9fc8	; 0x9fc8 <__cmpsf2>
     346:	88 23       	and	r24, r24
     348:	4c f4       	brge	.+18     	; 0x35c <lcd_set_4bit+0x234>
     34a:	ce 01       	movw	r24, r28
     34c:	8f 59       	subi	r24, 0x9F	; 159
     34e:	9f 4f       	sbci	r25, 0xFF	; 255
     350:	21 e0       	ldi	r18, 0x01	; 1
     352:	30 e0       	ldi	r19, 0x00	; 0
     354:	fc 01       	movw	r30, r24
     356:	31 83       	std	Z+1, r19	; 0x01
     358:	20 83       	st	Z, r18
     35a:	69 c0       	rjmp	.+210    	; 0x42e <__LOCK_REGION_LENGTH__+0x2e>
     35c:	ce 01       	movw	r24, r28
     35e:	83 5a       	subi	r24, 0xA3	; 163
     360:	9f 4f       	sbci	r25, 0xFF	; 255
     362:	20 e0       	ldi	r18, 0x00	; 0
     364:	3f ef       	ldi	r19, 0xFF	; 255
     366:	4f e7       	ldi	r20, 0x7F	; 127
     368:	57 e4       	ldi	r21, 0x47	; 71
     36a:	fc 01       	movw	r30, r24
     36c:	60 81       	ld	r22, Z
     36e:	71 81       	ldd	r23, Z+1	; 0x01
     370:	82 81       	ldd	r24, Z+2	; 0x02
     372:	93 81       	ldd	r25, Z+3	; 0x03
     374:	0e 94 61 50 	call	0xa0c2	; 0xa0c2 <__gesf2>
     378:	18 16       	cp	r1, r24
     37a:	0c f0       	brlt	.+2      	; 0x37e <lcd_set_4bit+0x256>
     37c:	46 c0       	rjmp	.+140    	; 0x40a <__LOCK_REGION_LENGTH__+0xa>
     37e:	20 e0       	ldi	r18, 0x00	; 0
     380:	30 e0       	ldi	r19, 0x00	; 0
     382:	40 e2       	ldi	r20, 0x20	; 32
     384:	51 e4       	ldi	r21, 0x41	; 65
     386:	6d 81       	ldd	r22, Y+5	; 0x05
     388:	7e 81       	ldd	r23, Y+6	; 0x06
     38a:	8f 81       	ldd	r24, Y+7	; 0x07
     38c:	98 85       	ldd	r25, Y+8	; 0x08
     38e:	0e 94 65 50 	call	0xa0ca	; 0xa0ca <__mulsf3>
     392:	dc 01       	movw	r26, r24
     394:	cb 01       	movw	r24, r22
     396:	8e 01       	movw	r16, r28
     398:	0f 59       	subi	r16, 0x9F	; 159
     39a:	1f 4f       	sbci	r17, 0xFF	; 255
     39c:	bc 01       	movw	r22, r24
     39e:	cd 01       	movw	r24, r26
     3a0:	0e 94 e8 4f 	call	0x9fd0	; 0x9fd0 <__fixunssfsi>
     3a4:	dc 01       	movw	r26, r24
     3a6:	cb 01       	movw	r24, r22
     3a8:	f8 01       	movw	r30, r16
     3aa:	91 83       	std	Z+1, r25	; 0x01
     3ac:	80 83       	st	Z, r24
     3ae:	24 c0       	rjmp	.+72     	; 0x3f8 <lcd_set_4bit+0x2d0>
     3b0:	ce 01       	movw	r24, r28
     3b2:	8d 59       	subi	r24, 0x9D	; 157
     3b4:	9f 4f       	sbci	r25, 0xFF	; 255
     3b6:	20 e7       	ldi	r18, 0x70	; 112
     3b8:	31 e0       	ldi	r19, 0x01	; 1
     3ba:	fc 01       	movw	r30, r24
     3bc:	31 83       	std	Z+1, r19	; 0x01
     3be:	20 83       	st	Z, r18
     3c0:	ce 01       	movw	r24, r28
     3c2:	8d 59       	subi	r24, 0x9D	; 157
     3c4:	9f 4f       	sbci	r25, 0xFF	; 255
     3c6:	fc 01       	movw	r30, r24
     3c8:	80 81       	ld	r24, Z
     3ca:	91 81       	ldd	r25, Z+1	; 0x01
     3cc:	01 97       	sbiw	r24, 0x01	; 1
     3ce:	f1 f7       	brne	.-4      	; 0x3cc <lcd_set_4bit+0x2a4>
     3d0:	9e 01       	movw	r18, r28
     3d2:	2d 59       	subi	r18, 0x9D	; 157
     3d4:	3f 4f       	sbci	r19, 0xFF	; 255
     3d6:	f9 01       	movw	r30, r18
     3d8:	91 83       	std	Z+1, r25	; 0x01
     3da:	80 83       	st	Z, r24
     3dc:	ce 01       	movw	r24, r28
     3de:	8f 59       	subi	r24, 0x9F	; 159
     3e0:	9f 4f       	sbci	r25, 0xFF	; 255
     3e2:	9e 01       	movw	r18, r28
     3e4:	2f 59       	subi	r18, 0x9F	; 159
     3e6:	3f 4f       	sbci	r19, 0xFF	; 255
     3e8:	f9 01       	movw	r30, r18
     3ea:	20 81       	ld	r18, Z
     3ec:	31 81       	ldd	r19, Z+1	; 0x01
     3ee:	21 50       	subi	r18, 0x01	; 1
     3f0:	31 09       	sbc	r19, r1
     3f2:	fc 01       	movw	r30, r24
     3f4:	31 83       	std	Z+1, r19	; 0x01
     3f6:	20 83       	st	Z, r18
     3f8:	ce 01       	movw	r24, r28
     3fa:	8f 59       	subi	r24, 0x9F	; 159
     3fc:	9f 4f       	sbci	r25, 0xFF	; 255
     3fe:	fc 01       	movw	r30, r24
     400:	80 81       	ld	r24, Z
     402:	91 81       	ldd	r25, Z+1	; 0x01
     404:	89 2b       	or	r24, r25
     406:	a1 f6       	brne	.-88     	; 0x3b0 <lcd_set_4bit+0x288>
     408:	2c c0       	rjmp	.+88     	; 0x462 <__LOCK_REGION_LENGTH__+0x62>
     40a:	8e 01       	movw	r16, r28
     40c:	0f 59       	subi	r16, 0x9F	; 159
     40e:	1f 4f       	sbci	r17, 0xFF	; 255
     410:	ce 01       	movw	r24, r28
     412:	83 5a       	subi	r24, 0xA3	; 163
     414:	9f 4f       	sbci	r25, 0xFF	; 255
     416:	fc 01       	movw	r30, r24
     418:	60 81       	ld	r22, Z
     41a:	71 81       	ldd	r23, Z+1	; 0x01
     41c:	82 81       	ldd	r24, Z+2	; 0x02
     41e:	93 81       	ldd	r25, Z+3	; 0x03
     420:	0e 94 e8 4f 	call	0x9fd0	; 0x9fd0 <__fixunssfsi>
     424:	dc 01       	movw	r26, r24
     426:	cb 01       	movw	r24, r22
     428:	f8 01       	movw	r30, r16
     42a:	91 83       	std	Z+1, r25	; 0x01
     42c:	80 83       	st	Z, r24
     42e:	ce 01       	movw	r24, r28
     430:	8b 59       	subi	r24, 0x9B	; 155
     432:	9f 4f       	sbci	r25, 0xFF	; 255
     434:	9e 01       	movw	r18, r28
     436:	2f 59       	subi	r18, 0x9F	; 159
     438:	3f 4f       	sbci	r19, 0xFF	; 255
     43a:	f9 01       	movw	r30, r18
     43c:	20 81       	ld	r18, Z
     43e:	31 81       	ldd	r19, Z+1	; 0x01
     440:	fc 01       	movw	r30, r24
     442:	31 83       	std	Z+1, r19	; 0x01
     444:	20 83       	st	Z, r18
     446:	ce 01       	movw	r24, r28
     448:	8b 59       	subi	r24, 0x9B	; 155
     44a:	9f 4f       	sbci	r25, 0xFF	; 255
     44c:	fc 01       	movw	r30, r24
     44e:	80 81       	ld	r24, Z
     450:	91 81       	ldd	r25, Z+1	; 0x01
     452:	01 97       	sbiw	r24, 0x01	; 1
     454:	f1 f7       	brne	.-4      	; 0x452 <__LOCK_REGION_LENGTH__+0x52>
     456:	9e 01       	movw	r18, r28
     458:	2b 59       	subi	r18, 0x9B	; 155
     45a:	3f 4f       	sbci	r19, 0xFF	; 255
     45c:	f9 01       	movw	r30, r18
     45e:	91 83       	std	Z+1, r25	; 0x01
     460:	80 83       	st	Z, r24
     462:	88 e2       	ldi	r24, 0x28	; 40
     464:	90 e0       	ldi	r25, 0x00	; 0
     466:	28 e2       	ldi	r18, 0x28	; 40
     468:	30 e0       	ldi	r19, 0x00	; 0
     46a:	f9 01       	movw	r30, r18
     46c:	20 81       	ld	r18, Z
     46e:	2b 7f       	andi	r18, 0xFB	; 251
     470:	fc 01       	movw	r30, r24
     472:	20 83       	st	Z, r18
     474:	80 e0       	ldi	r24, 0x00	; 0
     476:	90 e0       	ldi	r25, 0x00	; 0
     478:	a0 e8       	ldi	r26, 0x80	; 128
     47a:	bf e3       	ldi	r27, 0x3F	; 63
     47c:	89 87       	std	Y+9, r24	; 0x09
     47e:	9a 87       	std	Y+10, r25	; 0x0a
     480:	ab 87       	std	Y+11, r26	; 0x0b
     482:	bc 87       	std	Y+12, r27	; 0x0c
     484:	8e 01       	movw	r16, r28
     486:	0d 5a       	subi	r16, 0xAD	; 173
     488:	1f 4f       	sbci	r17, 0xFF	; 255
     48a:	26 e6       	ldi	r18, 0x66	; 102
     48c:	36 e6       	ldi	r19, 0x66	; 102
     48e:	46 e6       	ldi	r20, 0x66	; 102
     490:	55 e4       	ldi	r21, 0x45	; 69
     492:	69 85       	ldd	r22, Y+9	; 0x09
     494:	7a 85       	ldd	r23, Y+10	; 0x0a
     496:	8b 85       	ldd	r24, Y+11	; 0x0b
     498:	9c 85       	ldd	r25, Y+12	; 0x0c
     49a:	0e 94 65 50 	call	0xa0ca	; 0xa0ca <__mulsf3>
     49e:	dc 01       	movw	r26, r24
     4a0:	cb 01       	movw	r24, r22
     4a2:	f8 01       	movw	r30, r16
     4a4:	80 83       	st	Z, r24
     4a6:	91 83       	std	Z+1, r25	; 0x01
     4a8:	a2 83       	std	Z+2, r26	; 0x02
     4aa:	b3 83       	std	Z+3, r27	; 0x03
     4ac:	ce 01       	movw	r24, r28
     4ae:	8d 5a       	subi	r24, 0xAD	; 173
     4b0:	9f 4f       	sbci	r25, 0xFF	; 255
     4b2:	20 e0       	ldi	r18, 0x00	; 0
     4b4:	30 e0       	ldi	r19, 0x00	; 0
     4b6:	40 e8       	ldi	r20, 0x80	; 128
     4b8:	5f e3       	ldi	r21, 0x3F	; 63
     4ba:	fc 01       	movw	r30, r24
     4bc:	60 81       	ld	r22, Z
     4be:	71 81       	ldd	r23, Z+1	; 0x01
     4c0:	82 81       	ldd	r24, Z+2	; 0x02
     4c2:	93 81       	ldd	r25, Z+3	; 0x03
     4c4:	0e 94 e4 4f 	call	0x9fc8	; 0x9fc8 <__cmpsf2>
     4c8:	88 23       	and	r24, r24
     4ca:	4c f4       	brge	.+18     	; 0x4de <__LOCK_REGION_LENGTH__+0xde>
     4cc:	ce 01       	movw	r24, r28
     4ce:	89 5a       	subi	r24, 0xA9	; 169
     4d0:	9f 4f       	sbci	r25, 0xFF	; 255
     4d2:	21 e0       	ldi	r18, 0x01	; 1
     4d4:	30 e0       	ldi	r19, 0x00	; 0
     4d6:	fc 01       	movw	r30, r24
     4d8:	31 83       	std	Z+1, r19	; 0x01
     4da:	20 83       	st	Z, r18
     4dc:	69 c0       	rjmp	.+210    	; 0x5b0 <__LOCK_REGION_LENGTH__+0x1b0>
     4de:	ce 01       	movw	r24, r28
     4e0:	8d 5a       	subi	r24, 0xAD	; 173
     4e2:	9f 4f       	sbci	r25, 0xFF	; 255
     4e4:	20 e0       	ldi	r18, 0x00	; 0
     4e6:	3f ef       	ldi	r19, 0xFF	; 255
     4e8:	4f e7       	ldi	r20, 0x7F	; 127
     4ea:	57 e4       	ldi	r21, 0x47	; 71
     4ec:	fc 01       	movw	r30, r24
     4ee:	60 81       	ld	r22, Z
     4f0:	71 81       	ldd	r23, Z+1	; 0x01
     4f2:	82 81       	ldd	r24, Z+2	; 0x02
     4f4:	93 81       	ldd	r25, Z+3	; 0x03
     4f6:	0e 94 61 50 	call	0xa0c2	; 0xa0c2 <__gesf2>
     4fa:	18 16       	cp	r1, r24
     4fc:	0c f0       	brlt	.+2      	; 0x500 <__LOCK_REGION_LENGTH__+0x100>
     4fe:	46 c0       	rjmp	.+140    	; 0x58c <__LOCK_REGION_LENGTH__+0x18c>
     500:	20 e0       	ldi	r18, 0x00	; 0
     502:	30 e0       	ldi	r19, 0x00	; 0
     504:	40 e2       	ldi	r20, 0x20	; 32
     506:	51 e4       	ldi	r21, 0x41	; 65
     508:	69 85       	ldd	r22, Y+9	; 0x09
     50a:	7a 85       	ldd	r23, Y+10	; 0x0a
     50c:	8b 85       	ldd	r24, Y+11	; 0x0b
     50e:	9c 85       	ldd	r25, Y+12	; 0x0c
     510:	0e 94 65 50 	call	0xa0ca	; 0xa0ca <__mulsf3>
     514:	dc 01       	movw	r26, r24
     516:	cb 01       	movw	r24, r22
     518:	8e 01       	movw	r16, r28
     51a:	09 5a       	subi	r16, 0xA9	; 169
     51c:	1f 4f       	sbci	r17, 0xFF	; 255
     51e:	bc 01       	movw	r22, r24
     520:	cd 01       	movw	r24, r26
     522:	0e 94 e8 4f 	call	0x9fd0	; 0x9fd0 <__fixunssfsi>
     526:	dc 01       	movw	r26, r24
     528:	cb 01       	movw	r24, r22
     52a:	f8 01       	movw	r30, r16
     52c:	91 83       	std	Z+1, r25	; 0x01
     52e:	80 83       	st	Z, r24
     530:	24 c0       	rjmp	.+72     	; 0x57a <__LOCK_REGION_LENGTH__+0x17a>
     532:	ce 01       	movw	r24, r28
     534:	87 5a       	subi	r24, 0xA7	; 167
     536:	9f 4f       	sbci	r25, 0xFF	; 255
     538:	20 e7       	ldi	r18, 0x70	; 112
     53a:	31 e0       	ldi	r19, 0x01	; 1
     53c:	fc 01       	movw	r30, r24
     53e:	31 83       	std	Z+1, r19	; 0x01
     540:	20 83       	st	Z, r18
     542:	ce 01       	movw	r24, r28
     544:	87 5a       	subi	r24, 0xA7	; 167
     546:	9f 4f       	sbci	r25, 0xFF	; 255
     548:	fc 01       	movw	r30, r24
     54a:	80 81       	ld	r24, Z
     54c:	91 81       	ldd	r25, Z+1	; 0x01
     54e:	01 97       	sbiw	r24, 0x01	; 1
     550:	f1 f7       	brne	.-4      	; 0x54e <__LOCK_REGION_LENGTH__+0x14e>
     552:	9e 01       	movw	r18, r28
     554:	27 5a       	subi	r18, 0xA7	; 167
     556:	3f 4f       	sbci	r19, 0xFF	; 255
     558:	f9 01       	movw	r30, r18
     55a:	91 83       	std	Z+1, r25	; 0x01
     55c:	80 83       	st	Z, r24
     55e:	ce 01       	movw	r24, r28
     560:	89 5a       	subi	r24, 0xA9	; 169
     562:	9f 4f       	sbci	r25, 0xFF	; 255
     564:	9e 01       	movw	r18, r28
     566:	29 5a       	subi	r18, 0xA9	; 169
     568:	3f 4f       	sbci	r19, 0xFF	; 255
     56a:	f9 01       	movw	r30, r18
     56c:	20 81       	ld	r18, Z
     56e:	31 81       	ldd	r19, Z+1	; 0x01
     570:	21 50       	subi	r18, 0x01	; 1
     572:	31 09       	sbc	r19, r1
     574:	fc 01       	movw	r30, r24
     576:	31 83       	std	Z+1, r19	; 0x01
     578:	20 83       	st	Z, r18
     57a:	ce 01       	movw	r24, r28
     57c:	89 5a       	subi	r24, 0xA9	; 169
     57e:	9f 4f       	sbci	r25, 0xFF	; 255
     580:	fc 01       	movw	r30, r24
     582:	80 81       	ld	r24, Z
     584:	91 81       	ldd	r25, Z+1	; 0x01
     586:	89 2b       	or	r24, r25
     588:	a1 f6       	brne	.-88     	; 0x532 <__LOCK_REGION_LENGTH__+0x132>
     58a:	2c c0       	rjmp	.+88     	; 0x5e4 <__LOCK_REGION_LENGTH__+0x1e4>
     58c:	8e 01       	movw	r16, r28
     58e:	09 5a       	subi	r16, 0xA9	; 169
     590:	1f 4f       	sbci	r17, 0xFF	; 255
     592:	ce 01       	movw	r24, r28
     594:	8d 5a       	subi	r24, 0xAD	; 173
     596:	9f 4f       	sbci	r25, 0xFF	; 255
     598:	fc 01       	movw	r30, r24
     59a:	60 81       	ld	r22, Z
     59c:	71 81       	ldd	r23, Z+1	; 0x01
     59e:	82 81       	ldd	r24, Z+2	; 0x02
     5a0:	93 81       	ldd	r25, Z+3	; 0x03
     5a2:	0e 94 e8 4f 	call	0x9fd0	; 0x9fd0 <__fixunssfsi>
     5a6:	dc 01       	movw	r26, r24
     5a8:	cb 01       	movw	r24, r22
     5aa:	f8 01       	movw	r30, r16
     5ac:	91 83       	std	Z+1, r25	; 0x01
     5ae:	80 83       	st	Z, r24
     5b0:	ce 01       	movw	r24, r28
     5b2:	85 5a       	subi	r24, 0xA5	; 165
     5b4:	9f 4f       	sbci	r25, 0xFF	; 255
     5b6:	9e 01       	movw	r18, r28
     5b8:	29 5a       	subi	r18, 0xA9	; 169
     5ba:	3f 4f       	sbci	r19, 0xFF	; 255
     5bc:	f9 01       	movw	r30, r18
     5be:	20 81       	ld	r18, Z
     5c0:	31 81       	ldd	r19, Z+1	; 0x01
     5c2:	fc 01       	movw	r30, r24
     5c4:	31 83       	std	Z+1, r19	; 0x01
     5c6:	20 83       	st	Z, r18
     5c8:	ce 01       	movw	r24, r28
     5ca:	85 5a       	subi	r24, 0xA5	; 165
     5cc:	9f 4f       	sbci	r25, 0xFF	; 255
     5ce:	fc 01       	movw	r30, r24
     5d0:	80 81       	ld	r24, Z
     5d2:	91 81       	ldd	r25, Z+1	; 0x01
     5d4:	01 97       	sbiw	r24, 0x01	; 1
     5d6:	f1 f7       	brne	.-4      	; 0x5d4 <__LOCK_REGION_LENGTH__+0x1d4>
     5d8:	9e 01       	movw	r18, r28
     5da:	25 5a       	subi	r18, 0xA5	; 165
     5dc:	3f 4f       	sbci	r19, 0xFF	; 255
     5de:	f9 01       	movw	r30, r18
     5e0:	91 83       	std	Z+1, r25	; 0x01
     5e2:	80 83       	st	Z, r24
     5e4:	88 e2       	ldi	r24, 0x28	; 40
     5e6:	90 e0       	ldi	r25, 0x00	; 0
     5e8:	28 e2       	ldi	r18, 0x28	; 40
     5ea:	30 e0       	ldi	r19, 0x00	; 0
     5ec:	f9 01       	movw	r30, r18
     5ee:	20 81       	ld	r18, Z
     5f0:	2e 7f       	andi	r18, 0xFE	; 254
     5f2:	fc 01       	movw	r30, r24
     5f4:	20 83       	st	Z, r18
     5f6:	88 e2       	ldi	r24, 0x28	; 40
     5f8:	90 e0       	ldi	r25, 0x00	; 0
     5fa:	28 e2       	ldi	r18, 0x28	; 40
     5fc:	30 e0       	ldi	r19, 0x00	; 0
     5fe:	f9 01       	movw	r30, r18
     600:	20 81       	ld	r18, Z
     602:	2d 7f       	andi	r18, 0xFD	; 253
     604:	fc 01       	movw	r30, r24
     606:	20 83       	st	Z, r18
     608:	88 e2       	ldi	r24, 0x28	; 40
     60a:	90 e0       	ldi	r25, 0x00	; 0
     60c:	20 e3       	ldi	r18, 0x30	; 48
     60e:	fc 01       	movw	r30, r24
     610:	20 83       	st	Z, r18
     612:	88 e2       	ldi	r24, 0x28	; 40
     614:	90 e0       	ldi	r25, 0x00	; 0
     616:	28 e2       	ldi	r18, 0x28	; 40
     618:	30 e0       	ldi	r19, 0x00	; 0
     61a:	f9 01       	movw	r30, r18
     61c:	20 81       	ld	r18, Z
     61e:	24 60       	ori	r18, 0x04	; 4
     620:	fc 01       	movw	r30, r24
     622:	20 83       	st	Z, r18
     624:	80 e0       	ldi	r24, 0x00	; 0
     626:	90 e0       	ldi	r25, 0x00	; 0
     628:	a0 ea       	ldi	r26, 0xA0	; 160
     62a:	b0 e4       	ldi	r27, 0x40	; 64
     62c:	8d 87       	std	Y+13, r24	; 0x0d
     62e:	9e 87       	std	Y+14, r25	; 0x0e
     630:	af 87       	std	Y+15, r26	; 0x0f
     632:	b8 8b       	std	Y+16, r27	; 0x10
     634:	8e 01       	movw	r16, r28
     636:	07 5b       	subi	r16, 0xB7	; 183
     638:	1f 4f       	sbci	r17, 0xFF	; 255
     63a:	26 e6       	ldi	r18, 0x66	; 102
     63c:	36 e6       	ldi	r19, 0x66	; 102
     63e:	46 e6       	ldi	r20, 0x66	; 102
     640:	55 e4       	ldi	r21, 0x45	; 69
     642:	6d 85       	ldd	r22, Y+13	; 0x0d
     644:	7e 85       	ldd	r23, Y+14	; 0x0e
     646:	8f 85       	ldd	r24, Y+15	; 0x0f
     648:	98 89       	ldd	r25, Y+16	; 0x10
     64a:	0e 94 65 50 	call	0xa0ca	; 0xa0ca <__mulsf3>
     64e:	dc 01       	movw	r26, r24
     650:	cb 01       	movw	r24, r22
     652:	f8 01       	movw	r30, r16
     654:	80 83       	st	Z, r24
     656:	91 83       	std	Z+1, r25	; 0x01
     658:	a2 83       	std	Z+2, r26	; 0x02
     65a:	b3 83       	std	Z+3, r27	; 0x03
     65c:	ce 01       	movw	r24, r28
     65e:	87 5b       	subi	r24, 0xB7	; 183
     660:	9f 4f       	sbci	r25, 0xFF	; 255
     662:	20 e0       	ldi	r18, 0x00	; 0
     664:	30 e0       	ldi	r19, 0x00	; 0
     666:	40 e8       	ldi	r20, 0x80	; 128
     668:	5f e3       	ldi	r21, 0x3F	; 63
     66a:	fc 01       	movw	r30, r24
     66c:	60 81       	ld	r22, Z
     66e:	71 81       	ldd	r23, Z+1	; 0x01
     670:	82 81       	ldd	r24, Z+2	; 0x02
     672:	93 81       	ldd	r25, Z+3	; 0x03
     674:	0e 94 e4 4f 	call	0x9fc8	; 0x9fc8 <__cmpsf2>
     678:	88 23       	and	r24, r24
     67a:	4c f4       	brge	.+18     	; 0x68e <__LOCK_REGION_LENGTH__+0x28e>
     67c:	ce 01       	movw	r24, r28
     67e:	83 5b       	subi	r24, 0xB3	; 179
     680:	9f 4f       	sbci	r25, 0xFF	; 255
     682:	21 e0       	ldi	r18, 0x01	; 1
     684:	30 e0       	ldi	r19, 0x00	; 0
     686:	fc 01       	movw	r30, r24
     688:	31 83       	std	Z+1, r19	; 0x01
     68a:	20 83       	st	Z, r18
     68c:	69 c0       	rjmp	.+210    	; 0x760 <__LOCK_REGION_LENGTH__+0x360>
     68e:	ce 01       	movw	r24, r28
     690:	87 5b       	subi	r24, 0xB7	; 183
     692:	9f 4f       	sbci	r25, 0xFF	; 255
     694:	20 e0       	ldi	r18, 0x00	; 0
     696:	3f ef       	ldi	r19, 0xFF	; 255
     698:	4f e7       	ldi	r20, 0x7F	; 127
     69a:	57 e4       	ldi	r21, 0x47	; 71
     69c:	fc 01       	movw	r30, r24
     69e:	60 81       	ld	r22, Z
     6a0:	71 81       	ldd	r23, Z+1	; 0x01
     6a2:	82 81       	ldd	r24, Z+2	; 0x02
     6a4:	93 81       	ldd	r25, Z+3	; 0x03
     6a6:	0e 94 61 50 	call	0xa0c2	; 0xa0c2 <__gesf2>
     6aa:	18 16       	cp	r1, r24
     6ac:	0c f0       	brlt	.+2      	; 0x6b0 <__LOCK_REGION_LENGTH__+0x2b0>
     6ae:	46 c0       	rjmp	.+140    	; 0x73c <__LOCK_REGION_LENGTH__+0x33c>
     6b0:	20 e0       	ldi	r18, 0x00	; 0
     6b2:	30 e0       	ldi	r19, 0x00	; 0
     6b4:	40 e2       	ldi	r20, 0x20	; 32
     6b6:	51 e4       	ldi	r21, 0x41	; 65
     6b8:	6d 85       	ldd	r22, Y+13	; 0x0d
     6ba:	7e 85       	ldd	r23, Y+14	; 0x0e
     6bc:	8f 85       	ldd	r24, Y+15	; 0x0f
     6be:	98 89       	ldd	r25, Y+16	; 0x10
     6c0:	0e 94 65 50 	call	0xa0ca	; 0xa0ca <__mulsf3>
     6c4:	dc 01       	movw	r26, r24
     6c6:	cb 01       	movw	r24, r22
     6c8:	8e 01       	movw	r16, r28
     6ca:	03 5b       	subi	r16, 0xB3	; 179
     6cc:	1f 4f       	sbci	r17, 0xFF	; 255
     6ce:	bc 01       	movw	r22, r24
     6d0:	cd 01       	movw	r24, r26
     6d2:	0e 94 e8 4f 	call	0x9fd0	; 0x9fd0 <__fixunssfsi>
     6d6:	dc 01       	movw	r26, r24
     6d8:	cb 01       	movw	r24, r22
     6da:	f8 01       	movw	r30, r16
     6dc:	91 83       	std	Z+1, r25	; 0x01
     6de:	80 83       	st	Z, r24
     6e0:	24 c0       	rjmp	.+72     	; 0x72a <__LOCK_REGION_LENGTH__+0x32a>
     6e2:	ce 01       	movw	r24, r28
     6e4:	81 5b       	subi	r24, 0xB1	; 177
     6e6:	9f 4f       	sbci	r25, 0xFF	; 255
     6e8:	20 e7       	ldi	r18, 0x70	; 112
     6ea:	31 e0       	ldi	r19, 0x01	; 1
     6ec:	fc 01       	movw	r30, r24
     6ee:	31 83       	std	Z+1, r19	; 0x01
     6f0:	20 83       	st	Z, r18
     6f2:	ce 01       	movw	r24, r28
     6f4:	81 5b       	subi	r24, 0xB1	; 177
     6f6:	9f 4f       	sbci	r25, 0xFF	; 255
     6f8:	fc 01       	movw	r30, r24
     6fa:	80 81       	ld	r24, Z
     6fc:	91 81       	ldd	r25, Z+1	; 0x01
     6fe:	01 97       	sbiw	r24, 0x01	; 1
     700:	f1 f7       	brne	.-4      	; 0x6fe <__LOCK_REGION_LENGTH__+0x2fe>
     702:	9e 01       	movw	r18, r28
     704:	21 5b       	subi	r18, 0xB1	; 177
     706:	3f 4f       	sbci	r19, 0xFF	; 255
     708:	f9 01       	movw	r30, r18
     70a:	91 83       	std	Z+1, r25	; 0x01
     70c:	80 83       	st	Z, r24
     70e:	ce 01       	movw	r24, r28
     710:	83 5b       	subi	r24, 0xB3	; 179
     712:	9f 4f       	sbci	r25, 0xFF	; 255
     714:	9e 01       	movw	r18, r28
     716:	23 5b       	subi	r18, 0xB3	; 179
     718:	3f 4f       	sbci	r19, 0xFF	; 255
     71a:	f9 01       	movw	r30, r18
     71c:	20 81       	ld	r18, Z
     71e:	31 81       	ldd	r19, Z+1	; 0x01
     720:	21 50       	subi	r18, 0x01	; 1
     722:	31 09       	sbc	r19, r1
     724:	fc 01       	movw	r30, r24
     726:	31 83       	std	Z+1, r19	; 0x01
     728:	20 83       	st	Z, r18
     72a:	ce 01       	movw	r24, r28
     72c:	83 5b       	subi	r24, 0xB3	; 179
     72e:	9f 4f       	sbci	r25, 0xFF	; 255
     730:	fc 01       	movw	r30, r24
     732:	80 81       	ld	r24, Z
     734:	91 81       	ldd	r25, Z+1	; 0x01
     736:	89 2b       	or	r24, r25
     738:	a1 f6       	brne	.-88     	; 0x6e2 <__LOCK_REGION_LENGTH__+0x2e2>
     73a:	2c c0       	rjmp	.+88     	; 0x794 <__LOCK_REGION_LENGTH__+0x394>
     73c:	8e 01       	movw	r16, r28
     73e:	03 5b       	subi	r16, 0xB3	; 179
     740:	1f 4f       	sbci	r17, 0xFF	; 255
     742:	ce 01       	movw	r24, r28
     744:	87 5b       	subi	r24, 0xB7	; 183
     746:	9f 4f       	sbci	r25, 0xFF	; 255
     748:	fc 01       	movw	r30, r24
     74a:	60 81       	ld	r22, Z
     74c:	71 81       	ldd	r23, Z+1	; 0x01
     74e:	82 81       	ldd	r24, Z+2	; 0x02
     750:	93 81       	ldd	r25, Z+3	; 0x03
     752:	0e 94 e8 4f 	call	0x9fd0	; 0x9fd0 <__fixunssfsi>
     756:	dc 01       	movw	r26, r24
     758:	cb 01       	movw	r24, r22
     75a:	f8 01       	movw	r30, r16
     75c:	91 83       	std	Z+1, r25	; 0x01
     75e:	80 83       	st	Z, r24
     760:	ce 01       	movw	r24, r28
     762:	8f 5a       	subi	r24, 0xAF	; 175
     764:	9f 4f       	sbci	r25, 0xFF	; 255
     766:	9e 01       	movw	r18, r28
     768:	23 5b       	subi	r18, 0xB3	; 179
     76a:	3f 4f       	sbci	r19, 0xFF	; 255
     76c:	f9 01       	movw	r30, r18
     76e:	20 81       	ld	r18, Z
     770:	31 81       	ldd	r19, Z+1	; 0x01
     772:	fc 01       	movw	r30, r24
     774:	31 83       	std	Z+1, r19	; 0x01
     776:	20 83       	st	Z, r18
     778:	ce 01       	movw	r24, r28
     77a:	8f 5a       	subi	r24, 0xAF	; 175
     77c:	9f 4f       	sbci	r25, 0xFF	; 255
     77e:	fc 01       	movw	r30, r24
     780:	80 81       	ld	r24, Z
     782:	91 81       	ldd	r25, Z+1	; 0x01
     784:	01 97       	sbiw	r24, 0x01	; 1
     786:	f1 f7       	brne	.-4      	; 0x784 <__LOCK_REGION_LENGTH__+0x384>
     788:	9e 01       	movw	r18, r28
     78a:	2f 5a       	subi	r18, 0xAF	; 175
     78c:	3f 4f       	sbci	r19, 0xFF	; 255
     78e:	f9 01       	movw	r30, r18
     790:	91 83       	std	Z+1, r25	; 0x01
     792:	80 83       	st	Z, r24
     794:	88 e2       	ldi	r24, 0x28	; 40
     796:	90 e0       	ldi	r25, 0x00	; 0
     798:	28 e2       	ldi	r18, 0x28	; 40
     79a:	30 e0       	ldi	r19, 0x00	; 0
     79c:	f9 01       	movw	r30, r18
     79e:	20 81       	ld	r18, Z
     7a0:	2b 7f       	andi	r18, 0xFB	; 251
     7a2:	fc 01       	movw	r30, r24
     7a4:	20 83       	st	Z, r18
     7a6:	80 e0       	ldi	r24, 0x00	; 0
     7a8:	90 e0       	ldi	r25, 0x00	; 0
     7aa:	a0 e8       	ldi	r26, 0x80	; 128
     7ac:	bf e3       	ldi	r27, 0x3F	; 63
     7ae:	89 8b       	std	Y+17, r24	; 0x11
     7b0:	9a 8b       	std	Y+18, r25	; 0x12
     7b2:	ab 8b       	std	Y+19, r26	; 0x13
     7b4:	bc 8b       	std	Y+20, r27	; 0x14
     7b6:	8e 01       	movw	r16, r28
     7b8:	01 5c       	subi	r16, 0xC1	; 193
     7ba:	1f 4f       	sbci	r17, 0xFF	; 255
     7bc:	26 e6       	ldi	r18, 0x66	; 102
     7be:	36 e6       	ldi	r19, 0x66	; 102
     7c0:	46 e6       	ldi	r20, 0x66	; 102
     7c2:	55 e4       	ldi	r21, 0x45	; 69
     7c4:	69 89       	ldd	r22, Y+17	; 0x11
     7c6:	7a 89       	ldd	r23, Y+18	; 0x12
     7c8:	8b 89       	ldd	r24, Y+19	; 0x13
     7ca:	9c 89       	ldd	r25, Y+20	; 0x14
     7cc:	0e 94 65 50 	call	0xa0ca	; 0xa0ca <__mulsf3>
     7d0:	dc 01       	movw	r26, r24
     7d2:	cb 01       	movw	r24, r22
     7d4:	f8 01       	movw	r30, r16
     7d6:	80 83       	st	Z, r24
     7d8:	91 83       	std	Z+1, r25	; 0x01
     7da:	a2 83       	std	Z+2, r26	; 0x02
     7dc:	b3 83       	std	Z+3, r27	; 0x03
     7de:	ce 01       	movw	r24, r28
     7e0:	cf 96       	adiw	r24, 0x3f	; 63
     7e2:	20 e0       	ldi	r18, 0x00	; 0
     7e4:	30 e0       	ldi	r19, 0x00	; 0
     7e6:	40 e8       	ldi	r20, 0x80	; 128
     7e8:	5f e3       	ldi	r21, 0x3F	; 63
     7ea:	fc 01       	movw	r30, r24
     7ec:	60 81       	ld	r22, Z
     7ee:	71 81       	ldd	r23, Z+1	; 0x01
     7f0:	82 81       	ldd	r24, Z+2	; 0x02
     7f2:	93 81       	ldd	r25, Z+3	; 0x03
     7f4:	0e 94 e4 4f 	call	0x9fc8	; 0x9fc8 <__cmpsf2>
     7f8:	88 23       	and	r24, r24
     7fa:	4c f4       	brge	.+18     	; 0x80e <__LOCK_REGION_LENGTH__+0x40e>
     7fc:	ce 01       	movw	r24, r28
     7fe:	8d 5b       	subi	r24, 0xBD	; 189
     800:	9f 4f       	sbci	r25, 0xFF	; 255
     802:	21 e0       	ldi	r18, 0x01	; 1
     804:	30 e0       	ldi	r19, 0x00	; 0
     806:	fc 01       	movw	r30, r24
     808:	31 83       	std	Z+1, r19	; 0x01
     80a:	20 83       	st	Z, r18
     80c:	67 c0       	rjmp	.+206    	; 0x8dc <__LOCK_REGION_LENGTH__+0x4dc>
     80e:	ce 01       	movw	r24, r28
     810:	cf 96       	adiw	r24, 0x3f	; 63
     812:	20 e0       	ldi	r18, 0x00	; 0
     814:	3f ef       	ldi	r19, 0xFF	; 255
     816:	4f e7       	ldi	r20, 0x7F	; 127
     818:	57 e4       	ldi	r21, 0x47	; 71
     81a:	fc 01       	movw	r30, r24
     81c:	60 81       	ld	r22, Z
     81e:	71 81       	ldd	r23, Z+1	; 0x01
     820:	82 81       	ldd	r24, Z+2	; 0x02
     822:	93 81       	ldd	r25, Z+3	; 0x03
     824:	0e 94 61 50 	call	0xa0c2	; 0xa0c2 <__gesf2>
     828:	18 16       	cp	r1, r24
     82a:	0c f0       	brlt	.+2      	; 0x82e <__LOCK_REGION_LENGTH__+0x42e>
     82c:	46 c0       	rjmp	.+140    	; 0x8ba <__LOCK_REGION_LENGTH__+0x4ba>
     82e:	20 e0       	ldi	r18, 0x00	; 0
     830:	30 e0       	ldi	r19, 0x00	; 0
     832:	40 e2       	ldi	r20, 0x20	; 32
     834:	51 e4       	ldi	r21, 0x41	; 65
     836:	69 89       	ldd	r22, Y+17	; 0x11
     838:	7a 89       	ldd	r23, Y+18	; 0x12
     83a:	8b 89       	ldd	r24, Y+19	; 0x13
     83c:	9c 89       	ldd	r25, Y+20	; 0x14
     83e:	0e 94 65 50 	call	0xa0ca	; 0xa0ca <__mulsf3>
     842:	dc 01       	movw	r26, r24
     844:	cb 01       	movw	r24, r22
     846:	8e 01       	movw	r16, r28
     848:	0d 5b       	subi	r16, 0xBD	; 189
     84a:	1f 4f       	sbci	r17, 0xFF	; 255
     84c:	bc 01       	movw	r22, r24
     84e:	cd 01       	movw	r24, r26
     850:	0e 94 e8 4f 	call	0x9fd0	; 0x9fd0 <__fixunssfsi>
     854:	dc 01       	movw	r26, r24
     856:	cb 01       	movw	r24, r22
     858:	f8 01       	movw	r30, r16
     85a:	91 83       	std	Z+1, r25	; 0x01
     85c:	80 83       	st	Z, r24
     85e:	24 c0       	rjmp	.+72     	; 0x8a8 <__LOCK_REGION_LENGTH__+0x4a8>
     860:	ce 01       	movw	r24, r28
     862:	8b 5b       	subi	r24, 0xBB	; 187
     864:	9f 4f       	sbci	r25, 0xFF	; 255
     866:	20 e7       	ldi	r18, 0x70	; 112
     868:	31 e0       	ldi	r19, 0x01	; 1
     86a:	fc 01       	movw	r30, r24
     86c:	31 83       	std	Z+1, r19	; 0x01
     86e:	20 83       	st	Z, r18
     870:	ce 01       	movw	r24, r28
     872:	8b 5b       	subi	r24, 0xBB	; 187
     874:	9f 4f       	sbci	r25, 0xFF	; 255
     876:	fc 01       	movw	r30, r24
     878:	80 81       	ld	r24, Z
     87a:	91 81       	ldd	r25, Z+1	; 0x01
     87c:	01 97       	sbiw	r24, 0x01	; 1
     87e:	f1 f7       	brne	.-4      	; 0x87c <__LOCK_REGION_LENGTH__+0x47c>
     880:	9e 01       	movw	r18, r28
     882:	2b 5b       	subi	r18, 0xBB	; 187
     884:	3f 4f       	sbci	r19, 0xFF	; 255
     886:	f9 01       	movw	r30, r18
     888:	91 83       	std	Z+1, r25	; 0x01
     88a:	80 83       	st	Z, r24
     88c:	ce 01       	movw	r24, r28
     88e:	8d 5b       	subi	r24, 0xBD	; 189
     890:	9f 4f       	sbci	r25, 0xFF	; 255
     892:	9e 01       	movw	r18, r28
     894:	2d 5b       	subi	r18, 0xBD	; 189
     896:	3f 4f       	sbci	r19, 0xFF	; 255
     898:	f9 01       	movw	r30, r18
     89a:	20 81       	ld	r18, Z
     89c:	31 81       	ldd	r19, Z+1	; 0x01
     89e:	21 50       	subi	r18, 0x01	; 1
     8a0:	31 09       	sbc	r19, r1
     8a2:	fc 01       	movw	r30, r24
     8a4:	31 83       	std	Z+1, r19	; 0x01
     8a6:	20 83       	st	Z, r18
     8a8:	ce 01       	movw	r24, r28
     8aa:	8d 5b       	subi	r24, 0xBD	; 189
     8ac:	9f 4f       	sbci	r25, 0xFF	; 255
     8ae:	fc 01       	movw	r30, r24
     8b0:	80 81       	ld	r24, Z
     8b2:	91 81       	ldd	r25, Z+1	; 0x01
     8b4:	89 2b       	or	r24, r25
     8b6:	a1 f6       	brne	.-88     	; 0x860 <__LOCK_REGION_LENGTH__+0x460>
     8b8:	2b c0       	rjmp	.+86     	; 0x910 <__LOCK_REGION_LENGTH__+0x510>
     8ba:	8e 01       	movw	r16, r28
     8bc:	0d 5b       	subi	r16, 0xBD	; 189
     8be:	1f 4f       	sbci	r17, 0xFF	; 255
     8c0:	ce 01       	movw	r24, r28
     8c2:	cf 96       	adiw	r24, 0x3f	; 63
     8c4:	fc 01       	movw	r30, r24
     8c6:	60 81       	ld	r22, Z
     8c8:	71 81       	ldd	r23, Z+1	; 0x01
     8ca:	82 81       	ldd	r24, Z+2	; 0x02
     8cc:	93 81       	ldd	r25, Z+3	; 0x03
     8ce:	0e 94 e8 4f 	call	0x9fd0	; 0x9fd0 <__fixunssfsi>
     8d2:	dc 01       	movw	r26, r24
     8d4:	cb 01       	movw	r24, r22
     8d6:	f8 01       	movw	r30, r16
     8d8:	91 83       	std	Z+1, r25	; 0x01
     8da:	80 83       	st	Z, r24
     8dc:	ce 01       	movw	r24, r28
     8de:	89 5b       	subi	r24, 0xB9	; 185
     8e0:	9f 4f       	sbci	r25, 0xFF	; 255
     8e2:	9e 01       	movw	r18, r28
     8e4:	2d 5b       	subi	r18, 0xBD	; 189
     8e6:	3f 4f       	sbci	r19, 0xFF	; 255
     8e8:	f9 01       	movw	r30, r18
     8ea:	20 81       	ld	r18, Z
     8ec:	31 81       	ldd	r19, Z+1	; 0x01
     8ee:	fc 01       	movw	r30, r24
     8f0:	31 83       	std	Z+1, r19	; 0x01
     8f2:	20 83       	st	Z, r18
     8f4:	ce 01       	movw	r24, r28
     8f6:	89 5b       	subi	r24, 0xB9	; 185
     8f8:	9f 4f       	sbci	r25, 0xFF	; 255
     8fa:	fc 01       	movw	r30, r24
     8fc:	80 81       	ld	r24, Z
     8fe:	91 81       	ldd	r25, Z+1	; 0x01
     900:	01 97       	sbiw	r24, 0x01	; 1
     902:	f1 f7       	brne	.-4      	; 0x900 <__LOCK_REGION_LENGTH__+0x500>
     904:	9e 01       	movw	r18, r28
     906:	29 5b       	subi	r18, 0xB9	; 185
     908:	3f 4f       	sbci	r19, 0xFF	; 255
     90a:	f9 01       	movw	r30, r18
     90c:	91 83       	std	Z+1, r25	; 0x01
     90e:	80 83       	st	Z, r24
     910:	88 e2       	ldi	r24, 0x28	; 40
     912:	90 e0       	ldi	r25, 0x00	; 0
     914:	28 e2       	ldi	r18, 0x28	; 40
     916:	30 e0       	ldi	r19, 0x00	; 0
     918:	f9 01       	movw	r30, r18
     91a:	20 81       	ld	r18, Z
     91c:	2e 7f       	andi	r18, 0xFE	; 254
     91e:	fc 01       	movw	r30, r24
     920:	20 83       	st	Z, r18
     922:	88 e2       	ldi	r24, 0x28	; 40
     924:	90 e0       	ldi	r25, 0x00	; 0
     926:	28 e2       	ldi	r18, 0x28	; 40
     928:	30 e0       	ldi	r19, 0x00	; 0
     92a:	f9 01       	movw	r30, r18
     92c:	20 81       	ld	r18, Z
     92e:	2d 7f       	andi	r18, 0xFD	; 253
     930:	fc 01       	movw	r30, r24
     932:	20 83       	st	Z, r18
     934:	88 e2       	ldi	r24, 0x28	; 40
     936:	90 e0       	ldi	r25, 0x00	; 0
     938:	20 e3       	ldi	r18, 0x30	; 48
     93a:	fc 01       	movw	r30, r24
     93c:	20 83       	st	Z, r18
     93e:	88 e2       	ldi	r24, 0x28	; 40
     940:	90 e0       	ldi	r25, 0x00	; 0
     942:	28 e2       	ldi	r18, 0x28	; 40
     944:	30 e0       	ldi	r19, 0x00	; 0
     946:	f9 01       	movw	r30, r18
     948:	20 81       	ld	r18, Z
     94a:	24 60       	ori	r18, 0x04	; 4
     94c:	fc 01       	movw	r30, r24
     94e:	20 83       	st	Z, r18
     950:	80 e0       	ldi	r24, 0x00	; 0
     952:	90 e0       	ldi	r25, 0x00	; 0
     954:	a0 ea       	ldi	r26, 0xA0	; 160
     956:	b0 e4       	ldi	r27, 0x40	; 64
     958:	8d 8b       	std	Y+21, r24	; 0x15
     95a:	9e 8b       	std	Y+22, r25	; 0x16
     95c:	af 8b       	std	Y+23, r26	; 0x17
     95e:	b8 8f       	std	Y+24, r27	; 0x18
     960:	26 e6       	ldi	r18, 0x66	; 102
     962:	36 e6       	ldi	r19, 0x66	; 102
     964:	46 e6       	ldi	r20, 0x66	; 102
     966:	55 e4       	ldi	r21, 0x45	; 69
     968:	6d 89       	ldd	r22, Y+21	; 0x15
     96a:	7e 89       	ldd	r23, Y+22	; 0x16
     96c:	8f 89       	ldd	r24, Y+23	; 0x17
     96e:	98 8d       	ldd	r25, Y+24	; 0x18
     970:	0e 94 65 50 	call	0xa0ca	; 0xa0ca <__mulsf3>
     974:	dc 01       	movw	r26, r24
     976:	cb 01       	movw	r24, r22
     978:	8d ab       	std	Y+53, r24	; 0x35
     97a:	9e ab       	std	Y+54, r25	; 0x36
     97c:	af ab       	std	Y+55, r26	; 0x37
     97e:	b8 af       	std	Y+56, r27	; 0x38
     980:	20 e0       	ldi	r18, 0x00	; 0
     982:	30 e0       	ldi	r19, 0x00	; 0
     984:	40 e8       	ldi	r20, 0x80	; 128
     986:	5f e3       	ldi	r21, 0x3F	; 63
     988:	6d a9       	ldd	r22, Y+53	; 0x35
     98a:	7e a9       	ldd	r23, Y+54	; 0x36
     98c:	8f a9       	ldd	r24, Y+55	; 0x37
     98e:	98 ad       	ldd	r25, Y+56	; 0x38
     990:	0e 94 e4 4f 	call	0x9fc8	; 0x9fc8 <__cmpsf2>
     994:	88 23       	and	r24, r24
     996:	2c f4       	brge	.+10     	; 0x9a2 <__LOCK_REGION_LENGTH__+0x5a2>
     998:	81 e0       	ldi	r24, 0x01	; 1
     99a:	90 e0       	ldi	r25, 0x00	; 0
     99c:	9a af       	std	Y+58, r25	; 0x3a
     99e:	89 af       	std	Y+57, r24	; 0x39
     9a0:	3f c0       	rjmp	.+126    	; 0xa20 <__LOCK_REGION_LENGTH__+0x620>
     9a2:	20 e0       	ldi	r18, 0x00	; 0
     9a4:	3f ef       	ldi	r19, 0xFF	; 255
     9a6:	4f e7       	ldi	r20, 0x7F	; 127
     9a8:	57 e4       	ldi	r21, 0x47	; 71
     9aa:	6d a9       	ldd	r22, Y+53	; 0x35
     9ac:	7e a9       	ldd	r23, Y+54	; 0x36
     9ae:	8f a9       	ldd	r24, Y+55	; 0x37
     9b0:	98 ad       	ldd	r25, Y+56	; 0x38
     9b2:	0e 94 61 50 	call	0xa0c2	; 0xa0c2 <__gesf2>
     9b6:	18 16       	cp	r1, r24
     9b8:	4c f5       	brge	.+82     	; 0xa0c <__LOCK_REGION_LENGTH__+0x60c>
     9ba:	20 e0       	ldi	r18, 0x00	; 0
     9bc:	30 e0       	ldi	r19, 0x00	; 0
     9be:	40 e2       	ldi	r20, 0x20	; 32
     9c0:	51 e4       	ldi	r21, 0x41	; 65
     9c2:	6d 89       	ldd	r22, Y+21	; 0x15
     9c4:	7e 89       	ldd	r23, Y+22	; 0x16
     9c6:	8f 89       	ldd	r24, Y+23	; 0x17
     9c8:	98 8d       	ldd	r25, Y+24	; 0x18
     9ca:	0e 94 65 50 	call	0xa0ca	; 0xa0ca <__mulsf3>
     9ce:	dc 01       	movw	r26, r24
     9d0:	cb 01       	movw	r24, r22
     9d2:	bc 01       	movw	r22, r24
     9d4:	cd 01       	movw	r24, r26
     9d6:	0e 94 e8 4f 	call	0x9fd0	; 0x9fd0 <__fixunssfsi>
     9da:	dc 01       	movw	r26, r24
     9dc:	cb 01       	movw	r24, r22
     9de:	9a af       	std	Y+58, r25	; 0x3a
     9e0:	89 af       	std	Y+57, r24	; 0x39
     9e2:	0f c0       	rjmp	.+30     	; 0xa02 <__LOCK_REGION_LENGTH__+0x602>
     9e4:	80 e7       	ldi	r24, 0x70	; 112
     9e6:	91 e0       	ldi	r25, 0x01	; 1
     9e8:	9c af       	std	Y+60, r25	; 0x3c
     9ea:	8b af       	std	Y+59, r24	; 0x3b
     9ec:	8b ad       	ldd	r24, Y+59	; 0x3b
     9ee:	9c ad       	ldd	r25, Y+60	; 0x3c
     9f0:	01 97       	sbiw	r24, 0x01	; 1
     9f2:	f1 f7       	brne	.-4      	; 0x9f0 <__LOCK_REGION_LENGTH__+0x5f0>
     9f4:	9c af       	std	Y+60, r25	; 0x3c
     9f6:	8b af       	std	Y+59, r24	; 0x3b
     9f8:	89 ad       	ldd	r24, Y+57	; 0x39
     9fa:	9a ad       	ldd	r25, Y+58	; 0x3a
     9fc:	01 97       	sbiw	r24, 0x01	; 1
     9fe:	9a af       	std	Y+58, r25	; 0x3a
     a00:	89 af       	std	Y+57, r24	; 0x39
     a02:	89 ad       	ldd	r24, Y+57	; 0x39
     a04:	9a ad       	ldd	r25, Y+58	; 0x3a
     a06:	89 2b       	or	r24, r25
     a08:	69 f7       	brne	.-38     	; 0x9e4 <__LOCK_REGION_LENGTH__+0x5e4>
     a0a:	14 c0       	rjmp	.+40     	; 0xa34 <__LOCK_REGION_LENGTH__+0x634>
     a0c:	6d a9       	ldd	r22, Y+53	; 0x35
     a0e:	7e a9       	ldd	r23, Y+54	; 0x36
     a10:	8f a9       	ldd	r24, Y+55	; 0x37
     a12:	98 ad       	ldd	r25, Y+56	; 0x38
     a14:	0e 94 e8 4f 	call	0x9fd0	; 0x9fd0 <__fixunssfsi>
     a18:	dc 01       	movw	r26, r24
     a1a:	cb 01       	movw	r24, r22
     a1c:	9a af       	std	Y+58, r25	; 0x3a
     a1e:	89 af       	std	Y+57, r24	; 0x39
     a20:	89 ad       	ldd	r24, Y+57	; 0x39
     a22:	9a ad       	ldd	r25, Y+58	; 0x3a
     a24:	9e af       	std	Y+62, r25	; 0x3e
     a26:	8d af       	std	Y+61, r24	; 0x3d
     a28:	8d ad       	ldd	r24, Y+61	; 0x3d
     a2a:	9e ad       	ldd	r25, Y+62	; 0x3e
     a2c:	01 97       	sbiw	r24, 0x01	; 1
     a2e:	f1 f7       	brne	.-4      	; 0xa2c <__LOCK_REGION_LENGTH__+0x62c>
     a30:	9e af       	std	Y+62, r25	; 0x3e
     a32:	8d af       	std	Y+61, r24	; 0x3d
     a34:	88 e2       	ldi	r24, 0x28	; 40
     a36:	90 e0       	ldi	r25, 0x00	; 0
     a38:	28 e2       	ldi	r18, 0x28	; 40
     a3a:	30 e0       	ldi	r19, 0x00	; 0
     a3c:	f9 01       	movw	r30, r18
     a3e:	20 81       	ld	r18, Z
     a40:	2b 7f       	andi	r18, 0xFB	; 251
     a42:	fc 01       	movw	r30, r24
     a44:	20 83       	st	Z, r18
     a46:	80 e0       	ldi	r24, 0x00	; 0
     a48:	90 e0       	ldi	r25, 0x00	; 0
     a4a:	a0 e8       	ldi	r26, 0x80	; 128
     a4c:	bf e3       	ldi	r27, 0x3F	; 63
     a4e:	89 8f       	std	Y+25, r24	; 0x19
     a50:	9a 8f       	std	Y+26, r25	; 0x1a
     a52:	ab 8f       	std	Y+27, r26	; 0x1b
     a54:	bc 8f       	std	Y+28, r27	; 0x1c
     a56:	26 e6       	ldi	r18, 0x66	; 102
     a58:	36 e6       	ldi	r19, 0x66	; 102
     a5a:	46 e6       	ldi	r20, 0x66	; 102
     a5c:	55 e4       	ldi	r21, 0x45	; 69
     a5e:	69 8d       	ldd	r22, Y+25	; 0x19
     a60:	7a 8d       	ldd	r23, Y+26	; 0x1a
     a62:	8b 8d       	ldd	r24, Y+27	; 0x1b
     a64:	9c 8d       	ldd	r25, Y+28	; 0x1c
     a66:	0e 94 65 50 	call	0xa0ca	; 0xa0ca <__mulsf3>
     a6a:	dc 01       	movw	r26, r24
     a6c:	cb 01       	movw	r24, r22
     a6e:	8b a7       	std	Y+43, r24	; 0x2b
     a70:	9c a7       	std	Y+44, r25	; 0x2c
     a72:	ad a7       	std	Y+45, r26	; 0x2d
     a74:	be a7       	std	Y+46, r27	; 0x2e
     a76:	20 e0       	ldi	r18, 0x00	; 0
     a78:	30 e0       	ldi	r19, 0x00	; 0
     a7a:	40 e8       	ldi	r20, 0x80	; 128
     a7c:	5f e3       	ldi	r21, 0x3F	; 63
     a7e:	6b a5       	ldd	r22, Y+43	; 0x2b
     a80:	7c a5       	ldd	r23, Y+44	; 0x2c
     a82:	8d a5       	ldd	r24, Y+45	; 0x2d
     a84:	9e a5       	ldd	r25, Y+46	; 0x2e
     a86:	0e 94 e4 4f 	call	0x9fc8	; 0x9fc8 <__cmpsf2>
     a8a:	88 23       	and	r24, r24
     a8c:	2c f4       	brge	.+10     	; 0xa98 <__LOCK_REGION_LENGTH__+0x698>
     a8e:	81 e0       	ldi	r24, 0x01	; 1
     a90:	90 e0       	ldi	r25, 0x00	; 0
     a92:	98 ab       	std	Y+48, r25	; 0x30
     a94:	8f a7       	std	Y+47, r24	; 0x2f
     a96:	3f c0       	rjmp	.+126    	; 0xb16 <__LOCK_REGION_LENGTH__+0x716>
     a98:	20 e0       	ldi	r18, 0x00	; 0
     a9a:	3f ef       	ldi	r19, 0xFF	; 255
     a9c:	4f e7       	ldi	r20, 0x7F	; 127
     a9e:	57 e4       	ldi	r21, 0x47	; 71
     aa0:	6b a5       	ldd	r22, Y+43	; 0x2b
     aa2:	7c a5       	ldd	r23, Y+44	; 0x2c
     aa4:	8d a5       	ldd	r24, Y+45	; 0x2d
     aa6:	9e a5       	ldd	r25, Y+46	; 0x2e
     aa8:	0e 94 61 50 	call	0xa0c2	; 0xa0c2 <__gesf2>
     aac:	18 16       	cp	r1, r24
     aae:	4c f5       	brge	.+82     	; 0xb02 <__LOCK_REGION_LENGTH__+0x702>
     ab0:	20 e0       	ldi	r18, 0x00	; 0
     ab2:	30 e0       	ldi	r19, 0x00	; 0
     ab4:	40 e2       	ldi	r20, 0x20	; 32
     ab6:	51 e4       	ldi	r21, 0x41	; 65
     ab8:	69 8d       	ldd	r22, Y+25	; 0x19
     aba:	7a 8d       	ldd	r23, Y+26	; 0x1a
     abc:	8b 8d       	ldd	r24, Y+27	; 0x1b
     abe:	9c 8d       	ldd	r25, Y+28	; 0x1c
     ac0:	0e 94 65 50 	call	0xa0ca	; 0xa0ca <__mulsf3>
     ac4:	dc 01       	movw	r26, r24
     ac6:	cb 01       	movw	r24, r22
     ac8:	bc 01       	movw	r22, r24
     aca:	cd 01       	movw	r24, r26
     acc:	0e 94 e8 4f 	call	0x9fd0	; 0x9fd0 <__fixunssfsi>
     ad0:	dc 01       	movw	r26, r24
     ad2:	cb 01       	movw	r24, r22
     ad4:	98 ab       	std	Y+48, r25	; 0x30
     ad6:	8f a7       	std	Y+47, r24	; 0x2f
     ad8:	0f c0       	rjmp	.+30     	; 0xaf8 <__LOCK_REGION_LENGTH__+0x6f8>
     ada:	80 e7       	ldi	r24, 0x70	; 112
     adc:	91 e0       	ldi	r25, 0x01	; 1
     ade:	9a ab       	std	Y+50, r25	; 0x32
     ae0:	89 ab       	std	Y+49, r24	; 0x31
     ae2:	89 a9       	ldd	r24, Y+49	; 0x31
     ae4:	9a a9       	ldd	r25, Y+50	; 0x32
     ae6:	01 97       	sbiw	r24, 0x01	; 1
     ae8:	f1 f7       	brne	.-4      	; 0xae6 <__LOCK_REGION_LENGTH__+0x6e6>
     aea:	9a ab       	std	Y+50, r25	; 0x32
     aec:	89 ab       	std	Y+49, r24	; 0x31
     aee:	8f a5       	ldd	r24, Y+47	; 0x2f
     af0:	98 a9       	ldd	r25, Y+48	; 0x30
     af2:	01 97       	sbiw	r24, 0x01	; 1
     af4:	98 ab       	std	Y+48, r25	; 0x30
     af6:	8f a7       	std	Y+47, r24	; 0x2f
     af8:	8f a5       	ldd	r24, Y+47	; 0x2f
     afa:	98 a9       	ldd	r25, Y+48	; 0x30
     afc:	89 2b       	or	r24, r25
     afe:	69 f7       	brne	.-38     	; 0xada <__LOCK_REGION_LENGTH__+0x6da>
     b00:	14 c0       	rjmp	.+40     	; 0xb2a <__LOCK_REGION_LENGTH__+0x72a>
     b02:	6b a5       	ldd	r22, Y+43	; 0x2b
     b04:	7c a5       	ldd	r23, Y+44	; 0x2c
     b06:	8d a5       	ldd	r24, Y+45	; 0x2d
     b08:	9e a5       	ldd	r25, Y+46	; 0x2e
     b0a:	0e 94 e8 4f 	call	0x9fd0	; 0x9fd0 <__fixunssfsi>
     b0e:	dc 01       	movw	r26, r24
     b10:	cb 01       	movw	r24, r22
     b12:	98 ab       	std	Y+48, r25	; 0x30
     b14:	8f a7       	std	Y+47, r24	; 0x2f
     b16:	8f a5       	ldd	r24, Y+47	; 0x2f
     b18:	98 a9       	ldd	r25, Y+48	; 0x30
     b1a:	9c ab       	std	Y+52, r25	; 0x34
     b1c:	8b ab       	std	Y+51, r24	; 0x33
     b1e:	8b a9       	ldd	r24, Y+51	; 0x33
     b20:	9c a9       	ldd	r25, Y+52	; 0x34
     b22:	01 97       	sbiw	r24, 0x01	; 1
     b24:	f1 f7       	brne	.-4      	; 0xb22 <__LOCK_REGION_LENGTH__+0x722>
     b26:	9c ab       	std	Y+52, r25	; 0x34
     b28:	8b ab       	std	Y+51, r24	; 0x33
     b2a:	88 e2       	ldi	r24, 0x28	; 40
     b2c:	90 e0       	ldi	r25, 0x00	; 0
     b2e:	28 e2       	ldi	r18, 0x28	; 40
     b30:	30 e0       	ldi	r19, 0x00	; 0
     b32:	f9 01       	movw	r30, r18
     b34:	20 81       	ld	r18, Z
     b36:	2e 7f       	andi	r18, 0xFE	; 254
     b38:	fc 01       	movw	r30, r24
     b3a:	20 83       	st	Z, r18
     b3c:	88 e2       	ldi	r24, 0x28	; 40
     b3e:	90 e0       	ldi	r25, 0x00	; 0
     b40:	28 e2       	ldi	r18, 0x28	; 40
     b42:	30 e0       	ldi	r19, 0x00	; 0
     b44:	f9 01       	movw	r30, r18
     b46:	20 81       	ld	r18, Z
     b48:	2d 7f       	andi	r18, 0xFD	; 253
     b4a:	fc 01       	movw	r30, r24
     b4c:	20 83       	st	Z, r18
     b4e:	88 e2       	ldi	r24, 0x28	; 40
     b50:	90 e0       	ldi	r25, 0x00	; 0
     b52:	20 e2       	ldi	r18, 0x20	; 32
     b54:	fc 01       	movw	r30, r24
     b56:	20 83       	st	Z, r18
     b58:	88 e2       	ldi	r24, 0x28	; 40
     b5a:	90 e0       	ldi	r25, 0x00	; 0
     b5c:	28 e2       	ldi	r18, 0x28	; 40
     b5e:	30 e0       	ldi	r19, 0x00	; 0
     b60:	f9 01       	movw	r30, r18
     b62:	20 81       	ld	r18, Z
     b64:	24 60       	ori	r18, 0x04	; 4
     b66:	fc 01       	movw	r30, r24
     b68:	20 83       	st	Z, r18
     b6a:	80 e0       	ldi	r24, 0x00	; 0
     b6c:	90 e0       	ldi	r25, 0x00	; 0
     b6e:	a0 ea       	ldi	r26, 0xA0	; 160
     b70:	b0 e4       	ldi	r27, 0x40	; 64
     b72:	8d 8f       	std	Y+29, r24	; 0x1d
     b74:	9e 8f       	std	Y+30, r25	; 0x1e
     b76:	af 8f       	std	Y+31, r26	; 0x1f
     b78:	b8 a3       	std	Y+32, r27	; 0x20
     b7a:	26 e6       	ldi	r18, 0x66	; 102
     b7c:	36 e6       	ldi	r19, 0x66	; 102
     b7e:	46 e6       	ldi	r20, 0x66	; 102
     b80:	55 e4       	ldi	r21, 0x45	; 69
     b82:	6d 8d       	ldd	r22, Y+29	; 0x1d
     b84:	7e 8d       	ldd	r23, Y+30	; 0x1e
     b86:	8f 8d       	ldd	r24, Y+31	; 0x1f
     b88:	98 a1       	ldd	r25, Y+32	; 0x20
     b8a:	0e 94 65 50 	call	0xa0ca	; 0xa0ca <__mulsf3>
     b8e:	dc 01       	movw	r26, r24
     b90:	cb 01       	movw	r24, r22
     b92:	89 a3       	std	Y+33, r24	; 0x21
     b94:	9a a3       	std	Y+34, r25	; 0x22
     b96:	ab a3       	std	Y+35, r26	; 0x23
     b98:	bc a3       	std	Y+36, r27	; 0x24
     b9a:	20 e0       	ldi	r18, 0x00	; 0
     b9c:	30 e0       	ldi	r19, 0x00	; 0
     b9e:	40 e8       	ldi	r20, 0x80	; 128
     ba0:	5f e3       	ldi	r21, 0x3F	; 63
     ba2:	69 a1       	ldd	r22, Y+33	; 0x21
     ba4:	7a a1       	ldd	r23, Y+34	; 0x22
     ba6:	8b a1       	ldd	r24, Y+35	; 0x23
     ba8:	9c a1       	ldd	r25, Y+36	; 0x24
     baa:	0e 94 e4 4f 	call	0x9fc8	; 0x9fc8 <__cmpsf2>
     bae:	88 23       	and	r24, r24
     bb0:	2c f4       	brge	.+10     	; 0xbbc <__LOCK_REGION_LENGTH__+0x7bc>
     bb2:	81 e0       	ldi	r24, 0x01	; 1
     bb4:	90 e0       	ldi	r25, 0x00	; 0
     bb6:	9e a3       	std	Y+38, r25	; 0x26
     bb8:	8d a3       	std	Y+37, r24	; 0x25
     bba:	3f c0       	rjmp	.+126    	; 0xc3a <__LOCK_REGION_LENGTH__+0x83a>
     bbc:	20 e0       	ldi	r18, 0x00	; 0
     bbe:	3f ef       	ldi	r19, 0xFF	; 255
     bc0:	4f e7       	ldi	r20, 0x7F	; 127
     bc2:	57 e4       	ldi	r21, 0x47	; 71
     bc4:	69 a1       	ldd	r22, Y+33	; 0x21
     bc6:	7a a1       	ldd	r23, Y+34	; 0x22
     bc8:	8b a1       	ldd	r24, Y+35	; 0x23
     bca:	9c a1       	ldd	r25, Y+36	; 0x24
     bcc:	0e 94 61 50 	call	0xa0c2	; 0xa0c2 <__gesf2>
     bd0:	18 16       	cp	r1, r24
     bd2:	4c f5       	brge	.+82     	; 0xc26 <__LOCK_REGION_LENGTH__+0x826>
     bd4:	20 e0       	ldi	r18, 0x00	; 0
     bd6:	30 e0       	ldi	r19, 0x00	; 0
     bd8:	40 e2       	ldi	r20, 0x20	; 32
     bda:	51 e4       	ldi	r21, 0x41	; 65
     bdc:	6d 8d       	ldd	r22, Y+29	; 0x1d
     bde:	7e 8d       	ldd	r23, Y+30	; 0x1e
     be0:	8f 8d       	ldd	r24, Y+31	; 0x1f
     be2:	98 a1       	ldd	r25, Y+32	; 0x20
     be4:	0e 94 65 50 	call	0xa0ca	; 0xa0ca <__mulsf3>
     be8:	dc 01       	movw	r26, r24
     bea:	cb 01       	movw	r24, r22
     bec:	bc 01       	movw	r22, r24
     bee:	cd 01       	movw	r24, r26
     bf0:	0e 94 e8 4f 	call	0x9fd0	; 0x9fd0 <__fixunssfsi>
     bf4:	dc 01       	movw	r26, r24
     bf6:	cb 01       	movw	r24, r22
     bf8:	9e a3       	std	Y+38, r25	; 0x26
     bfa:	8d a3       	std	Y+37, r24	; 0x25
     bfc:	0f c0       	rjmp	.+30     	; 0xc1c <__LOCK_REGION_LENGTH__+0x81c>
     bfe:	80 e7       	ldi	r24, 0x70	; 112
     c00:	91 e0       	ldi	r25, 0x01	; 1
     c02:	98 a7       	std	Y+40, r25	; 0x28
     c04:	8f a3       	std	Y+39, r24	; 0x27
     c06:	8f a1       	ldd	r24, Y+39	; 0x27
     c08:	98 a5       	ldd	r25, Y+40	; 0x28
     c0a:	01 97       	sbiw	r24, 0x01	; 1
     c0c:	f1 f7       	brne	.-4      	; 0xc0a <__LOCK_REGION_LENGTH__+0x80a>
     c0e:	98 a7       	std	Y+40, r25	; 0x28
     c10:	8f a3       	std	Y+39, r24	; 0x27
     c12:	8d a1       	ldd	r24, Y+37	; 0x25
     c14:	9e a1       	ldd	r25, Y+38	; 0x26
     c16:	01 97       	sbiw	r24, 0x01	; 1
     c18:	9e a3       	std	Y+38, r25	; 0x26
     c1a:	8d a3       	std	Y+37, r24	; 0x25
     c1c:	8d a1       	ldd	r24, Y+37	; 0x25
     c1e:	9e a1       	ldd	r25, Y+38	; 0x26
     c20:	89 2b       	or	r24, r25
     c22:	69 f7       	brne	.-38     	; 0xbfe <__LOCK_REGION_LENGTH__+0x7fe>
     c24:	14 c0       	rjmp	.+40     	; 0xc4e <__LOCK_REGION_LENGTH__+0x84e>
     c26:	69 a1       	ldd	r22, Y+33	; 0x21
     c28:	7a a1       	ldd	r23, Y+34	; 0x22
     c2a:	8b a1       	ldd	r24, Y+35	; 0x23
     c2c:	9c a1       	ldd	r25, Y+36	; 0x24
     c2e:	0e 94 e8 4f 	call	0x9fd0	; 0x9fd0 <__fixunssfsi>
     c32:	dc 01       	movw	r26, r24
     c34:	cb 01       	movw	r24, r22
     c36:	9e a3       	std	Y+38, r25	; 0x26
     c38:	8d a3       	std	Y+37, r24	; 0x25
     c3a:	8d a1       	ldd	r24, Y+37	; 0x25
     c3c:	9e a1       	ldd	r25, Y+38	; 0x26
     c3e:	9a a7       	std	Y+42, r25	; 0x2a
     c40:	89 a7       	std	Y+41, r24	; 0x29
     c42:	89 a5       	ldd	r24, Y+41	; 0x29
     c44:	9a a5       	ldd	r25, Y+42	; 0x2a
     c46:	01 97       	sbiw	r24, 0x01	; 1
     c48:	f1 f7       	brne	.-4      	; 0xc46 <__LOCK_REGION_LENGTH__+0x846>
     c4a:	9a a7       	std	Y+42, r25	; 0x2a
     c4c:	89 a7       	std	Y+41, r24	; 0x29
     c4e:	88 e2       	ldi	r24, 0x28	; 40
     c50:	90 e0       	ldi	r25, 0x00	; 0
     c52:	28 e2       	ldi	r18, 0x28	; 40
     c54:	30 e0       	ldi	r19, 0x00	; 0
     c56:	f9 01       	movw	r30, r18
     c58:	20 81       	ld	r18, Z
     c5a:	2b 7f       	andi	r18, 0xFB	; 251
     c5c:	fc 01       	movw	r30, r24
     c5e:	20 83       	st	Z, r18
     c60:	00 00       	nop
     c62:	c0 59       	subi	r28, 0x90	; 144
     c64:	df 4f       	sbci	r29, 0xFF	; 255
     c66:	0f b6       	in	r0, 0x3f	; 63
     c68:	f8 94       	cli
     c6a:	de bf       	out	0x3e, r29	; 62
     c6c:	0f be       	out	0x3f, r0	; 63
     c6e:	cd bf       	out	0x3d, r28	; 61
     c70:	df 91       	pop	r29
     c72:	cf 91       	pop	r28
     c74:	1f 91       	pop	r17
     c76:	0f 91       	pop	r16
     c78:	08 95       	ret

00000c7a <lcd_init>:
     c7a:	cf 93       	push	r28
     c7c:	df 93       	push	r29
     c7e:	cd b7       	in	r28, 0x3d	; 61
     c80:	de b7       	in	r29, 0x3e	; 62
     c82:	2e 97       	sbiw	r28, 0x0e	; 14
     c84:	0f b6       	in	r0, 0x3f	; 63
     c86:	f8 94       	cli
     c88:	de bf       	out	0x3e, r29	; 62
     c8a:	0f be       	out	0x3f, r0	; 63
     c8c:	cd bf       	out	0x3d, r28	; 61
     c8e:	80 e0       	ldi	r24, 0x00	; 0
     c90:	90 e0       	ldi	r25, 0x00	; 0
     c92:	a0 e8       	ldi	r26, 0x80	; 128
     c94:	bf e3       	ldi	r27, 0x3F	; 63
     c96:	89 83       	std	Y+1, r24	; 0x01
     c98:	9a 83       	std	Y+2, r25	; 0x02
     c9a:	ab 83       	std	Y+3, r26	; 0x03
     c9c:	bc 83       	std	Y+4, r27	; 0x04
     c9e:	26 e6       	ldi	r18, 0x66	; 102
     ca0:	36 e6       	ldi	r19, 0x66	; 102
     ca2:	46 e6       	ldi	r20, 0x66	; 102
     ca4:	55 e4       	ldi	r21, 0x45	; 69
     ca6:	69 81       	ldd	r22, Y+1	; 0x01
     ca8:	7a 81       	ldd	r23, Y+2	; 0x02
     caa:	8b 81       	ldd	r24, Y+3	; 0x03
     cac:	9c 81       	ldd	r25, Y+4	; 0x04
     cae:	0e 94 65 50 	call	0xa0ca	; 0xa0ca <__mulsf3>
     cb2:	dc 01       	movw	r26, r24
     cb4:	cb 01       	movw	r24, r22
     cb6:	8d 83       	std	Y+5, r24	; 0x05
     cb8:	9e 83       	std	Y+6, r25	; 0x06
     cba:	af 83       	std	Y+7, r26	; 0x07
     cbc:	b8 87       	std	Y+8, r27	; 0x08
     cbe:	20 e0       	ldi	r18, 0x00	; 0
     cc0:	30 e0       	ldi	r19, 0x00	; 0
     cc2:	40 e8       	ldi	r20, 0x80	; 128
     cc4:	5f e3       	ldi	r21, 0x3F	; 63
     cc6:	6d 81       	ldd	r22, Y+5	; 0x05
     cc8:	7e 81       	ldd	r23, Y+6	; 0x06
     cca:	8f 81       	ldd	r24, Y+7	; 0x07
     ccc:	98 85       	ldd	r25, Y+8	; 0x08
     cce:	0e 94 e4 4f 	call	0x9fc8	; 0x9fc8 <__cmpsf2>
     cd2:	88 23       	and	r24, r24
     cd4:	2c f4       	brge	.+10     	; 0xce0 <lcd_init+0x66>
     cd6:	81 e0       	ldi	r24, 0x01	; 1
     cd8:	90 e0       	ldi	r25, 0x00	; 0
     cda:	9a 87       	std	Y+10, r25	; 0x0a
     cdc:	89 87       	std	Y+9, r24	; 0x09
     cde:	3f c0       	rjmp	.+126    	; 0xd5e <lcd_init+0xe4>
     ce0:	20 e0       	ldi	r18, 0x00	; 0
     ce2:	3f ef       	ldi	r19, 0xFF	; 255
     ce4:	4f e7       	ldi	r20, 0x7F	; 127
     ce6:	57 e4       	ldi	r21, 0x47	; 71
     ce8:	6d 81       	ldd	r22, Y+5	; 0x05
     cea:	7e 81       	ldd	r23, Y+6	; 0x06
     cec:	8f 81       	ldd	r24, Y+7	; 0x07
     cee:	98 85       	ldd	r25, Y+8	; 0x08
     cf0:	0e 94 61 50 	call	0xa0c2	; 0xa0c2 <__gesf2>
     cf4:	18 16       	cp	r1, r24
     cf6:	4c f5       	brge	.+82     	; 0xd4a <lcd_init+0xd0>
     cf8:	20 e0       	ldi	r18, 0x00	; 0
     cfa:	30 e0       	ldi	r19, 0x00	; 0
     cfc:	40 e2       	ldi	r20, 0x20	; 32
     cfe:	51 e4       	ldi	r21, 0x41	; 65
     d00:	69 81       	ldd	r22, Y+1	; 0x01
     d02:	7a 81       	ldd	r23, Y+2	; 0x02
     d04:	8b 81       	ldd	r24, Y+3	; 0x03
     d06:	9c 81       	ldd	r25, Y+4	; 0x04
     d08:	0e 94 65 50 	call	0xa0ca	; 0xa0ca <__mulsf3>
     d0c:	dc 01       	movw	r26, r24
     d0e:	cb 01       	movw	r24, r22
     d10:	bc 01       	movw	r22, r24
     d12:	cd 01       	movw	r24, r26
     d14:	0e 94 e8 4f 	call	0x9fd0	; 0x9fd0 <__fixunssfsi>
     d18:	dc 01       	movw	r26, r24
     d1a:	cb 01       	movw	r24, r22
     d1c:	9a 87       	std	Y+10, r25	; 0x0a
     d1e:	89 87       	std	Y+9, r24	; 0x09
     d20:	0f c0       	rjmp	.+30     	; 0xd40 <lcd_init+0xc6>
     d22:	80 e7       	ldi	r24, 0x70	; 112
     d24:	91 e0       	ldi	r25, 0x01	; 1
     d26:	9c 87       	std	Y+12, r25	; 0x0c
     d28:	8b 87       	std	Y+11, r24	; 0x0b
     d2a:	8b 85       	ldd	r24, Y+11	; 0x0b
     d2c:	9c 85       	ldd	r25, Y+12	; 0x0c
     d2e:	01 97       	sbiw	r24, 0x01	; 1
     d30:	f1 f7       	brne	.-4      	; 0xd2e <lcd_init+0xb4>
     d32:	9c 87       	std	Y+12, r25	; 0x0c
     d34:	8b 87       	std	Y+11, r24	; 0x0b
     d36:	89 85       	ldd	r24, Y+9	; 0x09
     d38:	9a 85       	ldd	r25, Y+10	; 0x0a
     d3a:	01 97       	sbiw	r24, 0x01	; 1
     d3c:	9a 87       	std	Y+10, r25	; 0x0a
     d3e:	89 87       	std	Y+9, r24	; 0x09
     d40:	89 85       	ldd	r24, Y+9	; 0x09
     d42:	9a 85       	ldd	r25, Y+10	; 0x0a
     d44:	89 2b       	or	r24, r25
     d46:	69 f7       	brne	.-38     	; 0xd22 <lcd_init+0xa8>
     d48:	14 c0       	rjmp	.+40     	; 0xd72 <lcd_init+0xf8>
     d4a:	6d 81       	ldd	r22, Y+5	; 0x05
     d4c:	7e 81       	ldd	r23, Y+6	; 0x06
     d4e:	8f 81       	ldd	r24, Y+7	; 0x07
     d50:	98 85       	ldd	r25, Y+8	; 0x08
     d52:	0e 94 e8 4f 	call	0x9fd0	; 0x9fd0 <__fixunssfsi>
     d56:	dc 01       	movw	r26, r24
     d58:	cb 01       	movw	r24, r22
     d5a:	9a 87       	std	Y+10, r25	; 0x0a
     d5c:	89 87       	std	Y+9, r24	; 0x09
     d5e:	89 85       	ldd	r24, Y+9	; 0x09
     d60:	9a 85       	ldd	r25, Y+10	; 0x0a
     d62:	9e 87       	std	Y+14, r25	; 0x0e
     d64:	8d 87       	std	Y+13, r24	; 0x0d
     d66:	8d 85       	ldd	r24, Y+13	; 0x0d
     d68:	9e 85       	ldd	r25, Y+14	; 0x0e
     d6a:	01 97       	sbiw	r24, 0x01	; 1
     d6c:	f1 f7       	brne	.-4      	; 0xd6a <lcd_init+0xf0>
     d6e:	9e 87       	std	Y+14, r25	; 0x0e
     d70:	8d 87       	std	Y+13, r24	; 0x0d
     d72:	88 e2       	ldi	r24, 0x28	; 40
     d74:	12 d0       	rcall	.+36     	; 0xd9a <lcd_wr_command>
     d76:	81 e0       	ldi	r24, 0x01	; 1
     d78:	10 d0       	rcall	.+32     	; 0xd9a <lcd_wr_command>
     d7a:	86 e0       	ldi	r24, 0x06	; 6
     d7c:	0e d0       	rcall	.+28     	; 0xd9a <lcd_wr_command>
     d7e:	8e e0       	ldi	r24, 0x0E	; 14
     d80:	0c d0       	rcall	.+24     	; 0xd9a <lcd_wr_command>
     d82:	80 e8       	ldi	r24, 0x80	; 128
     d84:	0a d0       	rcall	.+20     	; 0xd9a <lcd_wr_command>
     d86:	00 00       	nop
     d88:	2e 96       	adiw	r28, 0x0e	; 14
     d8a:	0f b6       	in	r0, 0x3f	; 63
     d8c:	f8 94       	cli
     d8e:	de bf       	out	0x3e, r29	; 62
     d90:	0f be       	out	0x3f, r0	; 63
     d92:	cd bf       	out	0x3d, r28	; 61
     d94:	df 91       	pop	r29
     d96:	cf 91       	pop	r28
     d98:	08 95       	ret

00000d9a <lcd_wr_command>:
     d9a:	cf 93       	push	r28
     d9c:	df 93       	push	r29
     d9e:	cd b7       	in	r28, 0x3d	; 61
     da0:	de b7       	in	r29, 0x3e	; 62
     da2:	6e 97       	sbiw	r28, 0x1e	; 30
     da4:	0f b6       	in	r0, 0x3f	; 63
     da6:	f8 94       	cli
     da8:	de bf       	out	0x3e, r29	; 62
     daa:	0f be       	out	0x3f, r0	; 63
     dac:	cd bf       	out	0x3d, r28	; 61
     dae:	8e 8f       	std	Y+30, r24	; 0x1e
     db0:	8e 8d       	ldd	r24, Y+30	; 0x1e
     db2:	89 83       	std	Y+1, r24	; 0x01
     db4:	89 81       	ldd	r24, Y+1	; 0x01
     db6:	80 7f       	andi	r24, 0xF0	; 240
     db8:	89 83       	std	Y+1, r24	; 0x01
     dba:	88 e2       	ldi	r24, 0x28	; 40
     dbc:	90 e0       	ldi	r25, 0x00	; 0
     dbe:	28 e2       	ldi	r18, 0x28	; 40
     dc0:	30 e0       	ldi	r19, 0x00	; 0
     dc2:	f9 01       	movw	r30, r18
     dc4:	20 81       	ld	r18, Z
     dc6:	2f 70       	andi	r18, 0x0F	; 15
     dc8:	fc 01       	movw	r30, r24
     dca:	20 83       	st	Z, r18
     dcc:	88 e2       	ldi	r24, 0x28	; 40
     dce:	90 e0       	ldi	r25, 0x00	; 0
     dd0:	28 e2       	ldi	r18, 0x28	; 40
     dd2:	30 e0       	ldi	r19, 0x00	; 0
     dd4:	f9 01       	movw	r30, r18
     dd6:	30 81       	ld	r19, Z
     dd8:	29 81       	ldd	r18, Y+1	; 0x01
     dda:	23 2b       	or	r18, r19
     ddc:	fc 01       	movw	r30, r24
     dde:	20 83       	st	Z, r18
     de0:	88 e2       	ldi	r24, 0x28	; 40
     de2:	90 e0       	ldi	r25, 0x00	; 0
     de4:	28 e2       	ldi	r18, 0x28	; 40
     de6:	30 e0       	ldi	r19, 0x00	; 0
     de8:	f9 01       	movw	r30, r18
     dea:	20 81       	ld	r18, Z
     dec:	2e 7f       	andi	r18, 0xFE	; 254
     dee:	fc 01       	movw	r30, r24
     df0:	20 83       	st	Z, r18
     df2:	88 e2       	ldi	r24, 0x28	; 40
     df4:	90 e0       	ldi	r25, 0x00	; 0
     df6:	28 e2       	ldi	r18, 0x28	; 40
     df8:	30 e0       	ldi	r19, 0x00	; 0
     dfa:	f9 01       	movw	r30, r18
     dfc:	20 81       	ld	r18, Z
     dfe:	2d 7f       	andi	r18, 0xFD	; 253
     e00:	fc 01       	movw	r30, r24
     e02:	20 83       	st	Z, r18
     e04:	88 e2       	ldi	r24, 0x28	; 40
     e06:	90 e0       	ldi	r25, 0x00	; 0
     e08:	28 e2       	ldi	r18, 0x28	; 40
     e0a:	30 e0       	ldi	r19, 0x00	; 0
     e0c:	f9 01       	movw	r30, r18
     e0e:	20 81       	ld	r18, Z
     e10:	24 60       	ori	r18, 0x04	; 4
     e12:	fc 01       	movw	r30, r24
     e14:	20 83       	st	Z, r18
     e16:	80 e0       	ldi	r24, 0x00	; 0
     e18:	90 e0       	ldi	r25, 0x00	; 0
     e1a:	a0 ea       	ldi	r26, 0xA0	; 160
     e1c:	b0 e4       	ldi	r27, 0x40	; 64
     e1e:	8a 83       	std	Y+2, r24	; 0x02
     e20:	9b 83       	std	Y+3, r25	; 0x03
     e22:	ac 83       	std	Y+4, r26	; 0x04
     e24:	bd 83       	std	Y+5, r27	; 0x05
     e26:	26 e6       	ldi	r18, 0x66	; 102
     e28:	36 e6       	ldi	r19, 0x66	; 102
     e2a:	46 e6       	ldi	r20, 0x66	; 102
     e2c:	55 e4       	ldi	r21, 0x45	; 69
     e2e:	6a 81       	ldd	r22, Y+2	; 0x02
     e30:	7b 81       	ldd	r23, Y+3	; 0x03
     e32:	8c 81       	ldd	r24, Y+4	; 0x04
     e34:	9d 81       	ldd	r25, Y+5	; 0x05
     e36:	0e 94 65 50 	call	0xa0ca	; 0xa0ca <__mulsf3>
     e3a:	dc 01       	movw	r26, r24
     e3c:	cb 01       	movw	r24, r22
     e3e:	8c 8b       	std	Y+20, r24	; 0x14
     e40:	9d 8b       	std	Y+21, r25	; 0x15
     e42:	ae 8b       	std	Y+22, r26	; 0x16
     e44:	bf 8b       	std	Y+23, r27	; 0x17
     e46:	20 e0       	ldi	r18, 0x00	; 0
     e48:	30 e0       	ldi	r19, 0x00	; 0
     e4a:	40 e8       	ldi	r20, 0x80	; 128
     e4c:	5f e3       	ldi	r21, 0x3F	; 63
     e4e:	6c 89       	ldd	r22, Y+20	; 0x14
     e50:	7d 89       	ldd	r23, Y+21	; 0x15
     e52:	8e 89       	ldd	r24, Y+22	; 0x16
     e54:	9f 89       	ldd	r25, Y+23	; 0x17
     e56:	0e 94 e4 4f 	call	0x9fc8	; 0x9fc8 <__cmpsf2>
     e5a:	88 23       	and	r24, r24
     e5c:	2c f4       	brge	.+10     	; 0xe68 <lcd_wr_command+0xce>
     e5e:	81 e0       	ldi	r24, 0x01	; 1
     e60:	90 e0       	ldi	r25, 0x00	; 0
     e62:	99 8f       	std	Y+25, r25	; 0x19
     e64:	88 8f       	std	Y+24, r24	; 0x18
     e66:	3f c0       	rjmp	.+126    	; 0xee6 <lcd_wr_command+0x14c>
     e68:	20 e0       	ldi	r18, 0x00	; 0
     e6a:	3f ef       	ldi	r19, 0xFF	; 255
     e6c:	4f e7       	ldi	r20, 0x7F	; 127
     e6e:	57 e4       	ldi	r21, 0x47	; 71
     e70:	6c 89       	ldd	r22, Y+20	; 0x14
     e72:	7d 89       	ldd	r23, Y+21	; 0x15
     e74:	8e 89       	ldd	r24, Y+22	; 0x16
     e76:	9f 89       	ldd	r25, Y+23	; 0x17
     e78:	0e 94 61 50 	call	0xa0c2	; 0xa0c2 <__gesf2>
     e7c:	18 16       	cp	r1, r24
     e7e:	4c f5       	brge	.+82     	; 0xed2 <lcd_wr_command+0x138>
     e80:	20 e0       	ldi	r18, 0x00	; 0
     e82:	30 e0       	ldi	r19, 0x00	; 0
     e84:	40 e2       	ldi	r20, 0x20	; 32
     e86:	51 e4       	ldi	r21, 0x41	; 65
     e88:	6a 81       	ldd	r22, Y+2	; 0x02
     e8a:	7b 81       	ldd	r23, Y+3	; 0x03
     e8c:	8c 81       	ldd	r24, Y+4	; 0x04
     e8e:	9d 81       	ldd	r25, Y+5	; 0x05
     e90:	0e 94 65 50 	call	0xa0ca	; 0xa0ca <__mulsf3>
     e94:	dc 01       	movw	r26, r24
     e96:	cb 01       	movw	r24, r22
     e98:	bc 01       	movw	r22, r24
     e9a:	cd 01       	movw	r24, r26
     e9c:	0e 94 e8 4f 	call	0x9fd0	; 0x9fd0 <__fixunssfsi>
     ea0:	dc 01       	movw	r26, r24
     ea2:	cb 01       	movw	r24, r22
     ea4:	99 8f       	std	Y+25, r25	; 0x19
     ea6:	88 8f       	std	Y+24, r24	; 0x18
     ea8:	0f c0       	rjmp	.+30     	; 0xec8 <lcd_wr_command+0x12e>
     eaa:	80 e7       	ldi	r24, 0x70	; 112
     eac:	91 e0       	ldi	r25, 0x01	; 1
     eae:	9b 8f       	std	Y+27, r25	; 0x1b
     eb0:	8a 8f       	std	Y+26, r24	; 0x1a
     eb2:	8a 8d       	ldd	r24, Y+26	; 0x1a
     eb4:	9b 8d       	ldd	r25, Y+27	; 0x1b
     eb6:	01 97       	sbiw	r24, 0x01	; 1
     eb8:	f1 f7       	brne	.-4      	; 0xeb6 <lcd_wr_command+0x11c>
     eba:	9b 8f       	std	Y+27, r25	; 0x1b
     ebc:	8a 8f       	std	Y+26, r24	; 0x1a
     ebe:	88 8d       	ldd	r24, Y+24	; 0x18
     ec0:	99 8d       	ldd	r25, Y+25	; 0x19
     ec2:	01 97       	sbiw	r24, 0x01	; 1
     ec4:	99 8f       	std	Y+25, r25	; 0x19
     ec6:	88 8f       	std	Y+24, r24	; 0x18
     ec8:	88 8d       	ldd	r24, Y+24	; 0x18
     eca:	99 8d       	ldd	r25, Y+25	; 0x19
     ecc:	89 2b       	or	r24, r25
     ece:	69 f7       	brne	.-38     	; 0xeaa <lcd_wr_command+0x110>
     ed0:	14 c0       	rjmp	.+40     	; 0xefa <lcd_wr_command+0x160>
     ed2:	6c 89       	ldd	r22, Y+20	; 0x14
     ed4:	7d 89       	ldd	r23, Y+21	; 0x15
     ed6:	8e 89       	ldd	r24, Y+22	; 0x16
     ed8:	9f 89       	ldd	r25, Y+23	; 0x17
     eda:	0e 94 e8 4f 	call	0x9fd0	; 0x9fd0 <__fixunssfsi>
     ede:	dc 01       	movw	r26, r24
     ee0:	cb 01       	movw	r24, r22
     ee2:	99 8f       	std	Y+25, r25	; 0x19
     ee4:	88 8f       	std	Y+24, r24	; 0x18
     ee6:	88 8d       	ldd	r24, Y+24	; 0x18
     ee8:	99 8d       	ldd	r25, Y+25	; 0x19
     eea:	9d 8f       	std	Y+29, r25	; 0x1d
     eec:	8c 8f       	std	Y+28, r24	; 0x1c
     eee:	8c 8d       	ldd	r24, Y+28	; 0x1c
     ef0:	9d 8d       	ldd	r25, Y+29	; 0x1d
     ef2:	01 97       	sbiw	r24, 0x01	; 1
     ef4:	f1 f7       	brne	.-4      	; 0xef2 <lcd_wr_command+0x158>
     ef6:	9d 8f       	std	Y+29, r25	; 0x1d
     ef8:	8c 8f       	std	Y+28, r24	; 0x1c
     efa:	88 e2       	ldi	r24, 0x28	; 40
     efc:	90 e0       	ldi	r25, 0x00	; 0
     efe:	28 e2       	ldi	r18, 0x28	; 40
     f00:	30 e0       	ldi	r19, 0x00	; 0
     f02:	f9 01       	movw	r30, r18
     f04:	20 81       	ld	r18, Z
     f06:	2b 7f       	andi	r18, 0xFB	; 251
     f08:	fc 01       	movw	r30, r24
     f0a:	20 83       	st	Z, r18
     f0c:	8e 8d       	ldd	r24, Y+30	; 0x1e
     f0e:	8f 70       	andi	r24, 0x0F	; 15
     f10:	8e 8f       	std	Y+30, r24	; 0x1e
     f12:	8e 8d       	ldd	r24, Y+30	; 0x1e
     f14:	82 95       	swap	r24
     f16:	80 7f       	andi	r24, 0xF0	; 240
     f18:	8e 8f       	std	Y+30, r24	; 0x1e
     f1a:	88 e2       	ldi	r24, 0x28	; 40
     f1c:	90 e0       	ldi	r25, 0x00	; 0
     f1e:	28 e2       	ldi	r18, 0x28	; 40
     f20:	30 e0       	ldi	r19, 0x00	; 0
     f22:	f9 01       	movw	r30, r18
     f24:	20 81       	ld	r18, Z
     f26:	2f 70       	andi	r18, 0x0F	; 15
     f28:	fc 01       	movw	r30, r24
     f2a:	20 83       	st	Z, r18
     f2c:	88 e2       	ldi	r24, 0x28	; 40
     f2e:	90 e0       	ldi	r25, 0x00	; 0
     f30:	28 e2       	ldi	r18, 0x28	; 40
     f32:	30 e0       	ldi	r19, 0x00	; 0
     f34:	f9 01       	movw	r30, r18
     f36:	30 81       	ld	r19, Z
     f38:	2e 8d       	ldd	r18, Y+30	; 0x1e
     f3a:	23 2b       	or	r18, r19
     f3c:	fc 01       	movw	r30, r24
     f3e:	20 83       	st	Z, r18
     f40:	88 e2       	ldi	r24, 0x28	; 40
     f42:	90 e0       	ldi	r25, 0x00	; 0
     f44:	28 e2       	ldi	r18, 0x28	; 40
     f46:	30 e0       	ldi	r19, 0x00	; 0
     f48:	f9 01       	movw	r30, r18
     f4a:	20 81       	ld	r18, Z
     f4c:	2e 7f       	andi	r18, 0xFE	; 254
     f4e:	fc 01       	movw	r30, r24
     f50:	20 83       	st	Z, r18
     f52:	88 e2       	ldi	r24, 0x28	; 40
     f54:	90 e0       	ldi	r25, 0x00	; 0
     f56:	28 e2       	ldi	r18, 0x28	; 40
     f58:	30 e0       	ldi	r19, 0x00	; 0
     f5a:	f9 01       	movw	r30, r18
     f5c:	20 81       	ld	r18, Z
     f5e:	2d 7f       	andi	r18, 0xFD	; 253
     f60:	fc 01       	movw	r30, r24
     f62:	20 83       	st	Z, r18
     f64:	88 e2       	ldi	r24, 0x28	; 40
     f66:	90 e0       	ldi	r25, 0x00	; 0
     f68:	28 e2       	ldi	r18, 0x28	; 40
     f6a:	30 e0       	ldi	r19, 0x00	; 0
     f6c:	f9 01       	movw	r30, r18
     f6e:	20 81       	ld	r18, Z
     f70:	24 60       	ori	r18, 0x04	; 4
     f72:	fc 01       	movw	r30, r24
     f74:	20 83       	st	Z, r18
     f76:	80 e0       	ldi	r24, 0x00	; 0
     f78:	90 e0       	ldi	r25, 0x00	; 0
     f7a:	a0 ea       	ldi	r26, 0xA0	; 160
     f7c:	b0 e4       	ldi	r27, 0x40	; 64
     f7e:	8e 83       	std	Y+6, r24	; 0x06
     f80:	9f 83       	std	Y+7, r25	; 0x07
     f82:	a8 87       	std	Y+8, r26	; 0x08
     f84:	b9 87       	std	Y+9, r27	; 0x09
     f86:	26 e6       	ldi	r18, 0x66	; 102
     f88:	36 e6       	ldi	r19, 0x66	; 102
     f8a:	46 e6       	ldi	r20, 0x66	; 102
     f8c:	55 e4       	ldi	r21, 0x45	; 69
     f8e:	6e 81       	ldd	r22, Y+6	; 0x06
     f90:	7f 81       	ldd	r23, Y+7	; 0x07
     f92:	88 85       	ldd	r24, Y+8	; 0x08
     f94:	99 85       	ldd	r25, Y+9	; 0x09
     f96:	0e 94 65 50 	call	0xa0ca	; 0xa0ca <__mulsf3>
     f9a:	dc 01       	movw	r26, r24
     f9c:	cb 01       	movw	r24, r22
     f9e:	8a 87       	std	Y+10, r24	; 0x0a
     fa0:	9b 87       	std	Y+11, r25	; 0x0b
     fa2:	ac 87       	std	Y+12, r26	; 0x0c
     fa4:	bd 87       	std	Y+13, r27	; 0x0d
     fa6:	20 e0       	ldi	r18, 0x00	; 0
     fa8:	30 e0       	ldi	r19, 0x00	; 0
     faa:	40 e8       	ldi	r20, 0x80	; 128
     fac:	5f e3       	ldi	r21, 0x3F	; 63
     fae:	6a 85       	ldd	r22, Y+10	; 0x0a
     fb0:	7b 85       	ldd	r23, Y+11	; 0x0b
     fb2:	8c 85       	ldd	r24, Y+12	; 0x0c
     fb4:	9d 85       	ldd	r25, Y+13	; 0x0d
     fb6:	0e 94 e4 4f 	call	0x9fc8	; 0x9fc8 <__cmpsf2>
     fba:	88 23       	and	r24, r24
     fbc:	2c f4       	brge	.+10     	; 0xfc8 <lcd_wr_command+0x22e>
     fbe:	81 e0       	ldi	r24, 0x01	; 1
     fc0:	90 e0       	ldi	r25, 0x00	; 0
     fc2:	9f 87       	std	Y+15, r25	; 0x0f
     fc4:	8e 87       	std	Y+14, r24	; 0x0e
     fc6:	3f c0       	rjmp	.+126    	; 0x1046 <__EEPROM_REGION_LENGTH__+0x46>
     fc8:	20 e0       	ldi	r18, 0x00	; 0
     fca:	3f ef       	ldi	r19, 0xFF	; 255
     fcc:	4f e7       	ldi	r20, 0x7F	; 127
     fce:	57 e4       	ldi	r21, 0x47	; 71
     fd0:	6a 85       	ldd	r22, Y+10	; 0x0a
     fd2:	7b 85       	ldd	r23, Y+11	; 0x0b
     fd4:	8c 85       	ldd	r24, Y+12	; 0x0c
     fd6:	9d 85       	ldd	r25, Y+13	; 0x0d
     fd8:	0e 94 61 50 	call	0xa0c2	; 0xa0c2 <__gesf2>
     fdc:	18 16       	cp	r1, r24
     fde:	4c f5       	brge	.+82     	; 0x1032 <__EEPROM_REGION_LENGTH__+0x32>
     fe0:	20 e0       	ldi	r18, 0x00	; 0
     fe2:	30 e0       	ldi	r19, 0x00	; 0
     fe4:	40 e2       	ldi	r20, 0x20	; 32
     fe6:	51 e4       	ldi	r21, 0x41	; 65
     fe8:	6e 81       	ldd	r22, Y+6	; 0x06
     fea:	7f 81       	ldd	r23, Y+7	; 0x07
     fec:	88 85       	ldd	r24, Y+8	; 0x08
     fee:	99 85       	ldd	r25, Y+9	; 0x09
     ff0:	0e 94 65 50 	call	0xa0ca	; 0xa0ca <__mulsf3>
     ff4:	dc 01       	movw	r26, r24
     ff6:	cb 01       	movw	r24, r22
     ff8:	bc 01       	movw	r22, r24
     ffa:	cd 01       	movw	r24, r26
     ffc:	0e 94 e8 4f 	call	0x9fd0	; 0x9fd0 <__fixunssfsi>
    1000:	dc 01       	movw	r26, r24
    1002:	cb 01       	movw	r24, r22
    1004:	9f 87       	std	Y+15, r25	; 0x0f
    1006:	8e 87       	std	Y+14, r24	; 0x0e
    1008:	0f c0       	rjmp	.+30     	; 0x1028 <__EEPROM_REGION_LENGTH__+0x28>
    100a:	80 e7       	ldi	r24, 0x70	; 112
    100c:	91 e0       	ldi	r25, 0x01	; 1
    100e:	99 8b       	std	Y+17, r25	; 0x11
    1010:	88 8b       	std	Y+16, r24	; 0x10
    1012:	88 89       	ldd	r24, Y+16	; 0x10
    1014:	99 89       	ldd	r25, Y+17	; 0x11
    1016:	01 97       	sbiw	r24, 0x01	; 1
    1018:	f1 f7       	brne	.-4      	; 0x1016 <__EEPROM_REGION_LENGTH__+0x16>
    101a:	99 8b       	std	Y+17, r25	; 0x11
    101c:	88 8b       	std	Y+16, r24	; 0x10
    101e:	8e 85       	ldd	r24, Y+14	; 0x0e
    1020:	9f 85       	ldd	r25, Y+15	; 0x0f
    1022:	01 97       	sbiw	r24, 0x01	; 1
    1024:	9f 87       	std	Y+15, r25	; 0x0f
    1026:	8e 87       	std	Y+14, r24	; 0x0e
    1028:	8e 85       	ldd	r24, Y+14	; 0x0e
    102a:	9f 85       	ldd	r25, Y+15	; 0x0f
    102c:	89 2b       	or	r24, r25
    102e:	69 f7       	brne	.-38     	; 0x100a <__EEPROM_REGION_LENGTH__+0xa>
    1030:	14 c0       	rjmp	.+40     	; 0x105a <__EEPROM_REGION_LENGTH__+0x5a>
    1032:	6a 85       	ldd	r22, Y+10	; 0x0a
    1034:	7b 85       	ldd	r23, Y+11	; 0x0b
    1036:	8c 85       	ldd	r24, Y+12	; 0x0c
    1038:	9d 85       	ldd	r25, Y+13	; 0x0d
    103a:	0e 94 e8 4f 	call	0x9fd0	; 0x9fd0 <__fixunssfsi>
    103e:	dc 01       	movw	r26, r24
    1040:	cb 01       	movw	r24, r22
    1042:	9f 87       	std	Y+15, r25	; 0x0f
    1044:	8e 87       	std	Y+14, r24	; 0x0e
    1046:	8e 85       	ldd	r24, Y+14	; 0x0e
    1048:	9f 85       	ldd	r25, Y+15	; 0x0f
    104a:	9b 8b       	std	Y+19, r25	; 0x13
    104c:	8a 8b       	std	Y+18, r24	; 0x12
    104e:	8a 89       	ldd	r24, Y+18	; 0x12
    1050:	9b 89       	ldd	r25, Y+19	; 0x13
    1052:	01 97       	sbiw	r24, 0x01	; 1
    1054:	f1 f7       	brne	.-4      	; 0x1052 <__EEPROM_REGION_LENGTH__+0x52>
    1056:	9b 8b       	std	Y+19, r25	; 0x13
    1058:	8a 8b       	std	Y+18, r24	; 0x12
    105a:	88 e2       	ldi	r24, 0x28	; 40
    105c:	90 e0       	ldi	r25, 0x00	; 0
    105e:	28 e2       	ldi	r18, 0x28	; 40
    1060:	30 e0       	ldi	r19, 0x00	; 0
    1062:	f9 01       	movw	r30, r18
    1064:	20 81       	ld	r18, Z
    1066:	2b 7f       	andi	r18, 0xFB	; 251
    1068:	fc 01       	movw	r30, r24
    106a:	20 83       	st	Z, r18
    106c:	00 00       	nop
    106e:	6e 96       	adiw	r28, 0x1e	; 30
    1070:	0f b6       	in	r0, 0x3f	; 63
    1072:	f8 94       	cli
    1074:	de bf       	out	0x3e, r29	; 62
    1076:	0f be       	out	0x3f, r0	; 63
    1078:	cd bf       	out	0x3d, r28	; 61
    107a:	df 91       	pop	r29
    107c:	cf 91       	pop	r28
    107e:	08 95       	ret

00001080 <lcd_wr_char>:
    1080:	cf 93       	push	r28
    1082:	df 93       	push	r29
    1084:	cd b7       	in	r28, 0x3d	; 61
    1086:	de b7       	in	r29, 0x3e	; 62
    1088:	6e 97       	sbiw	r28, 0x1e	; 30
    108a:	0f b6       	in	r0, 0x3f	; 63
    108c:	f8 94       	cli
    108e:	de bf       	out	0x3e, r29	; 62
    1090:	0f be       	out	0x3f, r0	; 63
    1092:	cd bf       	out	0x3d, r28	; 61
    1094:	8e 8f       	std	Y+30, r24	; 0x1e
    1096:	8e 8d       	ldd	r24, Y+30	; 0x1e
    1098:	89 83       	std	Y+1, r24	; 0x01
    109a:	89 81       	ldd	r24, Y+1	; 0x01
    109c:	80 7f       	andi	r24, 0xF0	; 240
    109e:	89 83       	std	Y+1, r24	; 0x01
    10a0:	88 e2       	ldi	r24, 0x28	; 40
    10a2:	90 e0       	ldi	r25, 0x00	; 0
    10a4:	28 e2       	ldi	r18, 0x28	; 40
    10a6:	30 e0       	ldi	r19, 0x00	; 0
    10a8:	f9 01       	movw	r30, r18
    10aa:	20 81       	ld	r18, Z
    10ac:	2f 70       	andi	r18, 0x0F	; 15
    10ae:	fc 01       	movw	r30, r24
    10b0:	20 83       	st	Z, r18
    10b2:	88 e2       	ldi	r24, 0x28	; 40
    10b4:	90 e0       	ldi	r25, 0x00	; 0
    10b6:	28 e2       	ldi	r18, 0x28	; 40
    10b8:	30 e0       	ldi	r19, 0x00	; 0
    10ba:	f9 01       	movw	r30, r18
    10bc:	30 81       	ld	r19, Z
    10be:	29 81       	ldd	r18, Y+1	; 0x01
    10c0:	23 2b       	or	r18, r19
    10c2:	fc 01       	movw	r30, r24
    10c4:	20 83       	st	Z, r18
    10c6:	88 e2       	ldi	r24, 0x28	; 40
    10c8:	90 e0       	ldi	r25, 0x00	; 0
    10ca:	28 e2       	ldi	r18, 0x28	; 40
    10cc:	30 e0       	ldi	r19, 0x00	; 0
    10ce:	f9 01       	movw	r30, r18
    10d0:	20 81       	ld	r18, Z
    10d2:	21 60       	ori	r18, 0x01	; 1
    10d4:	fc 01       	movw	r30, r24
    10d6:	20 83       	st	Z, r18
    10d8:	88 e2       	ldi	r24, 0x28	; 40
    10da:	90 e0       	ldi	r25, 0x00	; 0
    10dc:	28 e2       	ldi	r18, 0x28	; 40
    10de:	30 e0       	ldi	r19, 0x00	; 0
    10e0:	f9 01       	movw	r30, r18
    10e2:	20 81       	ld	r18, Z
    10e4:	2d 7f       	andi	r18, 0xFD	; 253
    10e6:	fc 01       	movw	r30, r24
    10e8:	20 83       	st	Z, r18
    10ea:	88 e2       	ldi	r24, 0x28	; 40
    10ec:	90 e0       	ldi	r25, 0x00	; 0
    10ee:	28 e2       	ldi	r18, 0x28	; 40
    10f0:	30 e0       	ldi	r19, 0x00	; 0
    10f2:	f9 01       	movw	r30, r18
    10f4:	20 81       	ld	r18, Z
    10f6:	24 60       	ori	r18, 0x04	; 4
    10f8:	fc 01       	movw	r30, r24
    10fa:	20 83       	st	Z, r18
    10fc:	80 e0       	ldi	r24, 0x00	; 0
    10fe:	90 e0       	ldi	r25, 0x00	; 0
    1100:	a0 ea       	ldi	r26, 0xA0	; 160
    1102:	b0 e4       	ldi	r27, 0x40	; 64
    1104:	8a 83       	std	Y+2, r24	; 0x02
    1106:	9b 83       	std	Y+3, r25	; 0x03
    1108:	ac 83       	std	Y+4, r26	; 0x04
    110a:	bd 83       	std	Y+5, r27	; 0x05
    110c:	26 e6       	ldi	r18, 0x66	; 102
    110e:	36 e6       	ldi	r19, 0x66	; 102
    1110:	46 e6       	ldi	r20, 0x66	; 102
    1112:	55 e4       	ldi	r21, 0x45	; 69
    1114:	6a 81       	ldd	r22, Y+2	; 0x02
    1116:	7b 81       	ldd	r23, Y+3	; 0x03
    1118:	8c 81       	ldd	r24, Y+4	; 0x04
    111a:	9d 81       	ldd	r25, Y+5	; 0x05
    111c:	0e 94 65 50 	call	0xa0ca	; 0xa0ca <__mulsf3>
    1120:	dc 01       	movw	r26, r24
    1122:	cb 01       	movw	r24, r22
    1124:	8c 8b       	std	Y+20, r24	; 0x14
    1126:	9d 8b       	std	Y+21, r25	; 0x15
    1128:	ae 8b       	std	Y+22, r26	; 0x16
    112a:	bf 8b       	std	Y+23, r27	; 0x17
    112c:	20 e0       	ldi	r18, 0x00	; 0
    112e:	30 e0       	ldi	r19, 0x00	; 0
    1130:	40 e8       	ldi	r20, 0x80	; 128
    1132:	5f e3       	ldi	r21, 0x3F	; 63
    1134:	6c 89       	ldd	r22, Y+20	; 0x14
    1136:	7d 89       	ldd	r23, Y+21	; 0x15
    1138:	8e 89       	ldd	r24, Y+22	; 0x16
    113a:	9f 89       	ldd	r25, Y+23	; 0x17
    113c:	0e 94 e4 4f 	call	0x9fc8	; 0x9fc8 <__cmpsf2>
    1140:	88 23       	and	r24, r24
    1142:	2c f4       	brge	.+10     	; 0x114e <lcd_wr_char+0xce>
    1144:	81 e0       	ldi	r24, 0x01	; 1
    1146:	90 e0       	ldi	r25, 0x00	; 0
    1148:	99 8f       	std	Y+25, r25	; 0x19
    114a:	88 8f       	std	Y+24, r24	; 0x18
    114c:	3f c0       	rjmp	.+126    	; 0x11cc <lcd_wr_char+0x14c>
    114e:	20 e0       	ldi	r18, 0x00	; 0
    1150:	3f ef       	ldi	r19, 0xFF	; 255
    1152:	4f e7       	ldi	r20, 0x7F	; 127
    1154:	57 e4       	ldi	r21, 0x47	; 71
    1156:	6c 89       	ldd	r22, Y+20	; 0x14
    1158:	7d 89       	ldd	r23, Y+21	; 0x15
    115a:	8e 89       	ldd	r24, Y+22	; 0x16
    115c:	9f 89       	ldd	r25, Y+23	; 0x17
    115e:	0e 94 61 50 	call	0xa0c2	; 0xa0c2 <__gesf2>
    1162:	18 16       	cp	r1, r24
    1164:	4c f5       	brge	.+82     	; 0x11b8 <lcd_wr_char+0x138>
    1166:	20 e0       	ldi	r18, 0x00	; 0
    1168:	30 e0       	ldi	r19, 0x00	; 0
    116a:	40 e2       	ldi	r20, 0x20	; 32
    116c:	51 e4       	ldi	r21, 0x41	; 65
    116e:	6a 81       	ldd	r22, Y+2	; 0x02
    1170:	7b 81       	ldd	r23, Y+3	; 0x03
    1172:	8c 81       	ldd	r24, Y+4	; 0x04
    1174:	9d 81       	ldd	r25, Y+5	; 0x05
    1176:	0e 94 65 50 	call	0xa0ca	; 0xa0ca <__mulsf3>
    117a:	dc 01       	movw	r26, r24
    117c:	cb 01       	movw	r24, r22
    117e:	bc 01       	movw	r22, r24
    1180:	cd 01       	movw	r24, r26
    1182:	0e 94 e8 4f 	call	0x9fd0	; 0x9fd0 <__fixunssfsi>
    1186:	dc 01       	movw	r26, r24
    1188:	cb 01       	movw	r24, r22
    118a:	99 8f       	std	Y+25, r25	; 0x19
    118c:	88 8f       	std	Y+24, r24	; 0x18
    118e:	0f c0       	rjmp	.+30     	; 0x11ae <lcd_wr_char+0x12e>
    1190:	80 e7       	ldi	r24, 0x70	; 112
    1192:	91 e0       	ldi	r25, 0x01	; 1
    1194:	9b 8f       	std	Y+27, r25	; 0x1b
    1196:	8a 8f       	std	Y+26, r24	; 0x1a
    1198:	8a 8d       	ldd	r24, Y+26	; 0x1a
    119a:	9b 8d       	ldd	r25, Y+27	; 0x1b
    119c:	01 97       	sbiw	r24, 0x01	; 1
    119e:	f1 f7       	brne	.-4      	; 0x119c <lcd_wr_char+0x11c>
    11a0:	9b 8f       	std	Y+27, r25	; 0x1b
    11a2:	8a 8f       	std	Y+26, r24	; 0x1a
    11a4:	88 8d       	ldd	r24, Y+24	; 0x18
    11a6:	99 8d       	ldd	r25, Y+25	; 0x19
    11a8:	01 97       	sbiw	r24, 0x01	; 1
    11aa:	99 8f       	std	Y+25, r25	; 0x19
    11ac:	88 8f       	std	Y+24, r24	; 0x18
    11ae:	88 8d       	ldd	r24, Y+24	; 0x18
    11b0:	99 8d       	ldd	r25, Y+25	; 0x19
    11b2:	89 2b       	or	r24, r25
    11b4:	69 f7       	brne	.-38     	; 0x1190 <lcd_wr_char+0x110>
    11b6:	14 c0       	rjmp	.+40     	; 0x11e0 <lcd_wr_char+0x160>
    11b8:	6c 89       	ldd	r22, Y+20	; 0x14
    11ba:	7d 89       	ldd	r23, Y+21	; 0x15
    11bc:	8e 89       	ldd	r24, Y+22	; 0x16
    11be:	9f 89       	ldd	r25, Y+23	; 0x17
    11c0:	0e 94 e8 4f 	call	0x9fd0	; 0x9fd0 <__fixunssfsi>
    11c4:	dc 01       	movw	r26, r24
    11c6:	cb 01       	movw	r24, r22
    11c8:	99 8f       	std	Y+25, r25	; 0x19
    11ca:	88 8f       	std	Y+24, r24	; 0x18
    11cc:	88 8d       	ldd	r24, Y+24	; 0x18
    11ce:	99 8d       	ldd	r25, Y+25	; 0x19
    11d0:	9d 8f       	std	Y+29, r25	; 0x1d
    11d2:	8c 8f       	std	Y+28, r24	; 0x1c
    11d4:	8c 8d       	ldd	r24, Y+28	; 0x1c
    11d6:	9d 8d       	ldd	r25, Y+29	; 0x1d
    11d8:	01 97       	sbiw	r24, 0x01	; 1
    11da:	f1 f7       	brne	.-4      	; 0x11d8 <lcd_wr_char+0x158>
    11dc:	9d 8f       	std	Y+29, r25	; 0x1d
    11de:	8c 8f       	std	Y+28, r24	; 0x1c
    11e0:	88 e2       	ldi	r24, 0x28	; 40
    11e2:	90 e0       	ldi	r25, 0x00	; 0
    11e4:	28 e2       	ldi	r18, 0x28	; 40
    11e6:	30 e0       	ldi	r19, 0x00	; 0
    11e8:	f9 01       	movw	r30, r18
    11ea:	20 81       	ld	r18, Z
    11ec:	2b 7f       	andi	r18, 0xFB	; 251
    11ee:	fc 01       	movw	r30, r24
    11f0:	20 83       	st	Z, r18
    11f2:	8e 8d       	ldd	r24, Y+30	; 0x1e
    11f4:	8f 70       	andi	r24, 0x0F	; 15
    11f6:	8e 8f       	std	Y+30, r24	; 0x1e
    11f8:	8e 8d       	ldd	r24, Y+30	; 0x1e
    11fa:	82 95       	swap	r24
    11fc:	80 7f       	andi	r24, 0xF0	; 240
    11fe:	8e 8f       	std	Y+30, r24	; 0x1e
    1200:	88 e2       	ldi	r24, 0x28	; 40
    1202:	90 e0       	ldi	r25, 0x00	; 0
    1204:	28 e2       	ldi	r18, 0x28	; 40
    1206:	30 e0       	ldi	r19, 0x00	; 0
    1208:	f9 01       	movw	r30, r18
    120a:	20 81       	ld	r18, Z
    120c:	2f 70       	andi	r18, 0x0F	; 15
    120e:	fc 01       	movw	r30, r24
    1210:	20 83       	st	Z, r18
    1212:	88 e2       	ldi	r24, 0x28	; 40
    1214:	90 e0       	ldi	r25, 0x00	; 0
    1216:	28 e2       	ldi	r18, 0x28	; 40
    1218:	30 e0       	ldi	r19, 0x00	; 0
    121a:	f9 01       	movw	r30, r18
    121c:	30 81       	ld	r19, Z
    121e:	2e 8d       	ldd	r18, Y+30	; 0x1e
    1220:	23 2b       	or	r18, r19
    1222:	fc 01       	movw	r30, r24
    1224:	20 83       	st	Z, r18
    1226:	88 e2       	ldi	r24, 0x28	; 40
    1228:	90 e0       	ldi	r25, 0x00	; 0
    122a:	28 e2       	ldi	r18, 0x28	; 40
    122c:	30 e0       	ldi	r19, 0x00	; 0
    122e:	f9 01       	movw	r30, r18
    1230:	20 81       	ld	r18, Z
    1232:	21 60       	ori	r18, 0x01	; 1
    1234:	fc 01       	movw	r30, r24
    1236:	20 83       	st	Z, r18
    1238:	88 e2       	ldi	r24, 0x28	; 40
    123a:	90 e0       	ldi	r25, 0x00	; 0
    123c:	28 e2       	ldi	r18, 0x28	; 40
    123e:	30 e0       	ldi	r19, 0x00	; 0
    1240:	f9 01       	movw	r30, r18
    1242:	20 81       	ld	r18, Z
    1244:	2d 7f       	andi	r18, 0xFD	; 253
    1246:	fc 01       	movw	r30, r24
    1248:	20 83       	st	Z, r18
    124a:	88 e2       	ldi	r24, 0x28	; 40
    124c:	90 e0       	ldi	r25, 0x00	; 0
    124e:	28 e2       	ldi	r18, 0x28	; 40
    1250:	30 e0       	ldi	r19, 0x00	; 0
    1252:	f9 01       	movw	r30, r18
    1254:	20 81       	ld	r18, Z
    1256:	24 60       	ori	r18, 0x04	; 4
    1258:	fc 01       	movw	r30, r24
    125a:	20 83       	st	Z, r18
    125c:	80 e0       	ldi	r24, 0x00	; 0
    125e:	90 e0       	ldi	r25, 0x00	; 0
    1260:	a0 ea       	ldi	r26, 0xA0	; 160
    1262:	b0 e4       	ldi	r27, 0x40	; 64
    1264:	8e 83       	std	Y+6, r24	; 0x06
    1266:	9f 83       	std	Y+7, r25	; 0x07
    1268:	a8 87       	std	Y+8, r26	; 0x08
    126a:	b9 87       	std	Y+9, r27	; 0x09
    126c:	26 e6       	ldi	r18, 0x66	; 102
    126e:	36 e6       	ldi	r19, 0x66	; 102
    1270:	46 e6       	ldi	r20, 0x66	; 102
    1272:	55 e4       	ldi	r21, 0x45	; 69
    1274:	6e 81       	ldd	r22, Y+6	; 0x06
    1276:	7f 81       	ldd	r23, Y+7	; 0x07
    1278:	88 85       	ldd	r24, Y+8	; 0x08
    127a:	99 85       	ldd	r25, Y+9	; 0x09
    127c:	0e 94 65 50 	call	0xa0ca	; 0xa0ca <__mulsf3>
    1280:	dc 01       	movw	r26, r24
    1282:	cb 01       	movw	r24, r22
    1284:	8a 87       	std	Y+10, r24	; 0x0a
    1286:	9b 87       	std	Y+11, r25	; 0x0b
    1288:	ac 87       	std	Y+12, r26	; 0x0c
    128a:	bd 87       	std	Y+13, r27	; 0x0d
    128c:	20 e0       	ldi	r18, 0x00	; 0
    128e:	30 e0       	ldi	r19, 0x00	; 0
    1290:	40 e8       	ldi	r20, 0x80	; 128
    1292:	5f e3       	ldi	r21, 0x3F	; 63
    1294:	6a 85       	ldd	r22, Y+10	; 0x0a
    1296:	7b 85       	ldd	r23, Y+11	; 0x0b
    1298:	8c 85       	ldd	r24, Y+12	; 0x0c
    129a:	9d 85       	ldd	r25, Y+13	; 0x0d
    129c:	0e 94 e4 4f 	call	0x9fc8	; 0x9fc8 <__cmpsf2>
    12a0:	88 23       	and	r24, r24
    12a2:	2c f4       	brge	.+10     	; 0x12ae <lcd_wr_char+0x22e>
    12a4:	81 e0       	ldi	r24, 0x01	; 1
    12a6:	90 e0       	ldi	r25, 0x00	; 0
    12a8:	9f 87       	std	Y+15, r25	; 0x0f
    12aa:	8e 87       	std	Y+14, r24	; 0x0e
    12ac:	3f c0       	rjmp	.+126    	; 0x132c <lcd_wr_char+0x2ac>
    12ae:	20 e0       	ldi	r18, 0x00	; 0
    12b0:	3f ef       	ldi	r19, 0xFF	; 255
    12b2:	4f e7       	ldi	r20, 0x7F	; 127
    12b4:	57 e4       	ldi	r21, 0x47	; 71
    12b6:	6a 85       	ldd	r22, Y+10	; 0x0a
    12b8:	7b 85       	ldd	r23, Y+11	; 0x0b
    12ba:	8c 85       	ldd	r24, Y+12	; 0x0c
    12bc:	9d 85       	ldd	r25, Y+13	; 0x0d
    12be:	0e 94 61 50 	call	0xa0c2	; 0xa0c2 <__gesf2>
    12c2:	18 16       	cp	r1, r24
    12c4:	4c f5       	brge	.+82     	; 0x1318 <lcd_wr_char+0x298>
    12c6:	20 e0       	ldi	r18, 0x00	; 0
    12c8:	30 e0       	ldi	r19, 0x00	; 0
    12ca:	40 e2       	ldi	r20, 0x20	; 32
    12cc:	51 e4       	ldi	r21, 0x41	; 65
    12ce:	6e 81       	ldd	r22, Y+6	; 0x06
    12d0:	7f 81       	ldd	r23, Y+7	; 0x07
    12d2:	88 85       	ldd	r24, Y+8	; 0x08
    12d4:	99 85       	ldd	r25, Y+9	; 0x09
    12d6:	0e 94 65 50 	call	0xa0ca	; 0xa0ca <__mulsf3>
    12da:	dc 01       	movw	r26, r24
    12dc:	cb 01       	movw	r24, r22
    12de:	bc 01       	movw	r22, r24
    12e0:	cd 01       	movw	r24, r26
    12e2:	0e 94 e8 4f 	call	0x9fd0	; 0x9fd0 <__fixunssfsi>
    12e6:	dc 01       	movw	r26, r24
    12e8:	cb 01       	movw	r24, r22
    12ea:	9f 87       	std	Y+15, r25	; 0x0f
    12ec:	8e 87       	std	Y+14, r24	; 0x0e
    12ee:	0f c0       	rjmp	.+30     	; 0x130e <lcd_wr_char+0x28e>
    12f0:	80 e7       	ldi	r24, 0x70	; 112
    12f2:	91 e0       	ldi	r25, 0x01	; 1
    12f4:	99 8b       	std	Y+17, r25	; 0x11
    12f6:	88 8b       	std	Y+16, r24	; 0x10
    12f8:	88 89       	ldd	r24, Y+16	; 0x10
    12fa:	99 89       	ldd	r25, Y+17	; 0x11
    12fc:	01 97       	sbiw	r24, 0x01	; 1
    12fe:	f1 f7       	brne	.-4      	; 0x12fc <lcd_wr_char+0x27c>
    1300:	99 8b       	std	Y+17, r25	; 0x11
    1302:	88 8b       	std	Y+16, r24	; 0x10
    1304:	8e 85       	ldd	r24, Y+14	; 0x0e
    1306:	9f 85       	ldd	r25, Y+15	; 0x0f
    1308:	01 97       	sbiw	r24, 0x01	; 1
    130a:	9f 87       	std	Y+15, r25	; 0x0f
    130c:	8e 87       	std	Y+14, r24	; 0x0e
    130e:	8e 85       	ldd	r24, Y+14	; 0x0e
    1310:	9f 85       	ldd	r25, Y+15	; 0x0f
    1312:	89 2b       	or	r24, r25
    1314:	69 f7       	brne	.-38     	; 0x12f0 <lcd_wr_char+0x270>
    1316:	14 c0       	rjmp	.+40     	; 0x1340 <lcd_wr_char+0x2c0>
    1318:	6a 85       	ldd	r22, Y+10	; 0x0a
    131a:	7b 85       	ldd	r23, Y+11	; 0x0b
    131c:	8c 85       	ldd	r24, Y+12	; 0x0c
    131e:	9d 85       	ldd	r25, Y+13	; 0x0d
    1320:	0e 94 e8 4f 	call	0x9fd0	; 0x9fd0 <__fixunssfsi>
    1324:	dc 01       	movw	r26, r24
    1326:	cb 01       	movw	r24, r22
    1328:	9f 87       	std	Y+15, r25	; 0x0f
    132a:	8e 87       	std	Y+14, r24	; 0x0e
    132c:	8e 85       	ldd	r24, Y+14	; 0x0e
    132e:	9f 85       	ldd	r25, Y+15	; 0x0f
    1330:	9b 8b       	std	Y+19, r25	; 0x13
    1332:	8a 8b       	std	Y+18, r24	; 0x12
    1334:	8a 89       	ldd	r24, Y+18	; 0x12
    1336:	9b 89       	ldd	r25, Y+19	; 0x13
    1338:	01 97       	sbiw	r24, 0x01	; 1
    133a:	f1 f7       	brne	.-4      	; 0x1338 <lcd_wr_char+0x2b8>
    133c:	9b 8b       	std	Y+19, r25	; 0x13
    133e:	8a 8b       	std	Y+18, r24	; 0x12
    1340:	88 e2       	ldi	r24, 0x28	; 40
    1342:	90 e0       	ldi	r25, 0x00	; 0
    1344:	28 e2       	ldi	r18, 0x28	; 40
    1346:	30 e0       	ldi	r19, 0x00	; 0
    1348:	f9 01       	movw	r30, r18
    134a:	20 81       	ld	r18, Z
    134c:	2b 7f       	andi	r18, 0xFB	; 251
    134e:	fc 01       	movw	r30, r24
    1350:	20 83       	st	Z, r18
    1352:	00 00       	nop
    1354:	6e 96       	adiw	r28, 0x1e	; 30
    1356:	0f b6       	in	r0, 0x3f	; 63
    1358:	f8 94       	cli
    135a:	de bf       	out	0x3e, r29	; 62
    135c:	0f be       	out	0x3f, r0	; 63
    135e:	cd bf       	out	0x3d, r28	; 61
    1360:	df 91       	pop	r29
    1362:	cf 91       	pop	r28
    1364:	08 95       	ret

00001366 <lcd_home>:
    1366:	cf 93       	push	r28
    1368:	df 93       	push	r29
    136a:	cd b7       	in	r28, 0x3d	; 61
    136c:	de b7       	in	r29, 0x3e	; 62
    136e:	80 e8       	ldi	r24, 0x80	; 128
    1370:	14 dd       	rcall	.-1496   	; 0xd9a <lcd_wr_command>
    1372:	00 00       	nop
    1374:	df 91       	pop	r29
    1376:	cf 91       	pop	r28
    1378:	08 95       	ret

0000137a <lcd_clear>:
    137a:	cf 93       	push	r28
    137c:	df 93       	push	r29
    137e:	cd b7       	in	r28, 0x3d	; 61
    1380:	de b7       	in	r29, 0x3e	; 62
    1382:	81 e0       	ldi	r24, 0x01	; 1
    1384:	0a dd       	rcall	.-1516   	; 0xd9a <lcd_wr_command>
    1386:	00 00       	nop
    1388:	df 91       	pop	r29
    138a:	cf 91       	pop	r28
    138c:	08 95       	ret

0000138e <lcd_cursor>:
    138e:	cf 93       	push	r28
    1390:	df 93       	push	r29
    1392:	1f 92       	push	r1
    1394:	1f 92       	push	r1
    1396:	cd b7       	in	r28, 0x3d	; 61
    1398:	de b7       	in	r29, 0x3e	; 62
    139a:	89 83       	std	Y+1, r24	; 0x01
    139c:	6a 83       	std	Y+2, r22	; 0x02
    139e:	89 81       	ldd	r24, Y+1	; 0x01
    13a0:	88 2f       	mov	r24, r24
    13a2:	90 e0       	ldi	r25, 0x00	; 0
    13a4:	82 30       	cpi	r24, 0x02	; 2
    13a6:	91 05       	cpc	r25, r1
    13a8:	81 f0       	breq	.+32     	; 0x13ca <lcd_cursor+0x3c>
    13aa:	83 30       	cpi	r24, 0x03	; 3
    13ac:	91 05       	cpc	r25, r1
    13ae:	1c f4       	brge	.+6      	; 0x13b6 <lcd_cursor+0x28>
    13b0:	01 97       	sbiw	r24, 0x01	; 1
    13b2:	39 f0       	breq	.+14     	; 0x13c2 <lcd_cursor+0x34>
    13b4:	16 c0       	rjmp	.+44     	; 0x13e2 <lcd_cursor+0x54>
    13b6:	83 30       	cpi	r24, 0x03	; 3
    13b8:	91 05       	cpc	r25, r1
    13ba:	59 f0       	breq	.+22     	; 0x13d2 <lcd_cursor+0x44>
    13bc:	04 97       	sbiw	r24, 0x04	; 4
    13be:	69 f0       	breq	.+26     	; 0x13da <lcd_cursor+0x4c>
    13c0:	10 c0       	rjmp	.+32     	; 0x13e2 <lcd_cursor+0x54>
    13c2:	8a 81       	ldd	r24, Y+2	; 0x02
    13c4:	81 58       	subi	r24, 0x81	; 129
    13c6:	e9 dc       	rcall	.-1582   	; 0xd9a <lcd_wr_command>
    13c8:	0c c0       	rjmp	.+24     	; 0x13e2 <lcd_cursor+0x54>
    13ca:	8a 81       	ldd	r24, Y+2	; 0x02
    13cc:	81 54       	subi	r24, 0x41	; 65
    13ce:	e5 dc       	rcall	.-1590   	; 0xd9a <lcd_wr_command>
    13d0:	08 c0       	rjmp	.+16     	; 0x13e2 <lcd_cursor+0x54>
    13d2:	8a 81       	ldd	r24, Y+2	; 0x02
    13d4:	8d 56       	subi	r24, 0x6D	; 109
    13d6:	e1 dc       	rcall	.-1598   	; 0xd9a <lcd_wr_command>
    13d8:	04 c0       	rjmp	.+8      	; 0x13e2 <lcd_cursor+0x54>
    13da:	8a 81       	ldd	r24, Y+2	; 0x02
    13dc:	8d 52       	subi	r24, 0x2D	; 45
    13de:	dd dc       	rcall	.-1606   	; 0xd9a <lcd_wr_command>
    13e0:	00 00       	nop
    13e2:	00 00       	nop
    13e4:	0f 90       	pop	r0
    13e6:	0f 90       	pop	r0
    13e8:	df 91       	pop	r29
    13ea:	cf 91       	pop	r28
    13ec:	08 95       	ret

000013ee <lcd_print>:
    13ee:	cf 93       	push	r28
    13f0:	df 93       	push	r29
    13f2:	cd b7       	in	r28, 0x3d	; 61
    13f4:	de b7       	in	r29, 0x3e	; 62
    13f6:	27 97       	sbiw	r28, 0x07	; 7
    13f8:	0f b6       	in	r0, 0x3f	; 63
    13fa:	f8 94       	cli
    13fc:	de bf       	out	0x3e, r29	; 62
    13fe:	0f be       	out	0x3f, r0	; 63
    1400:	cd bf       	out	0x3d, r28	; 61
    1402:	8a 83       	std	Y+2, r24	; 0x02
    1404:	6b 83       	std	Y+3, r22	; 0x03
    1406:	5d 83       	std	Y+5, r21	; 0x05
    1408:	4c 83       	std	Y+4, r20	; 0x04
    140a:	3f 83       	std	Y+7, r19	; 0x07
    140c:	2e 83       	std	Y+6, r18	; 0x06
    140e:	19 82       	std	Y+1, r1	; 0x01
    1410:	8a 81       	ldd	r24, Y+2	; 0x02
    1412:	88 23       	and	r24, r24
    1414:	19 f0       	breq	.+6      	; 0x141c <lcd_print+0x2e>
    1416:	8b 81       	ldd	r24, Y+3	; 0x03
    1418:	88 23       	and	r24, r24
    141a:	11 f4       	brne	.+4      	; 0x1420 <lcd_print+0x32>
    141c:	a4 df       	rcall	.-184    	; 0x1366 <lcd_home>
    141e:	03 c0       	rjmp	.+6      	; 0x1426 <lcd_print+0x38>
    1420:	6b 81       	ldd	r22, Y+3	; 0x03
    1422:	8a 81       	ldd	r24, Y+2	; 0x02
    1424:	b4 df       	rcall	.-152    	; 0x138e <lcd_cursor>
    1426:	8e 81       	ldd	r24, Y+6	; 0x06
    1428:	9f 81       	ldd	r25, Y+7	; 0x07
    142a:	05 97       	sbiw	r24, 0x05	; 5
    142c:	19 f0       	breq	.+6      	; 0x1434 <lcd_print+0x46>
    142e:	89 81       	ldd	r24, Y+1	; 0x01
    1430:	81 30       	cpi	r24, 0x01	; 1
    1432:	f9 f4       	brne	.+62     	; 0x1472 <lcd_print+0x84>
    1434:	8c 81       	ldd	r24, Y+4	; 0x04
    1436:	9d 81       	ldd	r25, Y+5	; 0x05
    1438:	92 95       	swap	r25
    143a:	82 95       	swap	r24
    143c:	8f 70       	andi	r24, 0x0F	; 15
    143e:	89 27       	eor	r24, r25
    1440:	9f 70       	andi	r25, 0x0F	; 15
    1442:	89 27       	eor	r24, r25
    1444:	9c 01       	movw	r18, r24
    1446:	a7 e4       	ldi	r26, 0x47	; 71
    1448:	b3 e0       	ldi	r27, 0x03	; 3
    144a:	0e 94 c1 4f 	call	0x9f82	; 0x9f82 <__umulhisi3>
    144e:	96 95       	lsr	r25
    1450:	87 95       	ror	r24
    1452:	96 95       	lsr	r25
    1454:	87 95       	ror	r24
    1456:	96 95       	lsr	r25
    1458:	87 95       	ror	r24
    145a:	c0 96       	adiw	r24, 0x30	; 48
    145c:	90 93 37 02 	sts	0x0237, r25	; 0x800237 <million+0x1>
    1460:	80 93 36 02 	sts	0x0236, r24	; 0x800236 <million>
    1464:	80 91 36 02 	lds	r24, 0x0236	; 0x800236 <million>
    1468:	90 91 37 02 	lds	r25, 0x0237	; 0x800237 <million+0x1>
    146c:	09 de       	rcall	.-1006   	; 0x1080 <lcd_wr_char>
    146e:	81 e0       	ldi	r24, 0x01	; 1
    1470:	89 83       	std	Y+1, r24	; 0x01
    1472:	8e 81       	ldd	r24, Y+6	; 0x06
    1474:	9f 81       	ldd	r25, Y+7	; 0x07
    1476:	04 97       	sbiw	r24, 0x04	; 4
    1478:	21 f0       	breq	.+8      	; 0x1482 <lcd_print+0x94>
    147a:	89 81       	ldd	r24, Y+1	; 0x01
    147c:	81 30       	cpi	r24, 0x01	; 1
    147e:	09 f0       	breq	.+2      	; 0x1482 <lcd_print+0x94>
    1480:	3f c0       	rjmp	.+126    	; 0x1500 <lcd_print+0x112>
    1482:	8c 81       	ldd	r24, Y+4	; 0x04
    1484:	9d 81       	ldd	r25, Y+5	; 0x05
    1486:	96 95       	lsr	r25
    1488:	87 95       	ror	r24
    148a:	96 95       	lsr	r25
    148c:	87 95       	ror	r24
    148e:	96 95       	lsr	r25
    1490:	87 95       	ror	r24
    1492:	9c 01       	movw	r18, r24
    1494:	a5 ec       	ldi	r26, 0xC5	; 197
    1496:	b0 e2       	ldi	r27, 0x20	; 32
    1498:	0e 94 c1 4f 	call	0x9f82	; 0x9f82 <__umulhisi3>
    149c:	92 95       	swap	r25
    149e:	82 95       	swap	r24
    14a0:	8f 70       	andi	r24, 0x0F	; 15
    14a2:	89 27       	eor	r24, r25
    14a4:	9f 70       	andi	r25, 0x0F	; 15
    14a6:	89 27       	eor	r24, r25
    14a8:	90 93 39 02 	sts	0x0239, r25	; 0x800239 <temp+0x1>
    14ac:	80 93 38 02 	sts	0x0238, r24	; 0x800238 <temp>
    14b0:	40 91 38 02 	lds	r20, 0x0238	; 0x800238 <temp>
    14b4:	50 91 39 02 	lds	r21, 0x0239	; 0x800239 <temp+0x1>
    14b8:	9a 01       	movw	r18, r20
    14ba:	ad ec       	ldi	r26, 0xCD	; 205
    14bc:	bc ec       	ldi	r27, 0xCC	; 204
    14be:	0e 94 c1 4f 	call	0x9f82	; 0x9f82 <__umulhisi3>
    14c2:	96 95       	lsr	r25
    14c4:	87 95       	ror	r24
    14c6:	96 95       	lsr	r25
    14c8:	87 95       	ror	r24
    14ca:	96 95       	lsr	r25
    14cc:	87 95       	ror	r24
    14ce:	88 0f       	add	r24, r24
    14d0:	99 1f       	adc	r25, r25
    14d2:	9c 01       	movw	r18, r24
    14d4:	22 0f       	add	r18, r18
    14d6:	33 1f       	adc	r19, r19
    14d8:	22 0f       	add	r18, r18
    14da:	33 1f       	adc	r19, r19
    14dc:	82 0f       	add	r24, r18
    14de:	93 1f       	adc	r25, r19
    14e0:	9a 01       	movw	r18, r20
    14e2:	28 1b       	sub	r18, r24
    14e4:	39 0b       	sbc	r19, r25
    14e6:	c9 01       	movw	r24, r18
    14e8:	c0 96       	adiw	r24, 0x30	; 48
    14ea:	90 93 44 02 	sts	0x0244, r25	; 0x800244 <thousand+0x1>
    14ee:	80 93 43 02 	sts	0x0243, r24	; 0x800243 <thousand>
    14f2:	80 91 43 02 	lds	r24, 0x0243	; 0x800243 <thousand>
    14f6:	90 91 44 02 	lds	r25, 0x0244	; 0x800244 <thousand+0x1>
    14fa:	c2 dd       	rcall	.-1148   	; 0x1080 <lcd_wr_char>
    14fc:	81 e0       	ldi	r24, 0x01	; 1
    14fe:	89 83       	std	Y+1, r24	; 0x01
    1500:	8e 81       	ldd	r24, Y+6	; 0x06
    1502:	9f 81       	ldd	r25, Y+7	; 0x07
    1504:	03 97       	sbiw	r24, 0x03	; 3
    1506:	19 f0       	breq	.+6      	; 0x150e <lcd_print+0x120>
    1508:	89 81       	ldd	r24, Y+1	; 0x01
    150a:	81 30       	cpi	r24, 0x01	; 1
    150c:	c9 f5       	brne	.+114    	; 0x1580 <lcd_print+0x192>
    150e:	8c 81       	ldd	r24, Y+4	; 0x04
    1510:	9d 81       	ldd	r25, Y+5	; 0x05
    1512:	96 95       	lsr	r25
    1514:	87 95       	ror	r24
    1516:	96 95       	lsr	r25
    1518:	87 95       	ror	r24
    151a:	9c 01       	movw	r18, r24
    151c:	ab e7       	ldi	r26, 0x7B	; 123
    151e:	b4 e1       	ldi	r27, 0x14	; 20
    1520:	0e 94 c1 4f 	call	0x9f82	; 0x9f82 <__umulhisi3>
    1524:	96 95       	lsr	r25
    1526:	87 95       	ror	r24
    1528:	90 93 39 02 	sts	0x0239, r25	; 0x800239 <temp+0x1>
    152c:	80 93 38 02 	sts	0x0238, r24	; 0x800238 <temp>
    1530:	40 91 38 02 	lds	r20, 0x0238	; 0x800238 <temp>
    1534:	50 91 39 02 	lds	r21, 0x0239	; 0x800239 <temp+0x1>
    1538:	9a 01       	movw	r18, r20
    153a:	ad ec       	ldi	r26, 0xCD	; 205
    153c:	bc ec       	ldi	r27, 0xCC	; 204
    153e:	0e 94 c1 4f 	call	0x9f82	; 0x9f82 <__umulhisi3>
    1542:	96 95       	lsr	r25
    1544:	87 95       	ror	r24
    1546:	96 95       	lsr	r25
    1548:	87 95       	ror	r24
    154a:	96 95       	lsr	r25
    154c:	87 95       	ror	r24
    154e:	88 0f       	add	r24, r24
    1550:	99 1f       	adc	r25, r25
    1552:	9c 01       	movw	r18, r24
    1554:	22 0f       	add	r18, r18
    1556:	33 1f       	adc	r19, r19
    1558:	22 0f       	add	r18, r18
    155a:	33 1f       	adc	r19, r19
    155c:	82 0f       	add	r24, r18
    155e:	93 1f       	adc	r25, r19
    1560:	9a 01       	movw	r18, r20
    1562:	28 1b       	sub	r18, r24
    1564:	39 0b       	sbc	r19, r25
    1566:	c9 01       	movw	r24, r18
    1568:	c0 96       	adiw	r24, 0x30	; 48
    156a:	90 93 40 02 	sts	0x0240, r25	; 0x800240 <hundred+0x1>
    156e:	80 93 3f 02 	sts	0x023F, r24	; 0x80023f <hundred>
    1572:	80 91 3f 02 	lds	r24, 0x023F	; 0x80023f <hundred>
    1576:	90 91 40 02 	lds	r25, 0x0240	; 0x800240 <hundred+0x1>
    157a:	82 dd       	rcall	.-1276   	; 0x1080 <lcd_wr_char>
    157c:	81 e0       	ldi	r24, 0x01	; 1
    157e:	89 83       	std	Y+1, r24	; 0x01
    1580:	8e 81       	ldd	r24, Y+6	; 0x06
    1582:	9f 81       	ldd	r25, Y+7	; 0x07
    1584:	02 97       	sbiw	r24, 0x02	; 2
    1586:	19 f0       	breq	.+6      	; 0x158e <lcd_print+0x1a0>
    1588:	89 81       	ldd	r24, Y+1	; 0x01
    158a:	81 30       	cpi	r24, 0x01	; 1
    158c:	c9 f5       	brne	.+114    	; 0x1600 <lcd_print+0x212>
    158e:	8c 81       	ldd	r24, Y+4	; 0x04
    1590:	9d 81       	ldd	r25, Y+5	; 0x05
    1592:	9c 01       	movw	r18, r24
    1594:	ad ec       	ldi	r26, 0xCD	; 205
    1596:	bc ec       	ldi	r27, 0xCC	; 204
    1598:	0e 94 c1 4f 	call	0x9f82	; 0x9f82 <__umulhisi3>
    159c:	96 95       	lsr	r25
    159e:	87 95       	ror	r24
    15a0:	96 95       	lsr	r25
    15a2:	87 95       	ror	r24
    15a4:	96 95       	lsr	r25
    15a6:	87 95       	ror	r24
    15a8:	90 93 39 02 	sts	0x0239, r25	; 0x800239 <temp+0x1>
    15ac:	80 93 38 02 	sts	0x0238, r24	; 0x800238 <temp>
    15b0:	40 91 38 02 	lds	r20, 0x0238	; 0x800238 <temp>
    15b4:	50 91 39 02 	lds	r21, 0x0239	; 0x800239 <temp+0x1>
    15b8:	9a 01       	movw	r18, r20
    15ba:	ad ec       	ldi	r26, 0xCD	; 205
    15bc:	bc ec       	ldi	r27, 0xCC	; 204
    15be:	0e 94 c1 4f 	call	0x9f82	; 0x9f82 <__umulhisi3>
    15c2:	96 95       	lsr	r25
    15c4:	87 95       	ror	r24
    15c6:	96 95       	lsr	r25
    15c8:	87 95       	ror	r24
    15ca:	96 95       	lsr	r25
    15cc:	87 95       	ror	r24
    15ce:	88 0f       	add	r24, r24
    15d0:	99 1f       	adc	r25, r25
    15d2:	9c 01       	movw	r18, r24
    15d4:	22 0f       	add	r18, r18
    15d6:	33 1f       	adc	r19, r19
    15d8:	22 0f       	add	r18, r18
    15da:	33 1f       	adc	r19, r19
    15dc:	82 0f       	add	r24, r18
    15de:	93 1f       	adc	r25, r19
    15e0:	9a 01       	movw	r18, r20
    15e2:	28 1b       	sub	r18, r24
    15e4:	39 0b       	sbc	r19, r25
    15e6:	c9 01       	movw	r24, r18
    15e8:	c0 96       	adiw	r24, 0x30	; 48
    15ea:	90 93 3e 02 	sts	0x023E, r25	; 0x80023e <tens+0x1>
    15ee:	80 93 3d 02 	sts	0x023D, r24	; 0x80023d <tens>
    15f2:	80 91 3d 02 	lds	r24, 0x023D	; 0x80023d <tens>
    15f6:	90 91 3e 02 	lds	r25, 0x023E	; 0x80023e <tens+0x1>
    15fa:	42 dd       	rcall	.-1404   	; 0x1080 <lcd_wr_char>
    15fc:	81 e0       	ldi	r24, 0x01	; 1
    15fe:	89 83       	std	Y+1, r24	; 0x01
    1600:	8e 81       	ldd	r24, Y+6	; 0x06
    1602:	9f 81       	ldd	r25, Y+7	; 0x07
    1604:	01 97       	sbiw	r24, 0x01	; 1
    1606:	19 f0       	breq	.+6      	; 0x160e <lcd_print+0x220>
    1608:	89 81       	ldd	r24, Y+1	; 0x01
    160a:	81 30       	cpi	r24, 0x01	; 1
    160c:	21 f5       	brne	.+72     	; 0x1656 <lcd_print+0x268>
    160e:	4c 81       	ldd	r20, Y+4	; 0x04
    1610:	5d 81       	ldd	r21, Y+5	; 0x05
    1612:	9a 01       	movw	r18, r20
    1614:	ad ec       	ldi	r26, 0xCD	; 205
    1616:	bc ec       	ldi	r27, 0xCC	; 204
    1618:	0e 94 c1 4f 	call	0x9f82	; 0x9f82 <__umulhisi3>
    161c:	96 95       	lsr	r25
    161e:	87 95       	ror	r24
    1620:	96 95       	lsr	r25
    1622:	87 95       	ror	r24
    1624:	96 95       	lsr	r25
    1626:	87 95       	ror	r24
    1628:	88 0f       	add	r24, r24
    162a:	99 1f       	adc	r25, r25
    162c:	9c 01       	movw	r18, r24
    162e:	22 0f       	add	r18, r18
    1630:	33 1f       	adc	r19, r19
    1632:	22 0f       	add	r18, r18
    1634:	33 1f       	adc	r19, r19
    1636:	82 0f       	add	r24, r18
    1638:	93 1f       	adc	r25, r19
    163a:	9a 01       	movw	r18, r20
    163c:	28 1b       	sub	r18, r24
    163e:	39 0b       	sbc	r19, r25
    1640:	c9 01       	movw	r24, r18
    1642:	c0 96       	adiw	r24, 0x30	; 48
    1644:	90 93 42 02 	sts	0x0242, r25	; 0x800242 <unit+0x1>
    1648:	80 93 41 02 	sts	0x0241, r24	; 0x800241 <unit>
    164c:	80 91 41 02 	lds	r24, 0x0241	; 0x800241 <unit>
    1650:	90 91 42 02 	lds	r25, 0x0242	; 0x800242 <unit+0x1>
    1654:	15 dd       	rcall	.-1494   	; 0x1080 <lcd_wr_char>
    1656:	8e 81       	ldd	r24, Y+6	; 0x06
    1658:	9f 81       	ldd	r25, Y+7	; 0x07
    165a:	06 97       	sbiw	r24, 0x06	; 6
    165c:	14 f0       	brlt	.+4      	; 0x1662 <lcd_print+0x274>
    165e:	85 e4       	ldi	r24, 0x45	; 69
    1660:	0f dd       	rcall	.-1506   	; 0x1080 <lcd_wr_char>
    1662:	00 00       	nop
    1664:	27 96       	adiw	r28, 0x07	; 7
    1666:	0f b6       	in	r0, 0x3f	; 63
    1668:	f8 94       	cli
    166a:	de bf       	out	0x3e, r29	; 62
    166c:	0f be       	out	0x3f, r0	; 63
    166e:	cd bf       	out	0x3d, r28	; 61
    1670:	df 91       	pop	r29
    1672:	cf 91       	pop	r28
    1674:	08 95       	ret

00001676 <lcd_string_rob>:
    1676:	cf 93       	push	r28
    1678:	df 93       	push	r29
    167a:	00 d0       	rcall	.+0      	; 0x167c <lcd_string_rob+0x6>
    167c:	1f 92       	push	r1
    167e:	cd b7       	in	r28, 0x3d	; 61
    1680:	de b7       	in	r29, 0x3e	; 62
    1682:	89 83       	std	Y+1, r24	; 0x01
    1684:	6a 83       	std	Y+2, r22	; 0x02
    1686:	5c 83       	std	Y+4, r21	; 0x04
    1688:	4b 83       	std	Y+3, r20	; 0x03
    168a:	16 c0       	rjmp	.+44     	; 0x16b8 <lcd_string_rob+0x42>
    168c:	8b 81       	ldd	r24, Y+3	; 0x03
    168e:	9c 81       	ldd	r25, Y+4	; 0x04
    1690:	fc 01       	movw	r30, r24
    1692:	80 81       	ld	r24, Z
    1694:	48 2f       	mov	r20, r24
    1696:	50 e0       	ldi	r21, 0x00	; 0
    1698:	8a 81       	ldd	r24, Y+2	; 0x02
    169a:	28 2f       	mov	r18, r24
    169c:	30 e0       	ldi	r19, 0x00	; 0
    169e:	89 81       	ldd	r24, Y+1	; 0x01
    16a0:	88 2f       	mov	r24, r24
    16a2:	90 e0       	ldi	r25, 0x00	; 0
    16a4:	b9 01       	movw	r22, r18
    16a6:	16 d0       	rcall	.+44     	; 0x16d4 <lcd_wr_char_rob>
    16a8:	8b 81       	ldd	r24, Y+3	; 0x03
    16aa:	9c 81       	ldd	r25, Y+4	; 0x04
    16ac:	01 96       	adiw	r24, 0x01	; 1
    16ae:	9c 83       	std	Y+4, r25	; 0x04
    16b0:	8b 83       	std	Y+3, r24	; 0x03
    16b2:	8a 81       	ldd	r24, Y+2	; 0x02
    16b4:	8f 5f       	subi	r24, 0xFF	; 255
    16b6:	8a 83       	std	Y+2, r24	; 0x02
    16b8:	8b 81       	ldd	r24, Y+3	; 0x03
    16ba:	9c 81       	ldd	r25, Y+4	; 0x04
    16bc:	fc 01       	movw	r30, r24
    16be:	80 81       	ld	r24, Z
    16c0:	88 23       	and	r24, r24
    16c2:	21 f7       	brne	.-56     	; 0x168c <lcd_string_rob+0x16>
    16c4:	00 00       	nop
    16c6:	0f 90       	pop	r0
    16c8:	0f 90       	pop	r0
    16ca:	0f 90       	pop	r0
    16cc:	0f 90       	pop	r0
    16ce:	df 91       	pop	r29
    16d0:	cf 91       	pop	r28
    16d2:	08 95       	ret

000016d4 <lcd_wr_char_rob>:
    16d4:	cf 93       	push	r28
    16d6:	df 93       	push	r29
    16d8:	cd b7       	in	r28, 0x3d	; 61
    16da:	de b7       	in	r29, 0x3e	; 62
    16dc:	a0 97       	sbiw	r28, 0x20	; 32
    16de:	0f b6       	in	r0, 0x3f	; 63
    16e0:	f8 94       	cli
    16e2:	de bf       	out	0x3e, r29	; 62
    16e4:	0f be       	out	0x3f, r0	; 63
    16e6:	cd bf       	out	0x3d, r28	; 61
    16e8:	8e 8f       	std	Y+30, r24	; 0x1e
    16ea:	6f 8f       	std	Y+31, r22	; 0x1f
    16ec:	48 a3       	std	Y+32, r20	; 0x20
    16ee:	6f 8d       	ldd	r22, Y+31	; 0x1f
    16f0:	8e 8d       	ldd	r24, Y+30	; 0x1e
    16f2:	4d de       	rcall	.-870    	; 0x138e <lcd_cursor>
    16f4:	88 a1       	ldd	r24, Y+32	; 0x20
    16f6:	89 83       	std	Y+1, r24	; 0x01
    16f8:	89 81       	ldd	r24, Y+1	; 0x01
    16fa:	80 7f       	andi	r24, 0xF0	; 240
    16fc:	89 83       	std	Y+1, r24	; 0x01
    16fe:	88 e2       	ldi	r24, 0x28	; 40
    1700:	90 e0       	ldi	r25, 0x00	; 0
    1702:	28 e2       	ldi	r18, 0x28	; 40
    1704:	30 e0       	ldi	r19, 0x00	; 0
    1706:	f9 01       	movw	r30, r18
    1708:	20 81       	ld	r18, Z
    170a:	2f 70       	andi	r18, 0x0F	; 15
    170c:	fc 01       	movw	r30, r24
    170e:	20 83       	st	Z, r18
    1710:	88 e2       	ldi	r24, 0x28	; 40
    1712:	90 e0       	ldi	r25, 0x00	; 0
    1714:	28 e2       	ldi	r18, 0x28	; 40
    1716:	30 e0       	ldi	r19, 0x00	; 0
    1718:	f9 01       	movw	r30, r18
    171a:	30 81       	ld	r19, Z
    171c:	29 81       	ldd	r18, Y+1	; 0x01
    171e:	23 2b       	or	r18, r19
    1720:	fc 01       	movw	r30, r24
    1722:	20 83       	st	Z, r18
    1724:	88 e2       	ldi	r24, 0x28	; 40
    1726:	90 e0       	ldi	r25, 0x00	; 0
    1728:	28 e2       	ldi	r18, 0x28	; 40
    172a:	30 e0       	ldi	r19, 0x00	; 0
    172c:	f9 01       	movw	r30, r18
    172e:	20 81       	ld	r18, Z
    1730:	21 60       	ori	r18, 0x01	; 1
    1732:	fc 01       	movw	r30, r24
    1734:	20 83       	st	Z, r18
    1736:	88 e2       	ldi	r24, 0x28	; 40
    1738:	90 e0       	ldi	r25, 0x00	; 0
    173a:	28 e2       	ldi	r18, 0x28	; 40
    173c:	30 e0       	ldi	r19, 0x00	; 0
    173e:	f9 01       	movw	r30, r18
    1740:	20 81       	ld	r18, Z
    1742:	2d 7f       	andi	r18, 0xFD	; 253
    1744:	fc 01       	movw	r30, r24
    1746:	20 83       	st	Z, r18
    1748:	88 e2       	ldi	r24, 0x28	; 40
    174a:	90 e0       	ldi	r25, 0x00	; 0
    174c:	28 e2       	ldi	r18, 0x28	; 40
    174e:	30 e0       	ldi	r19, 0x00	; 0
    1750:	f9 01       	movw	r30, r18
    1752:	20 81       	ld	r18, Z
    1754:	24 60       	ori	r18, 0x04	; 4
    1756:	fc 01       	movw	r30, r24
    1758:	20 83       	st	Z, r18
    175a:	80 e0       	ldi	r24, 0x00	; 0
    175c:	90 e0       	ldi	r25, 0x00	; 0
    175e:	a0 ea       	ldi	r26, 0xA0	; 160
    1760:	b0 e4       	ldi	r27, 0x40	; 64
    1762:	8a 83       	std	Y+2, r24	; 0x02
    1764:	9b 83       	std	Y+3, r25	; 0x03
    1766:	ac 83       	std	Y+4, r26	; 0x04
    1768:	bd 83       	std	Y+5, r27	; 0x05
    176a:	26 e6       	ldi	r18, 0x66	; 102
    176c:	36 e6       	ldi	r19, 0x66	; 102
    176e:	46 e6       	ldi	r20, 0x66	; 102
    1770:	55 e4       	ldi	r21, 0x45	; 69
    1772:	6a 81       	ldd	r22, Y+2	; 0x02
    1774:	7b 81       	ldd	r23, Y+3	; 0x03
    1776:	8c 81       	ldd	r24, Y+4	; 0x04
    1778:	9d 81       	ldd	r25, Y+5	; 0x05
    177a:	0e 94 65 50 	call	0xa0ca	; 0xa0ca <__mulsf3>
    177e:	dc 01       	movw	r26, r24
    1780:	cb 01       	movw	r24, r22
    1782:	8c 8b       	std	Y+20, r24	; 0x14
    1784:	9d 8b       	std	Y+21, r25	; 0x15
    1786:	ae 8b       	std	Y+22, r26	; 0x16
    1788:	bf 8b       	std	Y+23, r27	; 0x17
    178a:	20 e0       	ldi	r18, 0x00	; 0
    178c:	30 e0       	ldi	r19, 0x00	; 0
    178e:	40 e8       	ldi	r20, 0x80	; 128
    1790:	5f e3       	ldi	r21, 0x3F	; 63
    1792:	6c 89       	ldd	r22, Y+20	; 0x14
    1794:	7d 89       	ldd	r23, Y+21	; 0x15
    1796:	8e 89       	ldd	r24, Y+22	; 0x16
    1798:	9f 89       	ldd	r25, Y+23	; 0x17
    179a:	0e 94 e4 4f 	call	0x9fc8	; 0x9fc8 <__cmpsf2>
    179e:	88 23       	and	r24, r24
    17a0:	2c f4       	brge	.+10     	; 0x17ac <lcd_wr_char_rob+0xd8>
    17a2:	81 e0       	ldi	r24, 0x01	; 1
    17a4:	90 e0       	ldi	r25, 0x00	; 0
    17a6:	99 8f       	std	Y+25, r25	; 0x19
    17a8:	88 8f       	std	Y+24, r24	; 0x18
    17aa:	3f c0       	rjmp	.+126    	; 0x182a <lcd_wr_char_rob+0x156>
    17ac:	20 e0       	ldi	r18, 0x00	; 0
    17ae:	3f ef       	ldi	r19, 0xFF	; 255
    17b0:	4f e7       	ldi	r20, 0x7F	; 127
    17b2:	57 e4       	ldi	r21, 0x47	; 71
    17b4:	6c 89       	ldd	r22, Y+20	; 0x14
    17b6:	7d 89       	ldd	r23, Y+21	; 0x15
    17b8:	8e 89       	ldd	r24, Y+22	; 0x16
    17ba:	9f 89       	ldd	r25, Y+23	; 0x17
    17bc:	0e 94 61 50 	call	0xa0c2	; 0xa0c2 <__gesf2>
    17c0:	18 16       	cp	r1, r24
    17c2:	4c f5       	brge	.+82     	; 0x1816 <lcd_wr_char_rob+0x142>
    17c4:	20 e0       	ldi	r18, 0x00	; 0
    17c6:	30 e0       	ldi	r19, 0x00	; 0
    17c8:	40 e2       	ldi	r20, 0x20	; 32
    17ca:	51 e4       	ldi	r21, 0x41	; 65
    17cc:	6a 81       	ldd	r22, Y+2	; 0x02
    17ce:	7b 81       	ldd	r23, Y+3	; 0x03
    17d0:	8c 81       	ldd	r24, Y+4	; 0x04
    17d2:	9d 81       	ldd	r25, Y+5	; 0x05
    17d4:	0e 94 65 50 	call	0xa0ca	; 0xa0ca <__mulsf3>
    17d8:	dc 01       	movw	r26, r24
    17da:	cb 01       	movw	r24, r22
    17dc:	bc 01       	movw	r22, r24
    17de:	cd 01       	movw	r24, r26
    17e0:	0e 94 e8 4f 	call	0x9fd0	; 0x9fd0 <__fixunssfsi>
    17e4:	dc 01       	movw	r26, r24
    17e6:	cb 01       	movw	r24, r22
    17e8:	99 8f       	std	Y+25, r25	; 0x19
    17ea:	88 8f       	std	Y+24, r24	; 0x18
    17ec:	0f c0       	rjmp	.+30     	; 0x180c <lcd_wr_char_rob+0x138>
    17ee:	80 e7       	ldi	r24, 0x70	; 112
    17f0:	91 e0       	ldi	r25, 0x01	; 1
    17f2:	9b 8f       	std	Y+27, r25	; 0x1b
    17f4:	8a 8f       	std	Y+26, r24	; 0x1a
    17f6:	8a 8d       	ldd	r24, Y+26	; 0x1a
    17f8:	9b 8d       	ldd	r25, Y+27	; 0x1b
    17fa:	01 97       	sbiw	r24, 0x01	; 1
    17fc:	f1 f7       	brne	.-4      	; 0x17fa <lcd_wr_char_rob+0x126>
    17fe:	9b 8f       	std	Y+27, r25	; 0x1b
    1800:	8a 8f       	std	Y+26, r24	; 0x1a
    1802:	88 8d       	ldd	r24, Y+24	; 0x18
    1804:	99 8d       	ldd	r25, Y+25	; 0x19
    1806:	01 97       	sbiw	r24, 0x01	; 1
    1808:	99 8f       	std	Y+25, r25	; 0x19
    180a:	88 8f       	std	Y+24, r24	; 0x18
    180c:	88 8d       	ldd	r24, Y+24	; 0x18
    180e:	99 8d       	ldd	r25, Y+25	; 0x19
    1810:	89 2b       	or	r24, r25
    1812:	69 f7       	brne	.-38     	; 0x17ee <lcd_wr_char_rob+0x11a>
    1814:	14 c0       	rjmp	.+40     	; 0x183e <lcd_wr_char_rob+0x16a>
    1816:	6c 89       	ldd	r22, Y+20	; 0x14
    1818:	7d 89       	ldd	r23, Y+21	; 0x15
    181a:	8e 89       	ldd	r24, Y+22	; 0x16
    181c:	9f 89       	ldd	r25, Y+23	; 0x17
    181e:	0e 94 e8 4f 	call	0x9fd0	; 0x9fd0 <__fixunssfsi>
    1822:	dc 01       	movw	r26, r24
    1824:	cb 01       	movw	r24, r22
    1826:	99 8f       	std	Y+25, r25	; 0x19
    1828:	88 8f       	std	Y+24, r24	; 0x18
    182a:	88 8d       	ldd	r24, Y+24	; 0x18
    182c:	99 8d       	ldd	r25, Y+25	; 0x19
    182e:	9d 8f       	std	Y+29, r25	; 0x1d
    1830:	8c 8f       	std	Y+28, r24	; 0x1c
    1832:	8c 8d       	ldd	r24, Y+28	; 0x1c
    1834:	9d 8d       	ldd	r25, Y+29	; 0x1d
    1836:	01 97       	sbiw	r24, 0x01	; 1
    1838:	f1 f7       	brne	.-4      	; 0x1836 <lcd_wr_char_rob+0x162>
    183a:	9d 8f       	std	Y+29, r25	; 0x1d
    183c:	8c 8f       	std	Y+28, r24	; 0x1c
    183e:	88 e2       	ldi	r24, 0x28	; 40
    1840:	90 e0       	ldi	r25, 0x00	; 0
    1842:	28 e2       	ldi	r18, 0x28	; 40
    1844:	30 e0       	ldi	r19, 0x00	; 0
    1846:	f9 01       	movw	r30, r18
    1848:	20 81       	ld	r18, Z
    184a:	2b 7f       	andi	r18, 0xFB	; 251
    184c:	fc 01       	movw	r30, r24
    184e:	20 83       	st	Z, r18
    1850:	88 a1       	ldd	r24, Y+32	; 0x20
    1852:	8f 70       	andi	r24, 0x0F	; 15
    1854:	88 a3       	std	Y+32, r24	; 0x20
    1856:	88 a1       	ldd	r24, Y+32	; 0x20
    1858:	82 95       	swap	r24
    185a:	80 7f       	andi	r24, 0xF0	; 240
    185c:	88 a3       	std	Y+32, r24	; 0x20
    185e:	88 e2       	ldi	r24, 0x28	; 40
    1860:	90 e0       	ldi	r25, 0x00	; 0
    1862:	28 e2       	ldi	r18, 0x28	; 40
    1864:	30 e0       	ldi	r19, 0x00	; 0
    1866:	f9 01       	movw	r30, r18
    1868:	20 81       	ld	r18, Z
    186a:	2f 70       	andi	r18, 0x0F	; 15
    186c:	fc 01       	movw	r30, r24
    186e:	20 83       	st	Z, r18
    1870:	88 e2       	ldi	r24, 0x28	; 40
    1872:	90 e0       	ldi	r25, 0x00	; 0
    1874:	28 e2       	ldi	r18, 0x28	; 40
    1876:	30 e0       	ldi	r19, 0x00	; 0
    1878:	f9 01       	movw	r30, r18
    187a:	30 81       	ld	r19, Z
    187c:	28 a1       	ldd	r18, Y+32	; 0x20
    187e:	23 2b       	or	r18, r19
    1880:	fc 01       	movw	r30, r24
    1882:	20 83       	st	Z, r18
    1884:	88 e2       	ldi	r24, 0x28	; 40
    1886:	90 e0       	ldi	r25, 0x00	; 0
    1888:	28 e2       	ldi	r18, 0x28	; 40
    188a:	30 e0       	ldi	r19, 0x00	; 0
    188c:	f9 01       	movw	r30, r18
    188e:	20 81       	ld	r18, Z
    1890:	21 60       	ori	r18, 0x01	; 1
    1892:	fc 01       	movw	r30, r24
    1894:	20 83       	st	Z, r18
    1896:	88 e2       	ldi	r24, 0x28	; 40
    1898:	90 e0       	ldi	r25, 0x00	; 0
    189a:	28 e2       	ldi	r18, 0x28	; 40
    189c:	30 e0       	ldi	r19, 0x00	; 0
    189e:	f9 01       	movw	r30, r18
    18a0:	20 81       	ld	r18, Z
    18a2:	2d 7f       	andi	r18, 0xFD	; 253
    18a4:	fc 01       	movw	r30, r24
    18a6:	20 83       	st	Z, r18
    18a8:	88 e2       	ldi	r24, 0x28	; 40
    18aa:	90 e0       	ldi	r25, 0x00	; 0
    18ac:	28 e2       	ldi	r18, 0x28	; 40
    18ae:	30 e0       	ldi	r19, 0x00	; 0
    18b0:	f9 01       	movw	r30, r18
    18b2:	20 81       	ld	r18, Z
    18b4:	24 60       	ori	r18, 0x04	; 4
    18b6:	fc 01       	movw	r30, r24
    18b8:	20 83       	st	Z, r18
    18ba:	80 e0       	ldi	r24, 0x00	; 0
    18bc:	90 e0       	ldi	r25, 0x00	; 0
    18be:	a0 ea       	ldi	r26, 0xA0	; 160
    18c0:	b0 e4       	ldi	r27, 0x40	; 64
    18c2:	8e 83       	std	Y+6, r24	; 0x06
    18c4:	9f 83       	std	Y+7, r25	; 0x07
    18c6:	a8 87       	std	Y+8, r26	; 0x08
    18c8:	b9 87       	std	Y+9, r27	; 0x09
    18ca:	26 e6       	ldi	r18, 0x66	; 102
    18cc:	36 e6       	ldi	r19, 0x66	; 102
    18ce:	46 e6       	ldi	r20, 0x66	; 102
    18d0:	55 e4       	ldi	r21, 0x45	; 69
    18d2:	6e 81       	ldd	r22, Y+6	; 0x06
    18d4:	7f 81       	ldd	r23, Y+7	; 0x07
    18d6:	88 85       	ldd	r24, Y+8	; 0x08
    18d8:	99 85       	ldd	r25, Y+9	; 0x09
    18da:	0e 94 65 50 	call	0xa0ca	; 0xa0ca <__mulsf3>
    18de:	dc 01       	movw	r26, r24
    18e0:	cb 01       	movw	r24, r22
    18e2:	8a 87       	std	Y+10, r24	; 0x0a
    18e4:	9b 87       	std	Y+11, r25	; 0x0b
    18e6:	ac 87       	std	Y+12, r26	; 0x0c
    18e8:	bd 87       	std	Y+13, r27	; 0x0d
    18ea:	20 e0       	ldi	r18, 0x00	; 0
    18ec:	30 e0       	ldi	r19, 0x00	; 0
    18ee:	40 e8       	ldi	r20, 0x80	; 128
    18f0:	5f e3       	ldi	r21, 0x3F	; 63
    18f2:	6a 85       	ldd	r22, Y+10	; 0x0a
    18f4:	7b 85       	ldd	r23, Y+11	; 0x0b
    18f6:	8c 85       	ldd	r24, Y+12	; 0x0c
    18f8:	9d 85       	ldd	r25, Y+13	; 0x0d
    18fa:	0e 94 e4 4f 	call	0x9fc8	; 0x9fc8 <__cmpsf2>
    18fe:	88 23       	and	r24, r24
    1900:	2c f4       	brge	.+10     	; 0x190c <lcd_wr_char_rob+0x238>
    1902:	81 e0       	ldi	r24, 0x01	; 1
    1904:	90 e0       	ldi	r25, 0x00	; 0
    1906:	9f 87       	std	Y+15, r25	; 0x0f
    1908:	8e 87       	std	Y+14, r24	; 0x0e
    190a:	3f c0       	rjmp	.+126    	; 0x198a <lcd_wr_char_rob+0x2b6>
    190c:	20 e0       	ldi	r18, 0x00	; 0
    190e:	3f ef       	ldi	r19, 0xFF	; 255
    1910:	4f e7       	ldi	r20, 0x7F	; 127
    1912:	57 e4       	ldi	r21, 0x47	; 71
    1914:	6a 85       	ldd	r22, Y+10	; 0x0a
    1916:	7b 85       	ldd	r23, Y+11	; 0x0b
    1918:	8c 85       	ldd	r24, Y+12	; 0x0c
    191a:	9d 85       	ldd	r25, Y+13	; 0x0d
    191c:	0e 94 61 50 	call	0xa0c2	; 0xa0c2 <__gesf2>
    1920:	18 16       	cp	r1, r24
    1922:	4c f5       	brge	.+82     	; 0x1976 <lcd_wr_char_rob+0x2a2>
    1924:	20 e0       	ldi	r18, 0x00	; 0
    1926:	30 e0       	ldi	r19, 0x00	; 0
    1928:	40 e2       	ldi	r20, 0x20	; 32
    192a:	51 e4       	ldi	r21, 0x41	; 65
    192c:	6e 81       	ldd	r22, Y+6	; 0x06
    192e:	7f 81       	ldd	r23, Y+7	; 0x07
    1930:	88 85       	ldd	r24, Y+8	; 0x08
    1932:	99 85       	ldd	r25, Y+9	; 0x09
    1934:	0e 94 65 50 	call	0xa0ca	; 0xa0ca <__mulsf3>
    1938:	dc 01       	movw	r26, r24
    193a:	cb 01       	movw	r24, r22
    193c:	bc 01       	movw	r22, r24
    193e:	cd 01       	movw	r24, r26
    1940:	0e 94 e8 4f 	call	0x9fd0	; 0x9fd0 <__fixunssfsi>
    1944:	dc 01       	movw	r26, r24
    1946:	cb 01       	movw	r24, r22
    1948:	9f 87       	std	Y+15, r25	; 0x0f
    194a:	8e 87       	std	Y+14, r24	; 0x0e
    194c:	0f c0       	rjmp	.+30     	; 0x196c <lcd_wr_char_rob+0x298>
    194e:	80 e7       	ldi	r24, 0x70	; 112
    1950:	91 e0       	ldi	r25, 0x01	; 1
    1952:	99 8b       	std	Y+17, r25	; 0x11
    1954:	88 8b       	std	Y+16, r24	; 0x10
    1956:	88 89       	ldd	r24, Y+16	; 0x10
    1958:	99 89       	ldd	r25, Y+17	; 0x11
    195a:	01 97       	sbiw	r24, 0x01	; 1
    195c:	f1 f7       	brne	.-4      	; 0x195a <lcd_wr_char_rob+0x286>
    195e:	99 8b       	std	Y+17, r25	; 0x11
    1960:	88 8b       	std	Y+16, r24	; 0x10
    1962:	8e 85       	ldd	r24, Y+14	; 0x0e
    1964:	9f 85       	ldd	r25, Y+15	; 0x0f
    1966:	01 97       	sbiw	r24, 0x01	; 1
    1968:	9f 87       	std	Y+15, r25	; 0x0f
    196a:	8e 87       	std	Y+14, r24	; 0x0e
    196c:	8e 85       	ldd	r24, Y+14	; 0x0e
    196e:	9f 85       	ldd	r25, Y+15	; 0x0f
    1970:	89 2b       	or	r24, r25
    1972:	69 f7       	brne	.-38     	; 0x194e <lcd_wr_char_rob+0x27a>
    1974:	14 c0       	rjmp	.+40     	; 0x199e <lcd_wr_char_rob+0x2ca>
    1976:	6a 85       	ldd	r22, Y+10	; 0x0a
    1978:	7b 85       	ldd	r23, Y+11	; 0x0b
    197a:	8c 85       	ldd	r24, Y+12	; 0x0c
    197c:	9d 85       	ldd	r25, Y+13	; 0x0d
    197e:	0e 94 e8 4f 	call	0x9fd0	; 0x9fd0 <__fixunssfsi>
    1982:	dc 01       	movw	r26, r24
    1984:	cb 01       	movw	r24, r22
    1986:	9f 87       	std	Y+15, r25	; 0x0f
    1988:	8e 87       	std	Y+14, r24	; 0x0e
    198a:	8e 85       	ldd	r24, Y+14	; 0x0e
    198c:	9f 85       	ldd	r25, Y+15	; 0x0f
    198e:	9b 8b       	std	Y+19, r25	; 0x13
    1990:	8a 8b       	std	Y+18, r24	; 0x12
    1992:	8a 89       	ldd	r24, Y+18	; 0x12
    1994:	9b 89       	ldd	r25, Y+19	; 0x13
    1996:	01 97       	sbiw	r24, 0x01	; 1
    1998:	f1 f7       	brne	.-4      	; 0x1996 <lcd_wr_char_rob+0x2c2>
    199a:	9b 8b       	std	Y+19, r25	; 0x13
    199c:	8a 8b       	std	Y+18, r24	; 0x12
    199e:	88 e2       	ldi	r24, 0x28	; 40
    19a0:	90 e0       	ldi	r25, 0x00	; 0
    19a2:	28 e2       	ldi	r18, 0x28	; 40
    19a4:	30 e0       	ldi	r19, 0x00	; 0
    19a6:	f9 01       	movw	r30, r18
    19a8:	20 81       	ld	r18, Z
    19aa:	2b 7f       	andi	r18, 0xFB	; 251
    19ac:	fc 01       	movw	r30, r24
    19ae:	20 83       	st	Z, r18
    19b0:	00 00       	nop
    19b2:	a0 96       	adiw	r28, 0x20	; 32
    19b4:	0f b6       	in	r0, 0x3f	; 63
    19b6:	f8 94       	cli
    19b8:	de bf       	out	0x3e, r29	; 62
    19ba:	0f be       	out	0x3f, r0	; 63
    19bc:	cd bf       	out	0x3d, r28	; 61
    19be:	df 91       	pop	r29
    19c0:	cf 91       	pop	r28
    19c2:	08 95       	ret

000019c4 <interrupt_switch_pressed>:
    19c4:	cf 93       	push	r28
    19c6:	df 93       	push	r29
    19c8:	cd b7       	in	r28, 0x3d	; 61
    19ca:	de b7       	in	r29, 0x3e	; 62
    19cc:	8c e2       	ldi	r24, 0x2C	; 44
    19ce:	90 e0       	ldi	r25, 0x00	; 0
    19d0:	fc 01       	movw	r30, r24
    19d2:	80 81       	ld	r24, Z
    19d4:	88 23       	and	r24, r24
    19d6:	14 f0       	brlt	.+4      	; 0x19dc <interrupt_switch_pressed+0x18>
    19d8:	81 e0       	ldi	r24, 0x01	; 1
    19da:	01 c0       	rjmp	.+2      	; 0x19de <interrupt_switch_pressed+0x1a>
    19dc:	80 e0       	ldi	r24, 0x00	; 0
    19de:	df 91       	pop	r29
    19e0:	cf 91       	pop	r28
    19e2:	08 95       	ret

000019e4 <buzzer_pin_config>:
    19e4:	cf 93       	push	r28
    19e6:	df 93       	push	r29
    19e8:	cd b7       	in	r28, 0x3d	; 61
    19ea:	de b7       	in	r29, 0x3e	; 62
    19ec:	87 e2       	ldi	r24, 0x27	; 39
    19ee:	90 e0       	ldi	r25, 0x00	; 0
    19f0:	27 e2       	ldi	r18, 0x27	; 39
    19f2:	30 e0       	ldi	r19, 0x00	; 0
    19f4:	f9 01       	movw	r30, r18
    19f6:	20 81       	ld	r18, Z
    19f8:	28 60       	ori	r18, 0x08	; 8
    19fa:	fc 01       	movw	r30, r24
    19fc:	20 83       	st	Z, r18
    19fe:	88 e2       	ldi	r24, 0x28	; 40
    1a00:	90 e0       	ldi	r25, 0x00	; 0
    1a02:	28 e2       	ldi	r18, 0x28	; 40
    1a04:	30 e0       	ldi	r19, 0x00	; 0
    1a06:	f9 01       	movw	r30, r18
    1a08:	20 81       	ld	r18, Z
    1a0a:	27 7f       	andi	r18, 0xF7	; 247
    1a0c:	fc 01       	movw	r30, r24
    1a0e:	20 83       	st	Z, r18
    1a10:	00 00       	nop
    1a12:	df 91       	pop	r29
    1a14:	cf 91       	pop	r28
    1a16:	08 95       	ret

00001a18 <buzzer_on>:
    1a18:	cf 93       	push	r28
    1a1a:	df 93       	push	r29
    1a1c:	cd b7       	in	r28, 0x3d	; 61
    1a1e:	de b7       	in	r29, 0x3e	; 62
    1a20:	88 e2       	ldi	r24, 0x28	; 40
    1a22:	90 e0       	ldi	r25, 0x00	; 0
    1a24:	28 e2       	ldi	r18, 0x28	; 40
    1a26:	30 e0       	ldi	r19, 0x00	; 0
    1a28:	f9 01       	movw	r30, r18
    1a2a:	20 81       	ld	r18, Z
    1a2c:	28 60       	ori	r18, 0x08	; 8
    1a2e:	fc 01       	movw	r30, r24
    1a30:	20 83       	st	Z, r18
    1a32:	00 00       	nop
    1a34:	df 91       	pop	r29
    1a36:	cf 91       	pop	r28
    1a38:	08 95       	ret

00001a3a <buzzer_off>:
    1a3a:	cf 93       	push	r28
    1a3c:	df 93       	push	r29
    1a3e:	cd b7       	in	r28, 0x3d	; 61
    1a40:	de b7       	in	r29, 0x3e	; 62
    1a42:	88 e2       	ldi	r24, 0x28	; 40
    1a44:	90 e0       	ldi	r25, 0x00	; 0
    1a46:	28 e2       	ldi	r18, 0x28	; 40
    1a48:	30 e0       	ldi	r19, 0x00	; 0
    1a4a:	f9 01       	movw	r30, r18
    1a4c:	20 81       	ld	r18, Z
    1a4e:	27 7f       	andi	r18, 0xF7	; 247
    1a50:	fc 01       	movw	r30, r24
    1a52:	20 83       	st	Z, r18
    1a54:	00 00       	nop
    1a56:	df 91       	pop	r29
    1a58:	cf 91       	pop	r28
    1a5a:	08 95       	ret

00001a5c <lcd_port_config>:
    1a5c:	cf 93       	push	r28
    1a5e:	df 93       	push	r29
    1a60:	cd b7       	in	r28, 0x3d	; 61
    1a62:	de b7       	in	r29, 0x3e	; 62
    1a64:	87 e2       	ldi	r24, 0x27	; 39
    1a66:	90 e0       	ldi	r25, 0x00	; 0
    1a68:	27 e2       	ldi	r18, 0x27	; 39
    1a6a:	30 e0       	ldi	r19, 0x00	; 0
    1a6c:	f9 01       	movw	r30, r18
    1a6e:	20 81       	ld	r18, Z
    1a70:	27 6f       	ori	r18, 0xF7	; 247
    1a72:	fc 01       	movw	r30, r24
    1a74:	20 83       	st	Z, r18
    1a76:	88 e2       	ldi	r24, 0x28	; 40
    1a78:	90 e0       	ldi	r25, 0x00	; 0
    1a7a:	28 e2       	ldi	r18, 0x28	; 40
    1a7c:	30 e0       	ldi	r19, 0x00	; 0
    1a7e:	f9 01       	movw	r30, r18
    1a80:	20 81       	ld	r18, Z
    1a82:	20 78       	andi	r18, 0x80	; 128
    1a84:	fc 01       	movw	r30, r24
    1a86:	20 83       	st	Z, r18
    1a88:	00 00       	nop
    1a8a:	df 91       	pop	r29
    1a8c:	cf 91       	pop	r28
    1a8e:	08 95       	ret

00001a90 <adc_pin_config>:
    1a90:	cf 93       	push	r28
    1a92:	df 93       	push	r29
    1a94:	cd b7       	in	r28, 0x3d	; 61
    1a96:	de b7       	in	r29, 0x3e	; 62
    1a98:	80 e3       	ldi	r24, 0x30	; 48
    1a9a:	90 e0       	ldi	r25, 0x00	; 0
    1a9c:	fc 01       	movw	r30, r24
    1a9e:	10 82       	st	Z, r1
    1aa0:	81 e3       	ldi	r24, 0x31	; 49
    1aa2:	90 e0       	ldi	r25, 0x00	; 0
    1aa4:	fc 01       	movw	r30, r24
    1aa6:	10 82       	st	Z, r1
    1aa8:	87 e0       	ldi	r24, 0x07	; 7
    1aaa:	91 e0       	ldi	r25, 0x01	; 1
    1aac:	fc 01       	movw	r30, r24
    1aae:	10 82       	st	Z, r1
    1ab0:	88 e0       	ldi	r24, 0x08	; 8
    1ab2:	91 e0       	ldi	r25, 0x01	; 1
    1ab4:	fc 01       	movw	r30, r24
    1ab6:	10 82       	st	Z, r1
    1ab8:	00 00       	nop
    1aba:	df 91       	pop	r29
    1abc:	cf 91       	pop	r28
    1abe:	08 95       	ret

00001ac0 <motion_pin_config>:
    1ac0:	cf 93       	push	r28
    1ac2:	df 93       	push	r29
    1ac4:	cd b7       	in	r28, 0x3d	; 61
    1ac6:	de b7       	in	r29, 0x3e	; 62
    1ac8:	81 e2       	ldi	r24, 0x21	; 33
    1aca:	90 e0       	ldi	r25, 0x00	; 0
    1acc:	21 e2       	ldi	r18, 0x21	; 33
    1ace:	30 e0       	ldi	r19, 0x00	; 0
    1ad0:	f9 01       	movw	r30, r18
    1ad2:	20 81       	ld	r18, Z
    1ad4:	2f 60       	ori	r18, 0x0F	; 15
    1ad6:	fc 01       	movw	r30, r24
    1ad8:	20 83       	st	Z, r18
    1ada:	82 e2       	ldi	r24, 0x22	; 34
    1adc:	90 e0       	ldi	r25, 0x00	; 0
    1ade:	22 e2       	ldi	r18, 0x22	; 34
    1ae0:	30 e0       	ldi	r19, 0x00	; 0
    1ae2:	f9 01       	movw	r30, r18
    1ae4:	20 81       	ld	r18, Z
    1ae6:	20 7f       	andi	r18, 0xF0	; 240
    1ae8:	fc 01       	movw	r30, r24
    1aea:	20 83       	st	Z, r18
    1aec:	8a e0       	ldi	r24, 0x0A	; 10
    1aee:	91 e0       	ldi	r25, 0x01	; 1
    1af0:	2a e0       	ldi	r18, 0x0A	; 10
    1af2:	31 e0       	ldi	r19, 0x01	; 1
    1af4:	f9 01       	movw	r30, r18
    1af6:	20 81       	ld	r18, Z
    1af8:	28 61       	ori	r18, 0x18	; 24
    1afa:	fc 01       	movw	r30, r24
    1afc:	20 83       	st	Z, r18
    1afe:	8b e0       	ldi	r24, 0x0B	; 11
    1b00:	91 e0       	ldi	r25, 0x01	; 1
    1b02:	2b e0       	ldi	r18, 0x0B	; 11
    1b04:	31 e0       	ldi	r19, 0x01	; 1
    1b06:	f9 01       	movw	r30, r18
    1b08:	20 81       	ld	r18, Z
    1b0a:	28 61       	ori	r18, 0x18	; 24
    1b0c:	fc 01       	movw	r30, r24
    1b0e:	20 83       	st	Z, r18
    1b10:	00 00       	nop
    1b12:	df 91       	pop	r29
    1b14:	cf 91       	pop	r28
    1b16:	08 95       	ret

00001b18 <port_init>:
    1b18:	cf 93       	push	r28
    1b1a:	df 93       	push	r29
    1b1c:	cd b7       	in	r28, 0x3d	; 61
    1b1e:	de b7       	in	r29, 0x3e	; 62
    1b20:	9d df       	rcall	.-198    	; 0x1a5c <lcd_port_config>
    1b22:	b6 df       	rcall	.-148    	; 0x1a90 <adc_pin_config>
    1b24:	cd df       	rcall	.-102    	; 0x1ac0 <motion_pin_config>
    1b26:	00 00       	nop
    1b28:	df 91       	pop	r29
    1b2a:	cf 91       	pop	r28
    1b2c:	08 95       	ret

00001b2e <timer5_init>:
    1b2e:	cf 93       	push	r28
    1b30:	df 93       	push	r29
    1b32:	cd b7       	in	r28, 0x3d	; 61
    1b34:	de b7       	in	r29, 0x3e	; 62
    1b36:	81 e2       	ldi	r24, 0x21	; 33
    1b38:	91 e0       	ldi	r25, 0x01	; 1
    1b3a:	fc 01       	movw	r30, r24
    1b3c:	10 82       	st	Z, r1
    1b3e:	85 e2       	ldi	r24, 0x25	; 37
    1b40:	91 e0       	ldi	r25, 0x01	; 1
    1b42:	2f ef       	ldi	r18, 0xFF	; 255
    1b44:	fc 01       	movw	r30, r24
    1b46:	20 83       	st	Z, r18
    1b48:	84 e2       	ldi	r24, 0x24	; 36
    1b4a:	91 e0       	ldi	r25, 0x01	; 1
    1b4c:	21 e0       	ldi	r18, 0x01	; 1
    1b4e:	fc 01       	movw	r30, r24
    1b50:	20 83       	st	Z, r18
    1b52:	89 e2       	ldi	r24, 0x29	; 41
    1b54:	91 e0       	ldi	r25, 0x01	; 1
    1b56:	fc 01       	movw	r30, r24
    1b58:	10 82       	st	Z, r1
    1b5a:	88 e2       	ldi	r24, 0x28	; 40
    1b5c:	91 e0       	ldi	r25, 0x01	; 1
    1b5e:	2f ef       	ldi	r18, 0xFF	; 255
    1b60:	fc 01       	movw	r30, r24
    1b62:	20 83       	st	Z, r18
    1b64:	8b e2       	ldi	r24, 0x2B	; 43
    1b66:	91 e0       	ldi	r25, 0x01	; 1
    1b68:	fc 01       	movw	r30, r24
    1b6a:	10 82       	st	Z, r1
    1b6c:	8a e2       	ldi	r24, 0x2A	; 42
    1b6e:	91 e0       	ldi	r25, 0x01	; 1
    1b70:	2f ef       	ldi	r18, 0xFF	; 255
    1b72:	fc 01       	movw	r30, r24
    1b74:	20 83       	st	Z, r18
    1b76:	8d e2       	ldi	r24, 0x2D	; 45
    1b78:	91 e0       	ldi	r25, 0x01	; 1
    1b7a:	fc 01       	movw	r30, r24
    1b7c:	10 82       	st	Z, r1
    1b7e:	8c e2       	ldi	r24, 0x2C	; 44
    1b80:	91 e0       	ldi	r25, 0x01	; 1
    1b82:	2f ef       	ldi	r18, 0xFF	; 255
    1b84:	fc 01       	movw	r30, r24
    1b86:	20 83       	st	Z, r18
    1b88:	80 e2       	ldi	r24, 0x20	; 32
    1b8a:	91 e0       	ldi	r25, 0x01	; 1
    1b8c:	29 ea       	ldi	r18, 0xA9	; 169
    1b8e:	fc 01       	movw	r30, r24
    1b90:	20 83       	st	Z, r18
    1b92:	81 e2       	ldi	r24, 0x21	; 33
    1b94:	91 e0       	ldi	r25, 0x01	; 1
    1b96:	2b e0       	ldi	r18, 0x0B	; 11
    1b98:	fc 01       	movw	r30, r24
    1b9a:	20 83       	st	Z, r18
    1b9c:	00 00       	nop
    1b9e:	df 91       	pop	r29
    1ba0:	cf 91       	pop	r28
    1ba2:	08 95       	ret

00001ba4 <adc_init>:
    1ba4:	cf 93       	push	r28
    1ba6:	df 93       	push	r29
    1ba8:	cd b7       	in	r28, 0x3d	; 61
    1baa:	de b7       	in	r29, 0x3e	; 62
    1bac:	8a e7       	ldi	r24, 0x7A	; 122
    1bae:	90 e0       	ldi	r25, 0x00	; 0
    1bb0:	fc 01       	movw	r30, r24
    1bb2:	10 82       	st	Z, r1
    1bb4:	8b e7       	ldi	r24, 0x7B	; 123
    1bb6:	90 e0       	ldi	r25, 0x00	; 0
    1bb8:	fc 01       	movw	r30, r24
    1bba:	10 82       	st	Z, r1
    1bbc:	8c e7       	ldi	r24, 0x7C	; 124
    1bbe:	90 e0       	ldi	r25, 0x00	; 0
    1bc0:	20 e2       	ldi	r18, 0x20	; 32
    1bc2:	fc 01       	movw	r30, r24
    1bc4:	20 83       	st	Z, r18
    1bc6:	80 e5       	ldi	r24, 0x50	; 80
    1bc8:	90 e0       	ldi	r25, 0x00	; 0
    1bca:	20 e8       	ldi	r18, 0x80	; 128
    1bcc:	fc 01       	movw	r30, r24
    1bce:	20 83       	st	Z, r18
    1bd0:	8a e7       	ldi	r24, 0x7A	; 122
    1bd2:	90 e0       	ldi	r25, 0x00	; 0
    1bd4:	26 e8       	ldi	r18, 0x86	; 134
    1bd6:	fc 01       	movw	r30, r24
    1bd8:	20 83       	st	Z, r18
    1bda:	00 00       	nop
    1bdc:	df 91       	pop	r29
    1bde:	cf 91       	pop	r28
    1be0:	08 95       	ret

00001be2 <ADC_Conversion>:
    1be2:	cf 93       	push	r28
    1be4:	df 93       	push	r29
    1be6:	1f 92       	push	r1
    1be8:	1f 92       	push	r1
    1bea:	cd b7       	in	r28, 0x3d	; 61
    1bec:	de b7       	in	r29, 0x3e	; 62
    1bee:	8a 83       	std	Y+2, r24	; 0x02
    1bf0:	8a 81       	ldd	r24, Y+2	; 0x02
    1bf2:	88 30       	cpi	r24, 0x08	; 8
    1bf4:	28 f0       	brcs	.+10     	; 0x1c00 <ADC_Conversion+0x1e>
    1bf6:	8b e7       	ldi	r24, 0x7B	; 123
    1bf8:	90 e0       	ldi	r25, 0x00	; 0
    1bfa:	28 e0       	ldi	r18, 0x08	; 8
    1bfc:	fc 01       	movw	r30, r24
    1bfe:	20 83       	st	Z, r18
    1c00:	8a 81       	ldd	r24, Y+2	; 0x02
    1c02:	87 70       	andi	r24, 0x07	; 7
    1c04:	8a 83       	std	Y+2, r24	; 0x02
    1c06:	8c e7       	ldi	r24, 0x7C	; 124
    1c08:	90 e0       	ldi	r25, 0x00	; 0
    1c0a:	2a 81       	ldd	r18, Y+2	; 0x02
    1c0c:	20 62       	ori	r18, 0x20	; 32
    1c0e:	fc 01       	movw	r30, r24
    1c10:	20 83       	st	Z, r18
    1c12:	8a e7       	ldi	r24, 0x7A	; 122
    1c14:	90 e0       	ldi	r25, 0x00	; 0
    1c16:	2a e7       	ldi	r18, 0x7A	; 122
    1c18:	30 e0       	ldi	r19, 0x00	; 0
    1c1a:	f9 01       	movw	r30, r18
    1c1c:	20 81       	ld	r18, Z
    1c1e:	20 64       	ori	r18, 0x40	; 64
    1c20:	fc 01       	movw	r30, r24
    1c22:	20 83       	st	Z, r18
    1c24:	00 00       	nop
    1c26:	8a e7       	ldi	r24, 0x7A	; 122
    1c28:	90 e0       	ldi	r25, 0x00	; 0
    1c2a:	fc 01       	movw	r30, r24
    1c2c:	80 81       	ld	r24, Z
    1c2e:	88 2f       	mov	r24, r24
    1c30:	90 e0       	ldi	r25, 0x00	; 0
    1c32:	80 71       	andi	r24, 0x10	; 16
    1c34:	99 27       	eor	r25, r25
    1c36:	89 2b       	or	r24, r25
    1c38:	b1 f3       	breq	.-20     	; 0x1c26 <ADC_Conversion+0x44>
    1c3a:	89 e7       	ldi	r24, 0x79	; 121
    1c3c:	90 e0       	ldi	r25, 0x00	; 0
    1c3e:	fc 01       	movw	r30, r24
    1c40:	80 81       	ld	r24, Z
    1c42:	89 83       	std	Y+1, r24	; 0x01
    1c44:	8a e7       	ldi	r24, 0x7A	; 122
    1c46:	90 e0       	ldi	r25, 0x00	; 0
    1c48:	2a e7       	ldi	r18, 0x7A	; 122
    1c4a:	30 e0       	ldi	r19, 0x00	; 0
    1c4c:	f9 01       	movw	r30, r18
    1c4e:	20 81       	ld	r18, Z
    1c50:	20 61       	ori	r18, 0x10	; 16
    1c52:	fc 01       	movw	r30, r24
    1c54:	20 83       	st	Z, r18
    1c56:	8b e7       	ldi	r24, 0x7B	; 123
    1c58:	90 e0       	ldi	r25, 0x00	; 0
    1c5a:	fc 01       	movw	r30, r24
    1c5c:	10 82       	st	Z, r1
    1c5e:	89 81       	ldd	r24, Y+1	; 0x01
    1c60:	0f 90       	pop	r0
    1c62:	0f 90       	pop	r0
    1c64:	df 91       	pop	r29
    1c66:	cf 91       	pop	r28
    1c68:	08 95       	ret

00001c6a <print_sensor>:
    1c6a:	cf 93       	push	r28
    1c6c:	df 93       	push	r29
    1c6e:	00 d0       	rcall	.+0      	; 0x1c70 <print_sensor+0x6>
    1c70:	cd b7       	in	r28, 0x3d	; 61
    1c72:	de b7       	in	r29, 0x3e	; 62
    1c74:	89 83       	std	Y+1, r24	; 0x01
    1c76:	6a 83       	std	Y+2, r22	; 0x02
    1c78:	4b 83       	std	Y+3, r20	; 0x03
    1c7a:	8b 81       	ldd	r24, Y+3	; 0x03
    1c7c:	b2 df       	rcall	.-156    	; 0x1be2 <ADC_Conversion>
    1c7e:	80 93 3a 02 	sts	0x023A, r24	; 0x80023a <ADC_Value>
    1c82:	80 91 3a 02 	lds	r24, 0x023A	; 0x80023a <ADC_Value>
    1c86:	88 2f       	mov	r24, r24
    1c88:	90 e0       	ldi	r25, 0x00	; 0
    1c8a:	23 e0       	ldi	r18, 0x03	; 3
    1c8c:	30 e0       	ldi	r19, 0x00	; 0
    1c8e:	ac 01       	movw	r20, r24
    1c90:	6a 81       	ldd	r22, Y+2	; 0x02
    1c92:	89 81       	ldd	r24, Y+1	; 0x01
    1c94:	ac db       	rcall	.-2216   	; 0x13ee <lcd_print>
    1c96:	00 00       	nop
    1c98:	0f 90       	pop	r0
    1c9a:	0f 90       	pop	r0
    1c9c:	0f 90       	pop	r0
    1c9e:	df 91       	pop	r29
    1ca0:	cf 91       	pop	r28
    1ca2:	08 95       	ret

00001ca4 <velocity>:
    1ca4:	cf 93       	push	r28
    1ca6:	df 93       	push	r29
    1ca8:	1f 92       	push	r1
    1caa:	1f 92       	push	r1
    1cac:	cd b7       	in	r28, 0x3d	; 61
    1cae:	de b7       	in	r29, 0x3e	; 62
    1cb0:	89 83       	std	Y+1, r24	; 0x01
    1cb2:	6a 83       	std	Y+2, r22	; 0x02
    1cb4:	88 e2       	ldi	r24, 0x28	; 40
    1cb6:	91 e0       	ldi	r25, 0x01	; 1
    1cb8:	29 81       	ldd	r18, Y+1	; 0x01
    1cba:	fc 01       	movw	r30, r24
    1cbc:	20 83       	st	Z, r18
    1cbe:	8a e2       	ldi	r24, 0x2A	; 42
    1cc0:	91 e0       	ldi	r25, 0x01	; 1
    1cc2:	2a 81       	ldd	r18, Y+2	; 0x02
    1cc4:	fc 01       	movw	r30, r24
    1cc6:	20 83       	st	Z, r18
    1cc8:	00 00       	nop
    1cca:	0f 90       	pop	r0
    1ccc:	0f 90       	pop	r0
    1cce:	df 91       	pop	r29
    1cd0:	cf 91       	pop	r28
    1cd2:	08 95       	ret

00001cd4 <motion_set>:
    1cd4:	cf 93       	push	r28
    1cd6:	df 93       	push	r29
    1cd8:	1f 92       	push	r1
    1cda:	1f 92       	push	r1
    1cdc:	cd b7       	in	r28, 0x3d	; 61
    1cde:	de b7       	in	r29, 0x3e	; 62
    1ce0:	8a 83       	std	Y+2, r24	; 0x02
    1ce2:	19 82       	std	Y+1, r1	; 0x01
    1ce4:	8a 81       	ldd	r24, Y+2	; 0x02
    1ce6:	8f 70       	andi	r24, 0x0F	; 15
    1ce8:	8a 83       	std	Y+2, r24	; 0x02
    1cea:	82 e2       	ldi	r24, 0x22	; 34
    1cec:	90 e0       	ldi	r25, 0x00	; 0
    1cee:	fc 01       	movw	r30, r24
    1cf0:	80 81       	ld	r24, Z
    1cf2:	89 83       	std	Y+1, r24	; 0x01
    1cf4:	89 81       	ldd	r24, Y+1	; 0x01
    1cf6:	80 7f       	andi	r24, 0xF0	; 240
    1cf8:	89 83       	std	Y+1, r24	; 0x01
    1cfa:	99 81       	ldd	r25, Y+1	; 0x01
    1cfc:	8a 81       	ldd	r24, Y+2	; 0x02
    1cfe:	89 2b       	or	r24, r25
    1d00:	89 83       	std	Y+1, r24	; 0x01
    1d02:	82 e2       	ldi	r24, 0x22	; 34
    1d04:	90 e0       	ldi	r25, 0x00	; 0
    1d06:	29 81       	ldd	r18, Y+1	; 0x01
    1d08:	fc 01       	movw	r30, r24
    1d0a:	20 83       	st	Z, r18
    1d0c:	00 00       	nop
    1d0e:	0f 90       	pop	r0
    1d10:	0f 90       	pop	r0
    1d12:	df 91       	pop	r29
    1d14:	cf 91       	pop	r28
    1d16:	08 95       	ret

00001d18 <forward>:
    1d18:	cf 93       	push	r28
    1d1a:	df 93       	push	r29
    1d1c:	cd b7       	in	r28, 0x3d	; 61
    1d1e:	de b7       	in	r29, 0x3e	; 62
    1d20:	86 e0       	ldi	r24, 0x06	; 6
    1d22:	d8 df       	rcall	.-80     	; 0x1cd4 <motion_set>
    1d24:	00 00       	nop
    1d26:	df 91       	pop	r29
    1d28:	cf 91       	pop	r28
    1d2a:	08 95       	ret

00001d2c <left>:
    1d2c:	cf 93       	push	r28
    1d2e:	df 93       	push	r29
    1d30:	cd b7       	in	r28, 0x3d	; 61
    1d32:	de b7       	in	r29, 0x3e	; 62
    1d34:	85 e0       	ldi	r24, 0x05	; 5
    1d36:	ce df       	rcall	.-100    	; 0x1cd4 <motion_set>
    1d38:	00 00       	nop
    1d3a:	df 91       	pop	r29
    1d3c:	cf 91       	pop	r28
    1d3e:	08 95       	ret

00001d40 <right>:
    1d40:	cf 93       	push	r28
    1d42:	df 93       	push	r29
    1d44:	cd b7       	in	r28, 0x3d	; 61
    1d46:	de b7       	in	r29, 0x3e	; 62
    1d48:	8a e0       	ldi	r24, 0x0A	; 10
    1d4a:	c4 df       	rcall	.-120    	; 0x1cd4 <motion_set>
    1d4c:	00 00       	nop
    1d4e:	df 91       	pop	r29
    1d50:	cf 91       	pop	r28
    1d52:	08 95       	ret

00001d54 <stop>:
    1d54:	cf 93       	push	r28
    1d56:	df 93       	push	r29
    1d58:	cd b7       	in	r28, 0x3d	; 61
    1d5a:	de b7       	in	r29, 0x3e	; 62
    1d5c:	80 e0       	ldi	r24, 0x00	; 0
    1d5e:	ba df       	rcall	.-140    	; 0x1cd4 <motion_set>
    1d60:	00 00       	nop
    1d62:	df 91       	pop	r29
    1d64:	cf 91       	pop	r28
    1d66:	08 95       	ret

00001d68 <init_devices>:
    1d68:	cf 93       	push	r28
    1d6a:	df 93       	push	r29
    1d6c:	cd b7       	in	r28, 0x3d	; 61
    1d6e:	de b7       	in	r29, 0x3e	; 62
    1d70:	f8 94       	cli
    1d72:	d2 de       	rcall	.-604    	; 0x1b18 <port_init>
    1d74:	17 df       	rcall	.-466    	; 0x1ba4 <adc_init>
    1d76:	db de       	rcall	.-586    	; 0x1b2e <timer5_init>
    1d78:	78 94       	sei
    1d7a:	00 00       	nop
    1d7c:	df 91       	pop	r29
    1d7e:	cf 91       	pop	r28
    1d80:	08 95       	ret

00001d82 <roll_die>:
    1d82:	cf 93       	push	r28
    1d84:	df 93       	push	r29
    1d86:	1f 92       	push	r1
    1d88:	1f 92       	push	r1
    1d8a:	cd b7       	in	r28, 0x3d	; 61
    1d8c:	de b7       	in	r29, 0x3e	; 62
    1d8e:	1a 82       	std	Y+2, r1	; 0x02
    1d90:	19 82       	std	Y+1, r1	; 0x01
    1d92:	0e 94 37 51 	call	0xa26e	; 0xa26e <rand>
    1d96:	26 e0       	ldi	r18, 0x06	; 6
    1d98:	30 e0       	ldi	r19, 0x00	; 0
    1d9a:	b9 01       	movw	r22, r18
    1d9c:	0e 94 ae 4f 	call	0x9f5c	; 0x9f5c <__divmodhi4>
    1da0:	01 96       	adiw	r24, 0x01	; 1
    1da2:	9a 83       	std	Y+2, r25	; 0x02
    1da4:	89 83       	std	Y+1, r24	; 0x01
    1da6:	89 81       	ldd	r24, Y+1	; 0x01
    1da8:	9a 81       	ldd	r25, Y+2	; 0x02
    1daa:	0f 90       	pop	r0
    1dac:	0f 90       	pop	r0
    1dae:	df 91       	pop	r29
    1db0:	cf 91       	pop	r28
    1db2:	08 95       	ret

00001db4 <static_loop>:
    1db4:	cf 93       	push	r28
    1db6:	df 93       	push	r29
    1db8:	cd b7       	in	r28, 0x3d	; 61
    1dba:	de b7       	in	r29, 0x3e	; 62
    1dbc:	44 e0       	ldi	r20, 0x04	; 4
    1dbe:	52 e0       	ldi	r21, 0x02	; 2
    1dc0:	61 e0       	ldi	r22, 0x01	; 1
    1dc2:	81 e0       	ldi	r24, 0x01	; 1
    1dc4:	58 dc       	rcall	.-1872   	; 0x1676 <lcd_string_rob>
    1dc6:	42 e1       	ldi	r20, 0x12	; 18
    1dc8:	52 e0       	ldi	r21, 0x02	; 2
    1dca:	61 e0       	ldi	r22, 0x01	; 1
    1dcc:	82 e0       	ldi	r24, 0x02	; 2
    1dce:	53 dc       	rcall	.-1882   	; 0x1676 <lcd_string_rob>
    1dd0:	00 00       	nop
    1dd2:	df 91       	pop	r29
    1dd4:	cf 91       	pop	r28
    1dd6:	08 95       	ret

00001dd8 <static_loop2>:
    1dd8:	cf 93       	push	r28
    1dda:	df 93       	push	r29
    1ddc:	cd b7       	in	r28, 0x3d	; 61
    1dde:	de b7       	in	r29, 0x3e	; 62
    1de0:	44 e2       	ldi	r20, 0x24	; 36
    1de2:	52 e0       	ldi	r21, 0x02	; 2
    1de4:	61 e0       	ldi	r22, 0x01	; 1
    1de6:	82 e0       	ldi	r24, 0x02	; 2
    1de8:	46 dc       	rcall	.-1908   	; 0x1676 <lcd_string_rob>
    1dea:	00 00       	nop
    1dec:	df 91       	pop	r29
    1dee:	cf 91       	pop	r28
    1df0:	08 95       	ret

00001df2 <bar_graph_led_pins_config>:
    1df2:	cf 93       	push	r28
    1df4:	df 93       	push	r29
    1df6:	cd b7       	in	r28, 0x3d	; 61
    1df8:	de b7       	in	r29, 0x3e	; 62
    1dfa:	84 e0       	ldi	r24, 0x04	; 4
    1dfc:	91 e0       	ldi	r25, 0x01	; 1
    1dfe:	fc 01       	movw	r30, r24
    1e00:	80 81       	ld	r24, Z
    1e02:	84 e0       	ldi	r24, 0x04	; 4
    1e04:	91 e0       	ldi	r25, 0x01	; 1
    1e06:	2f ef       	ldi	r18, 0xFF	; 255
    1e08:	fc 01       	movw	r30, r24
    1e0a:	20 83       	st	Z, r18
    1e0c:	00 00       	nop
    1e0e:	df 91       	pop	r29
    1e10:	cf 91       	pop	r28
    1e12:	08 95       	ret

00001e14 <turn_off_bar_graph_led>:
    1e14:	cf 93       	push	r28
    1e16:	df 93       	push	r29
    1e18:	1f 92       	push	r1
    1e1a:	cd b7       	in	r28, 0x3d	; 61
    1e1c:	de b7       	in	r29, 0x3e	; 62
    1e1e:	89 83       	std	Y+1, r24	; 0x01
    1e20:	85 e0       	ldi	r24, 0x05	; 5
    1e22:	91 e0       	ldi	r25, 0x01	; 1
    1e24:	25 e0       	ldi	r18, 0x05	; 5
    1e26:	31 e0       	ldi	r19, 0x01	; 1
    1e28:	f9 01       	movw	r30, r18
    1e2a:	20 81       	ld	r18, Z
    1e2c:	62 2f       	mov	r22, r18
    1e2e:	29 81       	ldd	r18, Y+1	; 0x01
    1e30:	42 2f       	mov	r20, r18
    1e32:	50 e0       	ldi	r21, 0x00	; 0
    1e34:	21 e0       	ldi	r18, 0x01	; 1
    1e36:	30 e0       	ldi	r19, 0x00	; 0
    1e38:	02 c0       	rjmp	.+4      	; 0x1e3e <turn_off_bar_graph_led+0x2a>
    1e3a:	22 0f       	add	r18, r18
    1e3c:	33 1f       	adc	r19, r19
    1e3e:	4a 95       	dec	r20
    1e40:	e2 f7       	brpl	.-8      	; 0x1e3a <turn_off_bar_graph_led+0x26>
    1e42:	20 95       	com	r18
    1e44:	26 23       	and	r18, r22
    1e46:	fc 01       	movw	r30, r24
    1e48:	20 83       	st	Z, r18
    1e4a:	00 00       	nop
    1e4c:	0f 90       	pop	r0
    1e4e:	df 91       	pop	r29
    1e50:	cf 91       	pop	r28
    1e52:	08 95       	ret

00001e54 <turn_on_bar_graph_led>:
    1e54:	cf 93       	push	r28
    1e56:	df 93       	push	r29
    1e58:	1f 92       	push	r1
    1e5a:	cd b7       	in	r28, 0x3d	; 61
    1e5c:	de b7       	in	r29, 0x3e	; 62
    1e5e:	89 83       	std	Y+1, r24	; 0x01
    1e60:	85 e0       	ldi	r24, 0x05	; 5
    1e62:	91 e0       	ldi	r25, 0x01	; 1
    1e64:	25 e0       	ldi	r18, 0x05	; 5
    1e66:	31 e0       	ldi	r19, 0x01	; 1
    1e68:	f9 01       	movw	r30, r18
    1e6a:	20 81       	ld	r18, Z
    1e6c:	62 2f       	mov	r22, r18
    1e6e:	29 81       	ldd	r18, Y+1	; 0x01
    1e70:	42 2f       	mov	r20, r18
    1e72:	50 e0       	ldi	r21, 0x00	; 0
    1e74:	21 e0       	ldi	r18, 0x01	; 1
    1e76:	30 e0       	ldi	r19, 0x00	; 0
    1e78:	02 c0       	rjmp	.+4      	; 0x1e7e <turn_on_bar_graph_led+0x2a>
    1e7a:	22 0f       	add	r18, r18
    1e7c:	33 1f       	adc	r19, r19
    1e7e:	4a 95       	dec	r20
    1e80:	e2 f7       	brpl	.-8      	; 0x1e7a <turn_on_bar_graph_led+0x26>
    1e82:	26 2b       	or	r18, r22
    1e84:	fc 01       	movw	r30, r24
    1e86:	20 83       	st	Z, r18
    1e88:	00 00       	nop
    1e8a:	0f 90       	pop	r0
    1e8c:	df 91       	pop	r29
    1e8e:	cf 91       	pop	r28
    1e90:	08 95       	ret

00001e92 <main>:
    1e92:	0f 93       	push	r16
    1e94:	1f 93       	push	r17
    1e96:	cf 93       	push	r28
    1e98:	df 93       	push	r29
    1e9a:	cd b7       	in	r28, 0x3d	; 61
    1e9c:	de b7       	in	r29, 0x3e	; 62
    1e9e:	c0 55       	subi	r28, 0x50	; 80
    1ea0:	d4 40       	sbci	r29, 0x04	; 4
    1ea2:	0f b6       	in	r0, 0x3f	; 63
    1ea4:	f8 94       	cli
    1ea6:	de bf       	out	0x3e, r29	; 62
    1ea8:	0f be       	out	0x3f, r0	; 63
    1eaa:	cd bf       	out	0x3d, r28	; 61
    1eac:	1a 82       	std	Y+2, r1	; 0x02
    1eae:	19 82       	std	Y+1, r1	; 0x01
    1eb0:	1c 82       	std	Y+4, r1	; 0x04
    1eb2:	1b 82       	std	Y+3, r1	; 0x03
    1eb4:	59 df       	rcall	.-334    	; 0x1d68 <init_devices>
    1eb6:	0e 94 94 00 	call	0x128	; 0x128 <lcd_set_4bit>
    1eba:	0e 94 3d 06 	call	0xc7a	; 0xc7a <lcd_init>
    1ebe:	88 e0       	ldi	r24, 0x08	; 8
    1ec0:	90 e0       	ldi	r25, 0x00	; 0
    1ec2:	0e 94 3a 51 	call	0xa274	; 0xa274 <srand>
    1ec6:	4b c0       	rjmp	.+150    	; 0x1f5e <main+0xcc>
    1ec8:	83 e0       	ldi	r24, 0x03	; 3
    1eca:	8b de       	rcall	.-746    	; 0x1be2 <ADC_Conversion>
    1ecc:	80 93 33 02 	sts	0x0233, r24	; 0x800233 <Left_white_line>
    1ed0:	82 e0       	ldi	r24, 0x02	; 2
    1ed2:	87 de       	rcall	.-754    	; 0x1be2 <ADC_Conversion>
    1ed4:	80 93 34 02 	sts	0x0234, r24	; 0x800234 <Center_white_line>
    1ed8:	81 e0       	ldi	r24, 0x01	; 1
    1eda:	83 de       	rcall	.-762    	; 0x1be2 <ADC_Conversion>
    1edc:	80 93 35 02 	sts	0x0235, r24	; 0x800235 <Right_white_line>
    1ee0:	10 92 32 02 	sts	0x0232, r1	; 0x800232 <__data_end>
    1ee4:	43 e0       	ldi	r20, 0x03	; 3
    1ee6:	61 e0       	ldi	r22, 0x01	; 1
    1ee8:	81 e0       	ldi	r24, 0x01	; 1
    1eea:	bf de       	rcall	.-642    	; 0x1c6a <print_sensor>
    1eec:	42 e0       	ldi	r20, 0x02	; 2
    1eee:	65 e0       	ldi	r22, 0x05	; 5
    1ef0:	81 e0       	ldi	r24, 0x01	; 1
    1ef2:	bb de       	rcall	.-650    	; 0x1c6a <print_sensor>
    1ef4:	41 e0       	ldi	r20, 0x01	; 1
    1ef6:	69 e0       	ldi	r22, 0x09	; 9
    1ef8:	81 e0       	ldi	r24, 0x01	; 1
    1efa:	b7 de       	rcall	.-658    	; 0x1c6a <print_sensor>
    1efc:	63 dd       	rcall	.-1338   	; 0x19c4 <interrupt_switch_pressed>
    1efe:	88 23       	and	r24, r24
    1f00:	69 f1       	breq	.+90     	; 0x1f5c <main+0xca>
    1f02:	ce 01       	movw	r24, r28
    1f04:	81 5c       	subi	r24, 0xC1	; 193
    1f06:	9e 4f       	sbci	r25, 0xFE	; 254
    1f08:	fc 01       	movw	r30, r24
    1f0a:	11 82       	std	Z+1, r1	; 0x01
    1f0c:	10 82       	st	Z, r1
    1f0e:	8e 01       	movw	r16, r28
    1f10:	01 5c       	subi	r16, 0xC1	; 193
    1f12:	1e 4f       	sbci	r17, 0xFE	; 254
    1f14:	36 df       	rcall	.-404    	; 0x1d82 <roll_die>
    1f16:	f8 01       	movw	r30, r16
    1f18:	91 83       	std	Z+1, r25	; 0x01
    1f1a:	80 83       	st	Z, r24
    1f1c:	ce 01       	movw	r24, r28
    1f1e:	81 5c       	subi	r24, 0xC1	; 193
    1f20:	9e 4f       	sbci	r25, 0xFE	; 254
    1f22:	29 81       	ldd	r18, Y+1	; 0x01
    1f24:	3a 81       	ldd	r19, Y+2	; 0x02
    1f26:	fc 01       	movw	r30, r24
    1f28:	80 81       	ld	r24, Z
    1f2a:	91 81       	ldd	r25, Z+1	; 0x01
    1f2c:	82 0f       	add	r24, r18
    1f2e:	93 1f       	adc	r25, r19
    1f30:	9a 83       	std	Y+2, r25	; 0x02
    1f32:	89 83       	std	Y+1, r24	; 0x01
    1f34:	ce 01       	movw	r24, r28
    1f36:	81 5c       	subi	r24, 0xC1	; 193
    1f38:	9e 4f       	sbci	r25, 0xFE	; 254
    1f3a:	fc 01       	movw	r30, r24
    1f3c:	80 81       	ld	r24, Z
    1f3e:	91 81       	ldd	r25, Z+1	; 0x01
    1f40:	22 e0       	ldi	r18, 0x02	; 2
    1f42:	30 e0       	ldi	r19, 0x00	; 0
    1f44:	ac 01       	movw	r20, r24
    1f46:	64 e0       	ldi	r22, 0x04	; 4
    1f48:	82 e0       	ldi	r24, 0x02	; 2
    1f4a:	51 da       	rcall	.-2910   	; 0x13ee <lcd_print>
    1f4c:	89 81       	ldd	r24, Y+1	; 0x01
    1f4e:	9a 81       	ldd	r25, Y+2	; 0x02
    1f50:	22 e0       	ldi	r18, 0x02	; 2
    1f52:	30 e0       	ldi	r19, 0x00	; 0
    1f54:	ac 01       	movw	r20, r24
    1f56:	67 e0       	ldi	r22, 0x07	; 7
    1f58:	82 e0       	ldi	r24, 0x02	; 2
    1f5a:	49 da       	rcall	.-2926   	; 0x13ee <lcd_print>
    1f5c:	fb de       	rcall	.-522    	; 0x1d54 <stop>
    1f5e:	89 81       	ldd	r24, Y+1	; 0x01
    1f60:	9a 81       	ldd	r25, Y+2	; 0x02
    1f62:	89 2b       	or	r24, r25
    1f64:	09 f4       	brne	.+2      	; 0x1f68 <main+0xd6>
    1f66:	b0 cf       	rjmp	.-160    	; 0x1ec8 <main+0x36>
    1f68:	0c 94 a6 4f 	jmp	0x9f4c	; 0x9f4c <__stack+0x7d4d>
    1f6c:	83 e0       	ldi	r24, 0x03	; 3
    1f6e:	39 de       	rcall	.-910    	; 0x1be2 <ADC_Conversion>
    1f70:	80 93 33 02 	sts	0x0233, r24	; 0x800233 <Left_white_line>
    1f74:	82 e0       	ldi	r24, 0x02	; 2
    1f76:	35 de       	rcall	.-918    	; 0x1be2 <ADC_Conversion>
    1f78:	80 93 34 02 	sts	0x0234, r24	; 0x800234 <Center_white_line>
    1f7c:	81 e0       	ldi	r24, 0x01	; 1
    1f7e:	31 de       	rcall	.-926    	; 0x1be2 <ADC_Conversion>
    1f80:	80 93 35 02 	sts	0x0235, r24	; 0x800235 <Right_white_line>
    1f84:	10 92 32 02 	sts	0x0232, r1	; 0x800232 <__data_end>
    1f88:	43 e0       	ldi	r20, 0x03	; 3
    1f8a:	61 e0       	ldi	r22, 0x01	; 1
    1f8c:	81 e0       	ldi	r24, 0x01	; 1
    1f8e:	6d de       	rcall	.-806    	; 0x1c6a <print_sensor>
    1f90:	42 e0       	ldi	r20, 0x02	; 2
    1f92:	65 e0       	ldi	r22, 0x05	; 5
    1f94:	81 e0       	ldi	r24, 0x01	; 1
    1f96:	69 de       	rcall	.-814    	; 0x1c6a <print_sensor>
    1f98:	41 e0       	ldi	r20, 0x01	; 1
    1f9a:	69 e0       	ldi	r22, 0x09	; 9
    1f9c:	81 e0       	ldi	r24, 0x01	; 1
    1f9e:	65 de       	rcall	.-822    	; 0x1c6a <print_sensor>
    1fa0:	11 dd       	rcall	.-1502   	; 0x19c4 <interrupt_switch_pressed>
    1fa2:	88 23       	and	r24, r24
    1fa4:	51 f1       	breq	.+84     	; 0x1ffa <main+0x168>
    1fa6:	1a 86       	std	Y+10, r1	; 0x0a
    1fa8:	19 86       	std	Y+9, r1	; 0x09
    1faa:	eb de       	rcall	.-554    	; 0x1d82 <roll_die>
    1fac:	9a 87       	std	Y+10, r25	; 0x0a
    1fae:	89 87       	std	Y+9, r24	; 0x09
    1fb0:	29 81       	ldd	r18, Y+1	; 0x01
    1fb2:	3a 81       	ldd	r19, Y+2	; 0x02
    1fb4:	89 85       	ldd	r24, Y+9	; 0x09
    1fb6:	9a 85       	ldd	r25, Y+10	; 0x0a
    1fb8:	82 0f       	add	r24, r18
    1fba:	93 1f       	adc	r25, r19
    1fbc:	9a 83       	std	Y+2, r25	; 0x02
    1fbe:	89 83       	std	Y+1, r24	; 0x01
    1fc0:	89 85       	ldd	r24, Y+9	; 0x09
    1fc2:	9a 85       	ldd	r25, Y+10	; 0x0a
    1fc4:	22 e0       	ldi	r18, 0x02	; 2
    1fc6:	30 e0       	ldi	r19, 0x00	; 0
    1fc8:	ac 01       	movw	r20, r24
    1fca:	64 e0       	ldi	r22, 0x04	; 4
    1fcc:	82 e0       	ldi	r24, 0x02	; 2
    1fce:	0f da       	rcall	.-3042   	; 0x13ee <lcd_print>
    1fd0:	89 81       	ldd	r24, Y+1	; 0x01
    1fd2:	9a 81       	ldd	r25, Y+2	; 0x02
    1fd4:	22 e0       	ldi	r18, 0x02	; 2
    1fd6:	30 e0       	ldi	r19, 0x00	; 0
    1fd8:	ac 01       	movw	r20, r24
    1fda:	67 e0       	ldi	r22, 0x07	; 7
    1fdc:	82 e0       	ldi	r24, 0x02	; 2
    1fde:	07 da       	rcall	.-3058   	; 0x13ee <lcd_print>
    1fe0:	0c c0       	rjmp	.+24     	; 0x1ffa <main+0x168>
    1fe2:	8a e1       	ldi	r24, 0x1A	; 26
    1fe4:	90 e0       	ldi	r25, 0x00	; 0
    1fe6:	9a 83       	std	Y+2, r25	; 0x02
    1fe8:	89 83       	std	Y+1, r24	; 0x01
    1fea:	89 81       	ldd	r24, Y+1	; 0x01
    1fec:	9a 81       	ldd	r25, Y+2	; 0x02
    1fee:	22 e0       	ldi	r18, 0x02	; 2
    1ff0:	30 e0       	ldi	r19, 0x00	; 0
    1ff2:	ac 01       	movw	r20, r24
    1ff4:	67 e0       	ldi	r22, 0x07	; 7
    1ff6:	82 e0       	ldi	r24, 0x02	; 2
    1ff8:	fa d9       	rcall	.-3084   	; 0x13ee <lcd_print>
    1ffa:	89 81       	ldd	r24, Y+1	; 0x01
    1ffc:	9a 81       	ldd	r25, Y+2	; 0x02
    1ffe:	4b 97       	sbiw	r24, 0x1b	; 27
    2000:	84 f7       	brge	.-32     	; 0x1fe2 <main+0x150>
    2002:	d9 c5       	rjmp	.+2994   	; 0x2bb6 <__stack+0x9b7>
    2004:	09 dd       	rcall	.-1518   	; 0x1a18 <buzzer_on>
    2006:	80 e0       	ldi	r24, 0x00	; 0
    2008:	90 e0       	ldi	r25, 0x00	; 0
    200a:	a8 ec       	ldi	r26, 0xC8	; 200
    200c:	b2 e4       	ldi	r27, 0x42	; 66
    200e:	8f 87       	std	Y+15, r24	; 0x0f
    2010:	98 8b       	std	Y+16, r25	; 0x10
    2012:	a9 8b       	std	Y+17, r26	; 0x11
    2014:	ba 8b       	std	Y+18, r27	; 0x12
    2016:	8e 01       	movw	r16, r28
    2018:	05 57       	subi	r16, 0x75	; 117
    201a:	1e 4f       	sbci	r17, 0xFE	; 254
    201c:	26 e6       	ldi	r18, 0x66	; 102
    201e:	36 e6       	ldi	r19, 0x66	; 102
    2020:	46 e6       	ldi	r20, 0x66	; 102
    2022:	55 e4       	ldi	r21, 0x45	; 69
    2024:	6f 85       	ldd	r22, Y+15	; 0x0f
    2026:	78 89       	ldd	r23, Y+16	; 0x10
    2028:	89 89       	ldd	r24, Y+17	; 0x11
    202a:	9a 89       	ldd	r25, Y+18	; 0x12
    202c:	0e 94 65 50 	call	0xa0ca	; 0xa0ca <__mulsf3>
    2030:	dc 01       	movw	r26, r24
    2032:	cb 01       	movw	r24, r22
    2034:	f8 01       	movw	r30, r16
    2036:	80 83       	st	Z, r24
    2038:	91 83       	std	Z+1, r25	; 0x01
    203a:	a2 83       	std	Z+2, r26	; 0x02
    203c:	b3 83       	std	Z+3, r27	; 0x03
    203e:	ce 01       	movw	r24, r28
    2040:	85 57       	subi	r24, 0x75	; 117
    2042:	9e 4f       	sbci	r25, 0xFE	; 254
    2044:	20 e0       	ldi	r18, 0x00	; 0
    2046:	30 e0       	ldi	r19, 0x00	; 0
    2048:	40 e8       	ldi	r20, 0x80	; 128
    204a:	5f e3       	ldi	r21, 0x3F	; 63
    204c:	fc 01       	movw	r30, r24
    204e:	60 81       	ld	r22, Z
    2050:	71 81       	ldd	r23, Z+1	; 0x01
    2052:	82 81       	ldd	r24, Z+2	; 0x02
    2054:	93 81       	ldd	r25, Z+3	; 0x03
    2056:	0e 94 e4 4f 	call	0x9fc8	; 0x9fc8 <__cmpsf2>
    205a:	88 23       	and	r24, r24
    205c:	4c f4       	brge	.+18     	; 0x2070 <__DATA_REGION_LENGTH__+0x70>
    205e:	ce 01       	movw	r24, r28
    2060:	81 57       	subi	r24, 0x71	; 113
    2062:	9e 4f       	sbci	r25, 0xFE	; 254
    2064:	21 e0       	ldi	r18, 0x01	; 1
    2066:	30 e0       	ldi	r19, 0x00	; 0
    2068:	fc 01       	movw	r30, r24
    206a:	31 83       	std	Z+1, r19	; 0x01
    206c:	20 83       	st	Z, r18
    206e:	69 c0       	rjmp	.+210    	; 0x2142 <__DATA_REGION_LENGTH__+0x142>
    2070:	ce 01       	movw	r24, r28
    2072:	85 57       	subi	r24, 0x75	; 117
    2074:	9e 4f       	sbci	r25, 0xFE	; 254
    2076:	20 e0       	ldi	r18, 0x00	; 0
    2078:	3f ef       	ldi	r19, 0xFF	; 255
    207a:	4f e7       	ldi	r20, 0x7F	; 127
    207c:	57 e4       	ldi	r21, 0x47	; 71
    207e:	fc 01       	movw	r30, r24
    2080:	60 81       	ld	r22, Z
    2082:	71 81       	ldd	r23, Z+1	; 0x01
    2084:	82 81       	ldd	r24, Z+2	; 0x02
    2086:	93 81       	ldd	r25, Z+3	; 0x03
    2088:	0e 94 61 50 	call	0xa0c2	; 0xa0c2 <__gesf2>
    208c:	18 16       	cp	r1, r24
    208e:	0c f0       	brlt	.+2      	; 0x2092 <__DATA_REGION_LENGTH__+0x92>
    2090:	46 c0       	rjmp	.+140    	; 0x211e <__DATA_REGION_LENGTH__+0x11e>
    2092:	20 e0       	ldi	r18, 0x00	; 0
    2094:	30 e0       	ldi	r19, 0x00	; 0
    2096:	40 e2       	ldi	r20, 0x20	; 32
    2098:	51 e4       	ldi	r21, 0x41	; 65
    209a:	6f 85       	ldd	r22, Y+15	; 0x0f
    209c:	78 89       	ldd	r23, Y+16	; 0x10
    209e:	89 89       	ldd	r24, Y+17	; 0x11
    20a0:	9a 89       	ldd	r25, Y+18	; 0x12
    20a2:	0e 94 65 50 	call	0xa0ca	; 0xa0ca <__mulsf3>
    20a6:	dc 01       	movw	r26, r24
    20a8:	cb 01       	movw	r24, r22
    20aa:	8e 01       	movw	r16, r28
    20ac:	01 57       	subi	r16, 0x71	; 113
    20ae:	1e 4f       	sbci	r17, 0xFE	; 254
    20b0:	bc 01       	movw	r22, r24
    20b2:	cd 01       	movw	r24, r26
    20b4:	0e 94 e8 4f 	call	0x9fd0	; 0x9fd0 <__fixunssfsi>
    20b8:	dc 01       	movw	r26, r24
    20ba:	cb 01       	movw	r24, r22
    20bc:	f8 01       	movw	r30, r16
    20be:	91 83       	std	Z+1, r25	; 0x01
    20c0:	80 83       	st	Z, r24
    20c2:	24 c0       	rjmp	.+72     	; 0x210c <__DATA_REGION_LENGTH__+0x10c>
    20c4:	ce 01       	movw	r24, r28
    20c6:	8f 56       	subi	r24, 0x6F	; 111
    20c8:	9e 4f       	sbci	r25, 0xFE	; 254
    20ca:	20 e7       	ldi	r18, 0x70	; 112
    20cc:	31 e0       	ldi	r19, 0x01	; 1
    20ce:	fc 01       	movw	r30, r24
    20d0:	31 83       	std	Z+1, r19	; 0x01
    20d2:	20 83       	st	Z, r18
    20d4:	ce 01       	movw	r24, r28
    20d6:	8f 56       	subi	r24, 0x6F	; 111
    20d8:	9e 4f       	sbci	r25, 0xFE	; 254
    20da:	fc 01       	movw	r30, r24
    20dc:	80 81       	ld	r24, Z
    20de:	91 81       	ldd	r25, Z+1	; 0x01
    20e0:	01 97       	sbiw	r24, 0x01	; 1
    20e2:	f1 f7       	brne	.-4      	; 0x20e0 <__DATA_REGION_LENGTH__+0xe0>
    20e4:	9e 01       	movw	r18, r28
    20e6:	2f 56       	subi	r18, 0x6F	; 111
    20e8:	3e 4f       	sbci	r19, 0xFE	; 254
    20ea:	f9 01       	movw	r30, r18
    20ec:	91 83       	std	Z+1, r25	; 0x01
    20ee:	80 83       	st	Z, r24
    20f0:	ce 01       	movw	r24, r28
    20f2:	81 57       	subi	r24, 0x71	; 113
    20f4:	9e 4f       	sbci	r25, 0xFE	; 254
    20f6:	9e 01       	movw	r18, r28
    20f8:	21 57       	subi	r18, 0x71	; 113
    20fa:	3e 4f       	sbci	r19, 0xFE	; 254
    20fc:	f9 01       	movw	r30, r18
    20fe:	20 81       	ld	r18, Z
    2100:	31 81       	ldd	r19, Z+1	; 0x01
    2102:	21 50       	subi	r18, 0x01	; 1
    2104:	31 09       	sbc	r19, r1
    2106:	fc 01       	movw	r30, r24
    2108:	31 83       	std	Z+1, r19	; 0x01
    210a:	20 83       	st	Z, r18
    210c:	ce 01       	movw	r24, r28
    210e:	81 57       	subi	r24, 0x71	; 113
    2110:	9e 4f       	sbci	r25, 0xFE	; 254
    2112:	fc 01       	movw	r30, r24
    2114:	80 81       	ld	r24, Z
    2116:	91 81       	ldd	r25, Z+1	; 0x01
    2118:	89 2b       	or	r24, r25
    211a:	a1 f6       	brne	.-88     	; 0x20c4 <__DATA_REGION_LENGTH__+0xc4>
    211c:	2c c0       	rjmp	.+88     	; 0x2176 <__DATA_REGION_LENGTH__+0x176>
    211e:	8e 01       	movw	r16, r28
    2120:	01 57       	subi	r16, 0x71	; 113
    2122:	1e 4f       	sbci	r17, 0xFE	; 254
    2124:	ce 01       	movw	r24, r28
    2126:	85 57       	subi	r24, 0x75	; 117
    2128:	9e 4f       	sbci	r25, 0xFE	; 254
    212a:	fc 01       	movw	r30, r24
    212c:	60 81       	ld	r22, Z
    212e:	71 81       	ldd	r23, Z+1	; 0x01
    2130:	82 81       	ldd	r24, Z+2	; 0x02
    2132:	93 81       	ldd	r25, Z+3	; 0x03
    2134:	0e 94 e8 4f 	call	0x9fd0	; 0x9fd0 <__fixunssfsi>
    2138:	dc 01       	movw	r26, r24
    213a:	cb 01       	movw	r24, r22
    213c:	f8 01       	movw	r30, r16
    213e:	91 83       	std	Z+1, r25	; 0x01
    2140:	80 83       	st	Z, r24
    2142:	ce 01       	movw	r24, r28
    2144:	8d 56       	subi	r24, 0x6D	; 109
    2146:	9e 4f       	sbci	r25, 0xFE	; 254
    2148:	9e 01       	movw	r18, r28
    214a:	21 57       	subi	r18, 0x71	; 113
    214c:	3e 4f       	sbci	r19, 0xFE	; 254
    214e:	f9 01       	movw	r30, r18
    2150:	20 81       	ld	r18, Z
    2152:	31 81       	ldd	r19, Z+1	; 0x01
    2154:	fc 01       	movw	r30, r24
    2156:	31 83       	std	Z+1, r19	; 0x01
    2158:	20 83       	st	Z, r18
    215a:	ce 01       	movw	r24, r28
    215c:	8d 56       	subi	r24, 0x6D	; 109
    215e:	9e 4f       	sbci	r25, 0xFE	; 254
    2160:	fc 01       	movw	r30, r24
    2162:	80 81       	ld	r24, Z
    2164:	91 81       	ldd	r25, Z+1	; 0x01
    2166:	01 97       	sbiw	r24, 0x01	; 1
    2168:	f1 f7       	brne	.-4      	; 0x2166 <__DATA_REGION_LENGTH__+0x166>
    216a:	9e 01       	movw	r18, r28
    216c:	2d 56       	subi	r18, 0x6D	; 109
    216e:	3e 4f       	sbci	r19, 0xFE	; 254
    2170:	f9 01       	movw	r30, r18
    2172:	91 83       	std	Z+1, r25	; 0x01
    2174:	80 83       	st	Z, r24
    2176:	61 dc       	rcall	.-1854   	; 0x1a3a <buzzer_off>
    2178:	80 e0       	ldi	r24, 0x00	; 0
    217a:	90 e0       	ldi	r25, 0x00	; 0
    217c:	a8 e4       	ldi	r26, 0x48	; 72
    217e:	b2 e4       	ldi	r27, 0x42	; 66
    2180:	8b 8b       	std	Y+19, r24	; 0x13
    2182:	9c 8b       	std	Y+20, r25	; 0x14
    2184:	ad 8b       	std	Y+21, r26	; 0x15
    2186:	be 8b       	std	Y+22, r27	; 0x16
    2188:	8e 01       	movw	r16, r28
    218a:	0f 57       	subi	r16, 0x7F	; 127
    218c:	1e 4f       	sbci	r17, 0xFE	; 254
    218e:	26 e6       	ldi	r18, 0x66	; 102
    2190:	36 e6       	ldi	r19, 0x66	; 102
    2192:	46 e6       	ldi	r20, 0x66	; 102
    2194:	55 e4       	ldi	r21, 0x45	; 69
    2196:	6b 89       	ldd	r22, Y+19	; 0x13
    2198:	7c 89       	ldd	r23, Y+20	; 0x14
    219a:	8d 89       	ldd	r24, Y+21	; 0x15
    219c:	9e 89       	ldd	r25, Y+22	; 0x16
    219e:	0e 94 65 50 	call	0xa0ca	; 0xa0ca <__mulsf3>
    21a2:	dc 01       	movw	r26, r24
    21a4:	cb 01       	movw	r24, r22
    21a6:	f8 01       	movw	r30, r16
    21a8:	80 83       	st	Z, r24
    21aa:	91 83       	std	Z+1, r25	; 0x01
    21ac:	a2 83       	std	Z+2, r26	; 0x02
    21ae:	b3 83       	std	Z+3, r27	; 0x03
    21b0:	ce 01       	movw	r24, r28
    21b2:	8f 57       	subi	r24, 0x7F	; 127
    21b4:	9e 4f       	sbci	r25, 0xFE	; 254
    21b6:	20 e0       	ldi	r18, 0x00	; 0
    21b8:	30 e0       	ldi	r19, 0x00	; 0
    21ba:	40 e8       	ldi	r20, 0x80	; 128
    21bc:	5f e3       	ldi	r21, 0x3F	; 63
    21be:	fc 01       	movw	r30, r24
    21c0:	60 81       	ld	r22, Z
    21c2:	71 81       	ldd	r23, Z+1	; 0x01
    21c4:	82 81       	ldd	r24, Z+2	; 0x02
    21c6:	93 81       	ldd	r25, Z+3	; 0x03
    21c8:	0e 94 e4 4f 	call	0x9fc8	; 0x9fc8 <__cmpsf2>
    21cc:	88 23       	and	r24, r24
    21ce:	4c f4       	brge	.+18     	; 0x21e2 <__DATA_REGION_LENGTH__+0x1e2>
    21d0:	ce 01       	movw	r24, r28
    21d2:	8b 57       	subi	r24, 0x7B	; 123
    21d4:	9e 4f       	sbci	r25, 0xFE	; 254
    21d6:	21 e0       	ldi	r18, 0x01	; 1
    21d8:	30 e0       	ldi	r19, 0x00	; 0
    21da:	fc 01       	movw	r30, r24
    21dc:	31 83       	std	Z+1, r19	; 0x01
    21de:	20 83       	st	Z, r18
    21e0:	69 c0       	rjmp	.+210    	; 0x22b4 <__stack+0xb5>
    21e2:	ce 01       	movw	r24, r28
    21e4:	8f 57       	subi	r24, 0x7F	; 127
    21e6:	9e 4f       	sbci	r25, 0xFE	; 254
    21e8:	20 e0       	ldi	r18, 0x00	; 0
    21ea:	3f ef       	ldi	r19, 0xFF	; 255
    21ec:	4f e7       	ldi	r20, 0x7F	; 127
    21ee:	57 e4       	ldi	r21, 0x47	; 71
    21f0:	fc 01       	movw	r30, r24
    21f2:	60 81       	ld	r22, Z
    21f4:	71 81       	ldd	r23, Z+1	; 0x01
    21f6:	82 81       	ldd	r24, Z+2	; 0x02
    21f8:	93 81       	ldd	r25, Z+3	; 0x03
    21fa:	0e 94 61 50 	call	0xa0c2	; 0xa0c2 <__gesf2>
    21fe:	18 16       	cp	r1, r24
    2200:	0c f0       	brlt	.+2      	; 0x2204 <__stack+0x5>
    2202:	46 c0       	rjmp	.+140    	; 0x2290 <__stack+0x91>
    2204:	20 e0       	ldi	r18, 0x00	; 0
    2206:	30 e0       	ldi	r19, 0x00	; 0
    2208:	40 e2       	ldi	r20, 0x20	; 32
    220a:	51 e4       	ldi	r21, 0x41	; 65
    220c:	6b 89       	ldd	r22, Y+19	; 0x13
    220e:	7c 89       	ldd	r23, Y+20	; 0x14
    2210:	8d 89       	ldd	r24, Y+21	; 0x15
    2212:	9e 89       	ldd	r25, Y+22	; 0x16
    2214:	0e 94 65 50 	call	0xa0ca	; 0xa0ca <__mulsf3>
    2218:	dc 01       	movw	r26, r24
    221a:	cb 01       	movw	r24, r22
    221c:	8e 01       	movw	r16, r28
    221e:	0b 57       	subi	r16, 0x7B	; 123
    2220:	1e 4f       	sbci	r17, 0xFE	; 254
    2222:	bc 01       	movw	r22, r24
    2224:	cd 01       	movw	r24, r26
    2226:	0e 94 e8 4f 	call	0x9fd0	; 0x9fd0 <__fixunssfsi>
    222a:	dc 01       	movw	r26, r24
    222c:	cb 01       	movw	r24, r22
    222e:	f8 01       	movw	r30, r16
    2230:	91 83       	std	Z+1, r25	; 0x01
    2232:	80 83       	st	Z, r24
    2234:	24 c0       	rjmp	.+72     	; 0x227e <__stack+0x7f>
    2236:	ce 01       	movw	r24, r28
    2238:	89 57       	subi	r24, 0x79	; 121
    223a:	9e 4f       	sbci	r25, 0xFE	; 254
    223c:	20 e7       	ldi	r18, 0x70	; 112
    223e:	31 e0       	ldi	r19, 0x01	; 1
    2240:	fc 01       	movw	r30, r24
    2242:	31 83       	std	Z+1, r19	; 0x01
    2244:	20 83       	st	Z, r18
    2246:	ce 01       	movw	r24, r28
    2248:	89 57       	subi	r24, 0x79	; 121
    224a:	9e 4f       	sbci	r25, 0xFE	; 254
    224c:	fc 01       	movw	r30, r24
    224e:	80 81       	ld	r24, Z
    2250:	91 81       	ldd	r25, Z+1	; 0x01
    2252:	01 97       	sbiw	r24, 0x01	; 1
    2254:	f1 f7       	brne	.-4      	; 0x2252 <__stack+0x53>
    2256:	9e 01       	movw	r18, r28
    2258:	29 57       	subi	r18, 0x79	; 121
    225a:	3e 4f       	sbci	r19, 0xFE	; 254
    225c:	f9 01       	movw	r30, r18
    225e:	91 83       	std	Z+1, r25	; 0x01
    2260:	80 83       	st	Z, r24
    2262:	ce 01       	movw	r24, r28
    2264:	8b 57       	subi	r24, 0x7B	; 123
    2266:	9e 4f       	sbci	r25, 0xFE	; 254
    2268:	9e 01       	movw	r18, r28
    226a:	2b 57       	subi	r18, 0x7B	; 123
    226c:	3e 4f       	sbci	r19, 0xFE	; 254
    226e:	f9 01       	movw	r30, r18
    2270:	20 81       	ld	r18, Z
    2272:	31 81       	ldd	r19, Z+1	; 0x01
    2274:	21 50       	subi	r18, 0x01	; 1
    2276:	31 09       	sbc	r19, r1
    2278:	fc 01       	movw	r30, r24
    227a:	31 83       	std	Z+1, r19	; 0x01
    227c:	20 83       	st	Z, r18
    227e:	ce 01       	movw	r24, r28
    2280:	8b 57       	subi	r24, 0x7B	; 123
    2282:	9e 4f       	sbci	r25, 0xFE	; 254
    2284:	fc 01       	movw	r30, r24
    2286:	80 81       	ld	r24, Z
    2288:	91 81       	ldd	r25, Z+1	; 0x01
    228a:	89 2b       	or	r24, r25
    228c:	a1 f6       	brne	.-88     	; 0x2236 <__stack+0x37>
    228e:	2c c0       	rjmp	.+88     	; 0x22e8 <__stack+0xe9>
    2290:	8e 01       	movw	r16, r28
    2292:	0b 57       	subi	r16, 0x7B	; 123
    2294:	1e 4f       	sbci	r17, 0xFE	; 254
    2296:	ce 01       	movw	r24, r28
    2298:	8f 57       	subi	r24, 0x7F	; 127
    229a:	9e 4f       	sbci	r25, 0xFE	; 254
    229c:	fc 01       	movw	r30, r24
    229e:	60 81       	ld	r22, Z
    22a0:	71 81       	ldd	r23, Z+1	; 0x01
    22a2:	82 81       	ldd	r24, Z+2	; 0x02
    22a4:	93 81       	ldd	r25, Z+3	; 0x03
    22a6:	0e 94 e8 4f 	call	0x9fd0	; 0x9fd0 <__fixunssfsi>
    22aa:	dc 01       	movw	r26, r24
    22ac:	cb 01       	movw	r24, r22
    22ae:	f8 01       	movw	r30, r16
    22b0:	91 83       	std	Z+1, r25	; 0x01
    22b2:	80 83       	st	Z, r24
    22b4:	ce 01       	movw	r24, r28
    22b6:	87 57       	subi	r24, 0x77	; 119
    22b8:	9e 4f       	sbci	r25, 0xFE	; 254
    22ba:	9e 01       	movw	r18, r28
    22bc:	2b 57       	subi	r18, 0x7B	; 123
    22be:	3e 4f       	sbci	r19, 0xFE	; 254
    22c0:	f9 01       	movw	r30, r18
    22c2:	20 81       	ld	r18, Z
    22c4:	31 81       	ldd	r19, Z+1	; 0x01
    22c6:	fc 01       	movw	r30, r24
    22c8:	31 83       	std	Z+1, r19	; 0x01
    22ca:	20 83       	st	Z, r18
    22cc:	ce 01       	movw	r24, r28
    22ce:	87 57       	subi	r24, 0x77	; 119
    22d0:	9e 4f       	sbci	r25, 0xFE	; 254
    22d2:	fc 01       	movw	r30, r24
    22d4:	80 81       	ld	r24, Z
    22d6:	91 81       	ldd	r25, Z+1	; 0x01
    22d8:	01 97       	sbiw	r24, 0x01	; 1
    22da:	f1 f7       	brne	.-4      	; 0x22d8 <__stack+0xd9>
    22dc:	9e 01       	movw	r18, r28
    22de:	27 57       	subi	r18, 0x77	; 119
    22e0:	3e 4f       	sbci	r19, 0xFE	; 254
    22e2:	f9 01       	movw	r30, r18
    22e4:	91 83       	std	Z+1, r25	; 0x01
    22e6:	80 83       	st	Z, r24
    22e8:	97 db       	rcall	.-2258   	; 0x1a18 <buzzer_on>
    22ea:	80 e0       	ldi	r24, 0x00	; 0
    22ec:	90 e0       	ldi	r25, 0x00	; 0
    22ee:	a8 ec       	ldi	r26, 0xC8	; 200
    22f0:	b2 e4       	ldi	r27, 0x42	; 66
    22f2:	8f 8b       	std	Y+23, r24	; 0x17
    22f4:	98 8f       	std	Y+24, r25	; 0x18
    22f6:	a9 8f       	std	Y+25, r26	; 0x19
    22f8:	ba 8f       	std	Y+26, r27	; 0x1a
    22fa:	8e 01       	movw	r16, r28
    22fc:	09 58       	subi	r16, 0x89	; 137
    22fe:	1e 4f       	sbci	r17, 0xFE	; 254
    2300:	26 e6       	ldi	r18, 0x66	; 102
    2302:	36 e6       	ldi	r19, 0x66	; 102
    2304:	46 e6       	ldi	r20, 0x66	; 102
    2306:	55 e4       	ldi	r21, 0x45	; 69
    2308:	6f 89       	ldd	r22, Y+23	; 0x17
    230a:	78 8d       	ldd	r23, Y+24	; 0x18
    230c:	89 8d       	ldd	r24, Y+25	; 0x19
    230e:	9a 8d       	ldd	r25, Y+26	; 0x1a
    2310:	0e 94 65 50 	call	0xa0ca	; 0xa0ca <__mulsf3>
    2314:	dc 01       	movw	r26, r24
    2316:	cb 01       	movw	r24, r22
    2318:	f8 01       	movw	r30, r16
    231a:	80 83       	st	Z, r24
    231c:	91 83       	std	Z+1, r25	; 0x01
    231e:	a2 83       	std	Z+2, r26	; 0x02
    2320:	b3 83       	std	Z+3, r27	; 0x03
    2322:	ce 01       	movw	r24, r28
    2324:	89 58       	subi	r24, 0x89	; 137
    2326:	9e 4f       	sbci	r25, 0xFE	; 254
    2328:	20 e0       	ldi	r18, 0x00	; 0
    232a:	30 e0       	ldi	r19, 0x00	; 0
    232c:	40 e8       	ldi	r20, 0x80	; 128
    232e:	5f e3       	ldi	r21, 0x3F	; 63
    2330:	fc 01       	movw	r30, r24
    2332:	60 81       	ld	r22, Z
    2334:	71 81       	ldd	r23, Z+1	; 0x01
    2336:	82 81       	ldd	r24, Z+2	; 0x02
    2338:	93 81       	ldd	r25, Z+3	; 0x03
    233a:	0e 94 e4 4f 	call	0x9fc8	; 0x9fc8 <__cmpsf2>
    233e:	88 23       	and	r24, r24
    2340:	4c f4       	brge	.+18     	; 0x2354 <__stack+0x155>
    2342:	ce 01       	movw	r24, r28
    2344:	85 58       	subi	r24, 0x85	; 133
    2346:	9e 4f       	sbci	r25, 0xFE	; 254
    2348:	21 e0       	ldi	r18, 0x01	; 1
    234a:	30 e0       	ldi	r19, 0x00	; 0
    234c:	fc 01       	movw	r30, r24
    234e:	31 83       	std	Z+1, r19	; 0x01
    2350:	20 83       	st	Z, r18
    2352:	69 c0       	rjmp	.+210    	; 0x2426 <__stack+0x227>
    2354:	ce 01       	movw	r24, r28
    2356:	89 58       	subi	r24, 0x89	; 137
    2358:	9e 4f       	sbci	r25, 0xFE	; 254
    235a:	20 e0       	ldi	r18, 0x00	; 0
    235c:	3f ef       	ldi	r19, 0xFF	; 255
    235e:	4f e7       	ldi	r20, 0x7F	; 127
    2360:	57 e4       	ldi	r21, 0x47	; 71
    2362:	fc 01       	movw	r30, r24
    2364:	60 81       	ld	r22, Z
    2366:	71 81       	ldd	r23, Z+1	; 0x01
    2368:	82 81       	ldd	r24, Z+2	; 0x02
    236a:	93 81       	ldd	r25, Z+3	; 0x03
    236c:	0e 94 61 50 	call	0xa0c2	; 0xa0c2 <__gesf2>
    2370:	18 16       	cp	r1, r24
    2372:	0c f0       	brlt	.+2      	; 0x2376 <__stack+0x177>
    2374:	46 c0       	rjmp	.+140    	; 0x2402 <__stack+0x203>
    2376:	20 e0       	ldi	r18, 0x00	; 0
    2378:	30 e0       	ldi	r19, 0x00	; 0
    237a:	40 e2       	ldi	r20, 0x20	; 32
    237c:	51 e4       	ldi	r21, 0x41	; 65
    237e:	6f 89       	ldd	r22, Y+23	; 0x17
    2380:	78 8d       	ldd	r23, Y+24	; 0x18
    2382:	89 8d       	ldd	r24, Y+25	; 0x19
    2384:	9a 8d       	ldd	r25, Y+26	; 0x1a
    2386:	0e 94 65 50 	call	0xa0ca	; 0xa0ca <__mulsf3>
    238a:	dc 01       	movw	r26, r24
    238c:	cb 01       	movw	r24, r22
    238e:	8e 01       	movw	r16, r28
    2390:	05 58       	subi	r16, 0x85	; 133
    2392:	1e 4f       	sbci	r17, 0xFE	; 254
    2394:	bc 01       	movw	r22, r24
    2396:	cd 01       	movw	r24, r26
    2398:	0e 94 e8 4f 	call	0x9fd0	; 0x9fd0 <__fixunssfsi>
    239c:	dc 01       	movw	r26, r24
    239e:	cb 01       	movw	r24, r22
    23a0:	f8 01       	movw	r30, r16
    23a2:	91 83       	std	Z+1, r25	; 0x01
    23a4:	80 83       	st	Z, r24
    23a6:	24 c0       	rjmp	.+72     	; 0x23f0 <__stack+0x1f1>
    23a8:	ce 01       	movw	r24, r28
    23aa:	83 58       	subi	r24, 0x83	; 131
    23ac:	9e 4f       	sbci	r25, 0xFE	; 254
    23ae:	20 e7       	ldi	r18, 0x70	; 112
    23b0:	31 e0       	ldi	r19, 0x01	; 1
    23b2:	fc 01       	movw	r30, r24
    23b4:	31 83       	std	Z+1, r19	; 0x01
    23b6:	20 83       	st	Z, r18
    23b8:	ce 01       	movw	r24, r28
    23ba:	83 58       	subi	r24, 0x83	; 131
    23bc:	9e 4f       	sbci	r25, 0xFE	; 254
    23be:	fc 01       	movw	r30, r24
    23c0:	80 81       	ld	r24, Z
    23c2:	91 81       	ldd	r25, Z+1	; 0x01
    23c4:	01 97       	sbiw	r24, 0x01	; 1
    23c6:	f1 f7       	brne	.-4      	; 0x23c4 <__stack+0x1c5>
    23c8:	9e 01       	movw	r18, r28
    23ca:	23 58       	subi	r18, 0x83	; 131
    23cc:	3e 4f       	sbci	r19, 0xFE	; 254
    23ce:	f9 01       	movw	r30, r18
    23d0:	91 83       	std	Z+1, r25	; 0x01
    23d2:	80 83       	st	Z, r24
    23d4:	ce 01       	movw	r24, r28
    23d6:	85 58       	subi	r24, 0x85	; 133
    23d8:	9e 4f       	sbci	r25, 0xFE	; 254
    23da:	9e 01       	movw	r18, r28
    23dc:	25 58       	subi	r18, 0x85	; 133
    23de:	3e 4f       	sbci	r19, 0xFE	; 254
    23e0:	f9 01       	movw	r30, r18
    23e2:	20 81       	ld	r18, Z
    23e4:	31 81       	ldd	r19, Z+1	; 0x01
    23e6:	21 50       	subi	r18, 0x01	; 1
    23e8:	31 09       	sbc	r19, r1
    23ea:	fc 01       	movw	r30, r24
    23ec:	31 83       	std	Z+1, r19	; 0x01
    23ee:	20 83       	st	Z, r18
    23f0:	ce 01       	movw	r24, r28
    23f2:	85 58       	subi	r24, 0x85	; 133
    23f4:	9e 4f       	sbci	r25, 0xFE	; 254
    23f6:	fc 01       	movw	r30, r24
    23f8:	80 81       	ld	r24, Z
    23fa:	91 81       	ldd	r25, Z+1	; 0x01
    23fc:	89 2b       	or	r24, r25
    23fe:	a1 f6       	brne	.-88     	; 0x23a8 <__stack+0x1a9>
    2400:	2c c0       	rjmp	.+88     	; 0x245a <__stack+0x25b>
    2402:	8e 01       	movw	r16, r28
    2404:	05 58       	subi	r16, 0x85	; 133
    2406:	1e 4f       	sbci	r17, 0xFE	; 254
    2408:	ce 01       	movw	r24, r28
    240a:	89 58       	subi	r24, 0x89	; 137
    240c:	9e 4f       	sbci	r25, 0xFE	; 254
    240e:	fc 01       	movw	r30, r24
    2410:	60 81       	ld	r22, Z
    2412:	71 81       	ldd	r23, Z+1	; 0x01
    2414:	82 81       	ldd	r24, Z+2	; 0x02
    2416:	93 81       	ldd	r25, Z+3	; 0x03
    2418:	0e 94 e8 4f 	call	0x9fd0	; 0x9fd0 <__fixunssfsi>
    241c:	dc 01       	movw	r26, r24
    241e:	cb 01       	movw	r24, r22
    2420:	f8 01       	movw	r30, r16
    2422:	91 83       	std	Z+1, r25	; 0x01
    2424:	80 83       	st	Z, r24
    2426:	ce 01       	movw	r24, r28
    2428:	81 58       	subi	r24, 0x81	; 129
    242a:	9e 4f       	sbci	r25, 0xFE	; 254
    242c:	9e 01       	movw	r18, r28
    242e:	25 58       	subi	r18, 0x85	; 133
    2430:	3e 4f       	sbci	r19, 0xFE	; 254
    2432:	f9 01       	movw	r30, r18
    2434:	20 81       	ld	r18, Z
    2436:	31 81       	ldd	r19, Z+1	; 0x01
    2438:	fc 01       	movw	r30, r24
    243a:	31 83       	std	Z+1, r19	; 0x01
    243c:	20 83       	st	Z, r18
    243e:	ce 01       	movw	r24, r28
    2440:	81 58       	subi	r24, 0x81	; 129
    2442:	9e 4f       	sbci	r25, 0xFE	; 254
    2444:	fc 01       	movw	r30, r24
    2446:	80 81       	ld	r24, Z
    2448:	91 81       	ldd	r25, Z+1	; 0x01
    244a:	01 97       	sbiw	r24, 0x01	; 1
    244c:	f1 f7       	brne	.-4      	; 0x244a <__stack+0x24b>
    244e:	9e 01       	movw	r18, r28
    2450:	21 58       	subi	r18, 0x81	; 129
    2452:	3e 4f       	sbci	r19, 0xFE	; 254
    2454:	f9 01       	movw	r30, r18
    2456:	91 83       	std	Z+1, r25	; 0x01
    2458:	80 83       	st	Z, r24
    245a:	ef da       	rcall	.-2594   	; 0x1a3a <buzzer_off>
    245c:	80 e0       	ldi	r24, 0x00	; 0
    245e:	90 e0       	ldi	r25, 0x00	; 0
    2460:	a8 e4       	ldi	r26, 0x48	; 72
    2462:	b2 e4       	ldi	r27, 0x42	; 66
    2464:	8b 8f       	std	Y+27, r24	; 0x1b
    2466:	9c 8f       	std	Y+28, r25	; 0x1c
    2468:	ad 8f       	std	Y+29, r26	; 0x1d
    246a:	be 8f       	std	Y+30, r27	; 0x1e
    246c:	8e 01       	movw	r16, r28
    246e:	03 59       	subi	r16, 0x93	; 147
    2470:	1e 4f       	sbci	r17, 0xFE	; 254
    2472:	26 e6       	ldi	r18, 0x66	; 102
    2474:	36 e6       	ldi	r19, 0x66	; 102
    2476:	46 e6       	ldi	r20, 0x66	; 102
    2478:	55 e4       	ldi	r21, 0x45	; 69
    247a:	6b 8d       	ldd	r22, Y+27	; 0x1b
    247c:	7c 8d       	ldd	r23, Y+28	; 0x1c
    247e:	8d 8d       	ldd	r24, Y+29	; 0x1d
    2480:	9e 8d       	ldd	r25, Y+30	; 0x1e
    2482:	0e 94 65 50 	call	0xa0ca	; 0xa0ca <__mulsf3>
    2486:	dc 01       	movw	r26, r24
    2488:	cb 01       	movw	r24, r22
    248a:	f8 01       	movw	r30, r16
    248c:	80 83       	st	Z, r24
    248e:	91 83       	std	Z+1, r25	; 0x01
    2490:	a2 83       	std	Z+2, r26	; 0x02
    2492:	b3 83       	std	Z+3, r27	; 0x03
    2494:	ce 01       	movw	r24, r28
    2496:	83 59       	subi	r24, 0x93	; 147
    2498:	9e 4f       	sbci	r25, 0xFE	; 254
    249a:	20 e0       	ldi	r18, 0x00	; 0
    249c:	30 e0       	ldi	r19, 0x00	; 0
    249e:	40 e8       	ldi	r20, 0x80	; 128
    24a0:	5f e3       	ldi	r21, 0x3F	; 63
    24a2:	fc 01       	movw	r30, r24
    24a4:	60 81       	ld	r22, Z
    24a6:	71 81       	ldd	r23, Z+1	; 0x01
    24a8:	82 81       	ldd	r24, Z+2	; 0x02
    24aa:	93 81       	ldd	r25, Z+3	; 0x03
    24ac:	0e 94 e4 4f 	call	0x9fc8	; 0x9fc8 <__cmpsf2>
    24b0:	88 23       	and	r24, r24
    24b2:	4c f4       	brge	.+18     	; 0x24c6 <__stack+0x2c7>
    24b4:	ce 01       	movw	r24, r28
    24b6:	8f 58       	subi	r24, 0x8F	; 143
    24b8:	9e 4f       	sbci	r25, 0xFE	; 254
    24ba:	21 e0       	ldi	r18, 0x01	; 1
    24bc:	30 e0       	ldi	r19, 0x00	; 0
    24be:	fc 01       	movw	r30, r24
    24c0:	31 83       	std	Z+1, r19	; 0x01
    24c2:	20 83       	st	Z, r18
    24c4:	69 c0       	rjmp	.+210    	; 0x2598 <__stack+0x399>
    24c6:	ce 01       	movw	r24, r28
    24c8:	83 59       	subi	r24, 0x93	; 147
    24ca:	9e 4f       	sbci	r25, 0xFE	; 254
    24cc:	20 e0       	ldi	r18, 0x00	; 0
    24ce:	3f ef       	ldi	r19, 0xFF	; 255
    24d0:	4f e7       	ldi	r20, 0x7F	; 127
    24d2:	57 e4       	ldi	r21, 0x47	; 71
    24d4:	fc 01       	movw	r30, r24
    24d6:	60 81       	ld	r22, Z
    24d8:	71 81       	ldd	r23, Z+1	; 0x01
    24da:	82 81       	ldd	r24, Z+2	; 0x02
    24dc:	93 81       	ldd	r25, Z+3	; 0x03
    24de:	0e 94 61 50 	call	0xa0c2	; 0xa0c2 <__gesf2>
    24e2:	18 16       	cp	r1, r24
    24e4:	0c f0       	brlt	.+2      	; 0x24e8 <__stack+0x2e9>
    24e6:	46 c0       	rjmp	.+140    	; 0x2574 <__stack+0x375>
    24e8:	20 e0       	ldi	r18, 0x00	; 0
    24ea:	30 e0       	ldi	r19, 0x00	; 0
    24ec:	40 e2       	ldi	r20, 0x20	; 32
    24ee:	51 e4       	ldi	r21, 0x41	; 65
    24f0:	6b 8d       	ldd	r22, Y+27	; 0x1b
    24f2:	7c 8d       	ldd	r23, Y+28	; 0x1c
    24f4:	8d 8d       	ldd	r24, Y+29	; 0x1d
    24f6:	9e 8d       	ldd	r25, Y+30	; 0x1e
    24f8:	0e 94 65 50 	call	0xa0ca	; 0xa0ca <__mulsf3>
    24fc:	dc 01       	movw	r26, r24
    24fe:	cb 01       	movw	r24, r22
    2500:	8e 01       	movw	r16, r28
    2502:	0f 58       	subi	r16, 0x8F	; 143
    2504:	1e 4f       	sbci	r17, 0xFE	; 254
    2506:	bc 01       	movw	r22, r24
    2508:	cd 01       	movw	r24, r26
    250a:	0e 94 e8 4f 	call	0x9fd0	; 0x9fd0 <__fixunssfsi>
    250e:	dc 01       	movw	r26, r24
    2510:	cb 01       	movw	r24, r22
    2512:	f8 01       	movw	r30, r16
    2514:	91 83       	std	Z+1, r25	; 0x01
    2516:	80 83       	st	Z, r24
    2518:	24 c0       	rjmp	.+72     	; 0x2562 <__stack+0x363>
    251a:	ce 01       	movw	r24, r28
    251c:	8d 58       	subi	r24, 0x8D	; 141
    251e:	9e 4f       	sbci	r25, 0xFE	; 254
    2520:	20 e7       	ldi	r18, 0x70	; 112
    2522:	31 e0       	ldi	r19, 0x01	; 1
    2524:	fc 01       	movw	r30, r24
    2526:	31 83       	std	Z+1, r19	; 0x01
    2528:	20 83       	st	Z, r18
    252a:	ce 01       	movw	r24, r28
    252c:	8d 58       	subi	r24, 0x8D	; 141
    252e:	9e 4f       	sbci	r25, 0xFE	; 254
    2530:	fc 01       	movw	r30, r24
    2532:	80 81       	ld	r24, Z
    2534:	91 81       	ldd	r25, Z+1	; 0x01
    2536:	01 97       	sbiw	r24, 0x01	; 1
    2538:	f1 f7       	brne	.-4      	; 0x2536 <__stack+0x337>
    253a:	9e 01       	movw	r18, r28
    253c:	2d 58       	subi	r18, 0x8D	; 141
    253e:	3e 4f       	sbci	r19, 0xFE	; 254
    2540:	f9 01       	movw	r30, r18
    2542:	91 83       	std	Z+1, r25	; 0x01
    2544:	80 83       	st	Z, r24
    2546:	ce 01       	movw	r24, r28
    2548:	8f 58       	subi	r24, 0x8F	; 143
    254a:	9e 4f       	sbci	r25, 0xFE	; 254
    254c:	9e 01       	movw	r18, r28
    254e:	2f 58       	subi	r18, 0x8F	; 143
    2550:	3e 4f       	sbci	r19, 0xFE	; 254
    2552:	f9 01       	movw	r30, r18
    2554:	20 81       	ld	r18, Z
    2556:	31 81       	ldd	r19, Z+1	; 0x01
    2558:	21 50       	subi	r18, 0x01	; 1
    255a:	31 09       	sbc	r19, r1
    255c:	fc 01       	movw	r30, r24
    255e:	31 83       	std	Z+1, r19	; 0x01
    2560:	20 83       	st	Z, r18
    2562:	ce 01       	movw	r24, r28
    2564:	8f 58       	subi	r24, 0x8F	; 143
    2566:	9e 4f       	sbci	r25, 0xFE	; 254
    2568:	fc 01       	movw	r30, r24
    256a:	80 81       	ld	r24, Z
    256c:	91 81       	ldd	r25, Z+1	; 0x01
    256e:	89 2b       	or	r24, r25
    2570:	a1 f6       	brne	.-88     	; 0x251a <__stack+0x31b>
    2572:	2c c0       	rjmp	.+88     	; 0x25cc <__stack+0x3cd>
    2574:	8e 01       	movw	r16, r28
    2576:	0f 58       	subi	r16, 0x8F	; 143
    2578:	1e 4f       	sbci	r17, 0xFE	; 254
    257a:	ce 01       	movw	r24, r28
    257c:	83 59       	subi	r24, 0x93	; 147
    257e:	9e 4f       	sbci	r25, 0xFE	; 254
    2580:	fc 01       	movw	r30, r24
    2582:	60 81       	ld	r22, Z
    2584:	71 81       	ldd	r23, Z+1	; 0x01
    2586:	82 81       	ldd	r24, Z+2	; 0x02
    2588:	93 81       	ldd	r25, Z+3	; 0x03
    258a:	0e 94 e8 4f 	call	0x9fd0	; 0x9fd0 <__fixunssfsi>
    258e:	dc 01       	movw	r26, r24
    2590:	cb 01       	movw	r24, r22
    2592:	f8 01       	movw	r30, r16
    2594:	91 83       	std	Z+1, r25	; 0x01
    2596:	80 83       	st	Z, r24
    2598:	ce 01       	movw	r24, r28
    259a:	8b 58       	subi	r24, 0x8B	; 139
    259c:	9e 4f       	sbci	r25, 0xFE	; 254
    259e:	9e 01       	movw	r18, r28
    25a0:	2f 58       	subi	r18, 0x8F	; 143
    25a2:	3e 4f       	sbci	r19, 0xFE	; 254
    25a4:	f9 01       	movw	r30, r18
    25a6:	20 81       	ld	r18, Z
    25a8:	31 81       	ldd	r19, Z+1	; 0x01
    25aa:	fc 01       	movw	r30, r24
    25ac:	31 83       	std	Z+1, r19	; 0x01
    25ae:	20 83       	st	Z, r18
    25b0:	ce 01       	movw	r24, r28
    25b2:	8b 58       	subi	r24, 0x8B	; 139
    25b4:	9e 4f       	sbci	r25, 0xFE	; 254
    25b6:	fc 01       	movw	r30, r24
    25b8:	80 81       	ld	r24, Z
    25ba:	91 81       	ldd	r25, Z+1	; 0x01
    25bc:	01 97       	sbiw	r24, 0x01	; 1
    25be:	f1 f7       	brne	.-4      	; 0x25bc <__stack+0x3bd>
    25c0:	9e 01       	movw	r18, r28
    25c2:	2b 58       	subi	r18, 0x8B	; 139
    25c4:	3e 4f       	sbci	r19, 0xFE	; 254
    25c6:	f9 01       	movw	r30, r18
    25c8:	91 83       	std	Z+1, r25	; 0x01
    25ca:	80 83       	st	Z, r24
    25cc:	25 da       	rcall	.-2998   	; 0x1a18 <buzzer_on>
    25ce:	80 e0       	ldi	r24, 0x00	; 0
    25d0:	90 e0       	ldi	r25, 0x00	; 0
    25d2:	a8 ec       	ldi	r26, 0xC8	; 200
    25d4:	b2 e4       	ldi	r27, 0x42	; 66
    25d6:	8f 8f       	std	Y+31, r24	; 0x1f
    25d8:	98 a3       	std	Y+32, r25	; 0x20
    25da:	a9 a3       	std	Y+33, r26	; 0x21
    25dc:	ba a3       	std	Y+34, r27	; 0x22
    25de:	8e 01       	movw	r16, r28
    25e0:	0d 59       	subi	r16, 0x9D	; 157
    25e2:	1e 4f       	sbci	r17, 0xFE	; 254
    25e4:	26 e6       	ldi	r18, 0x66	; 102
    25e6:	36 e6       	ldi	r19, 0x66	; 102
    25e8:	46 e6       	ldi	r20, 0x66	; 102
    25ea:	55 e4       	ldi	r21, 0x45	; 69
    25ec:	6f 8d       	ldd	r22, Y+31	; 0x1f
    25ee:	78 a1       	ldd	r23, Y+32	; 0x20
    25f0:	89 a1       	ldd	r24, Y+33	; 0x21
    25f2:	9a a1       	ldd	r25, Y+34	; 0x22
    25f4:	0e 94 65 50 	call	0xa0ca	; 0xa0ca <__mulsf3>
    25f8:	dc 01       	movw	r26, r24
    25fa:	cb 01       	movw	r24, r22
    25fc:	f8 01       	movw	r30, r16
    25fe:	80 83       	st	Z, r24
    2600:	91 83       	std	Z+1, r25	; 0x01
    2602:	a2 83       	std	Z+2, r26	; 0x02
    2604:	b3 83       	std	Z+3, r27	; 0x03
    2606:	ce 01       	movw	r24, r28
    2608:	8d 59       	subi	r24, 0x9D	; 157
    260a:	9e 4f       	sbci	r25, 0xFE	; 254
    260c:	20 e0       	ldi	r18, 0x00	; 0
    260e:	30 e0       	ldi	r19, 0x00	; 0
    2610:	40 e8       	ldi	r20, 0x80	; 128
    2612:	5f e3       	ldi	r21, 0x3F	; 63
    2614:	fc 01       	movw	r30, r24
    2616:	60 81       	ld	r22, Z
    2618:	71 81       	ldd	r23, Z+1	; 0x01
    261a:	82 81       	ldd	r24, Z+2	; 0x02
    261c:	93 81       	ldd	r25, Z+3	; 0x03
    261e:	0e 94 e4 4f 	call	0x9fc8	; 0x9fc8 <__cmpsf2>
    2622:	88 23       	and	r24, r24
    2624:	4c f4       	brge	.+18     	; 0x2638 <__stack+0x439>
    2626:	ce 01       	movw	r24, r28
    2628:	89 59       	subi	r24, 0x99	; 153
    262a:	9e 4f       	sbci	r25, 0xFE	; 254
    262c:	21 e0       	ldi	r18, 0x01	; 1
    262e:	30 e0       	ldi	r19, 0x00	; 0
    2630:	fc 01       	movw	r30, r24
    2632:	31 83       	std	Z+1, r19	; 0x01
    2634:	20 83       	st	Z, r18
    2636:	69 c0       	rjmp	.+210    	; 0x270a <__stack+0x50b>
    2638:	ce 01       	movw	r24, r28
    263a:	8d 59       	subi	r24, 0x9D	; 157
    263c:	9e 4f       	sbci	r25, 0xFE	; 254
    263e:	20 e0       	ldi	r18, 0x00	; 0
    2640:	3f ef       	ldi	r19, 0xFF	; 255
    2642:	4f e7       	ldi	r20, 0x7F	; 127
    2644:	57 e4       	ldi	r21, 0x47	; 71
    2646:	fc 01       	movw	r30, r24
    2648:	60 81       	ld	r22, Z
    264a:	71 81       	ldd	r23, Z+1	; 0x01
    264c:	82 81       	ldd	r24, Z+2	; 0x02
    264e:	93 81       	ldd	r25, Z+3	; 0x03
    2650:	0e 94 61 50 	call	0xa0c2	; 0xa0c2 <__gesf2>
    2654:	18 16       	cp	r1, r24
    2656:	0c f0       	brlt	.+2      	; 0x265a <__stack+0x45b>
    2658:	46 c0       	rjmp	.+140    	; 0x26e6 <__stack+0x4e7>
    265a:	20 e0       	ldi	r18, 0x00	; 0
    265c:	30 e0       	ldi	r19, 0x00	; 0
    265e:	40 e2       	ldi	r20, 0x20	; 32
    2660:	51 e4       	ldi	r21, 0x41	; 65
    2662:	6f 8d       	ldd	r22, Y+31	; 0x1f
    2664:	78 a1       	ldd	r23, Y+32	; 0x20
    2666:	89 a1       	ldd	r24, Y+33	; 0x21
    2668:	9a a1       	ldd	r25, Y+34	; 0x22
    266a:	0e 94 65 50 	call	0xa0ca	; 0xa0ca <__mulsf3>
    266e:	dc 01       	movw	r26, r24
    2670:	cb 01       	movw	r24, r22
    2672:	8e 01       	movw	r16, r28
    2674:	09 59       	subi	r16, 0x99	; 153
    2676:	1e 4f       	sbci	r17, 0xFE	; 254
    2678:	bc 01       	movw	r22, r24
    267a:	cd 01       	movw	r24, r26
    267c:	0e 94 e8 4f 	call	0x9fd0	; 0x9fd0 <__fixunssfsi>
    2680:	dc 01       	movw	r26, r24
    2682:	cb 01       	movw	r24, r22
    2684:	f8 01       	movw	r30, r16
    2686:	91 83       	std	Z+1, r25	; 0x01
    2688:	80 83       	st	Z, r24
    268a:	24 c0       	rjmp	.+72     	; 0x26d4 <__stack+0x4d5>
    268c:	ce 01       	movw	r24, r28
    268e:	87 59       	subi	r24, 0x97	; 151
    2690:	9e 4f       	sbci	r25, 0xFE	; 254
    2692:	20 e7       	ldi	r18, 0x70	; 112
    2694:	31 e0       	ldi	r19, 0x01	; 1
    2696:	fc 01       	movw	r30, r24
    2698:	31 83       	std	Z+1, r19	; 0x01
    269a:	20 83       	st	Z, r18
    269c:	ce 01       	movw	r24, r28
    269e:	87 59       	subi	r24, 0x97	; 151
    26a0:	9e 4f       	sbci	r25, 0xFE	; 254
    26a2:	fc 01       	movw	r30, r24
    26a4:	80 81       	ld	r24, Z
    26a6:	91 81       	ldd	r25, Z+1	; 0x01
    26a8:	01 97       	sbiw	r24, 0x01	; 1
    26aa:	f1 f7       	brne	.-4      	; 0x26a8 <__stack+0x4a9>
    26ac:	9e 01       	movw	r18, r28
    26ae:	27 59       	subi	r18, 0x97	; 151
    26b0:	3e 4f       	sbci	r19, 0xFE	; 254
    26b2:	f9 01       	movw	r30, r18
    26b4:	91 83       	std	Z+1, r25	; 0x01
    26b6:	80 83       	st	Z, r24
    26b8:	ce 01       	movw	r24, r28
    26ba:	89 59       	subi	r24, 0x99	; 153
    26bc:	9e 4f       	sbci	r25, 0xFE	; 254
    26be:	9e 01       	movw	r18, r28
    26c0:	29 59       	subi	r18, 0x99	; 153
    26c2:	3e 4f       	sbci	r19, 0xFE	; 254
    26c4:	f9 01       	movw	r30, r18
    26c6:	20 81       	ld	r18, Z
    26c8:	31 81       	ldd	r19, Z+1	; 0x01
    26ca:	21 50       	subi	r18, 0x01	; 1
    26cc:	31 09       	sbc	r19, r1
    26ce:	fc 01       	movw	r30, r24
    26d0:	31 83       	std	Z+1, r19	; 0x01
    26d2:	20 83       	st	Z, r18
    26d4:	ce 01       	movw	r24, r28
    26d6:	89 59       	subi	r24, 0x99	; 153
    26d8:	9e 4f       	sbci	r25, 0xFE	; 254
    26da:	fc 01       	movw	r30, r24
    26dc:	80 81       	ld	r24, Z
    26de:	91 81       	ldd	r25, Z+1	; 0x01
    26e0:	89 2b       	or	r24, r25
    26e2:	a1 f6       	brne	.-88     	; 0x268c <__stack+0x48d>
    26e4:	2c c0       	rjmp	.+88     	; 0x273e <__stack+0x53f>
    26e6:	8e 01       	movw	r16, r28
    26e8:	09 59       	subi	r16, 0x99	; 153
    26ea:	1e 4f       	sbci	r17, 0xFE	; 254
    26ec:	ce 01       	movw	r24, r28
    26ee:	8d 59       	subi	r24, 0x9D	; 157
    26f0:	9e 4f       	sbci	r25, 0xFE	; 254
    26f2:	fc 01       	movw	r30, r24
    26f4:	60 81       	ld	r22, Z
    26f6:	71 81       	ldd	r23, Z+1	; 0x01
    26f8:	82 81       	ldd	r24, Z+2	; 0x02
    26fa:	93 81       	ldd	r25, Z+3	; 0x03
    26fc:	0e 94 e8 4f 	call	0x9fd0	; 0x9fd0 <__fixunssfsi>
    2700:	dc 01       	movw	r26, r24
    2702:	cb 01       	movw	r24, r22
    2704:	f8 01       	movw	r30, r16
    2706:	91 83       	std	Z+1, r25	; 0x01
    2708:	80 83       	st	Z, r24
    270a:	ce 01       	movw	r24, r28
    270c:	85 59       	subi	r24, 0x95	; 149
    270e:	9e 4f       	sbci	r25, 0xFE	; 254
    2710:	9e 01       	movw	r18, r28
    2712:	29 59       	subi	r18, 0x99	; 153
    2714:	3e 4f       	sbci	r19, 0xFE	; 254
    2716:	f9 01       	movw	r30, r18
    2718:	20 81       	ld	r18, Z
    271a:	31 81       	ldd	r19, Z+1	; 0x01
    271c:	fc 01       	movw	r30, r24
    271e:	31 83       	std	Z+1, r19	; 0x01
    2720:	20 83       	st	Z, r18
    2722:	ce 01       	movw	r24, r28
    2724:	85 59       	subi	r24, 0x95	; 149
    2726:	9e 4f       	sbci	r25, 0xFE	; 254
    2728:	fc 01       	movw	r30, r24
    272a:	80 81       	ld	r24, Z
    272c:	91 81       	ldd	r25, Z+1	; 0x01
    272e:	01 97       	sbiw	r24, 0x01	; 1
    2730:	f1 f7       	brne	.-4      	; 0x272e <__stack+0x52f>
    2732:	9e 01       	movw	r18, r28
    2734:	25 59       	subi	r18, 0x95	; 149
    2736:	3e 4f       	sbci	r19, 0xFE	; 254
    2738:	f9 01       	movw	r30, r18
    273a:	91 83       	std	Z+1, r25	; 0x01
    273c:	80 83       	st	Z, r24
    273e:	7d d9       	rcall	.-3334   	; 0x1a3a <buzzer_off>
    2740:	80 e0       	ldi	r24, 0x00	; 0
    2742:	90 e0       	ldi	r25, 0x00	; 0
    2744:	a8 e4       	ldi	r26, 0x48	; 72
    2746:	b2 e4       	ldi	r27, 0x42	; 66
    2748:	8b a3       	std	Y+35, r24	; 0x23
    274a:	9c a3       	std	Y+36, r25	; 0x24
    274c:	ad a3       	std	Y+37, r26	; 0x25
    274e:	be a3       	std	Y+38, r27	; 0x26
    2750:	8e 01       	movw	r16, r28
    2752:	07 5a       	subi	r16, 0xA7	; 167
    2754:	1e 4f       	sbci	r17, 0xFE	; 254
    2756:	26 e6       	ldi	r18, 0x66	; 102
    2758:	36 e6       	ldi	r19, 0x66	; 102
    275a:	46 e6       	ldi	r20, 0x66	; 102
    275c:	55 e4       	ldi	r21, 0x45	; 69
    275e:	6b a1       	ldd	r22, Y+35	; 0x23
    2760:	7c a1       	ldd	r23, Y+36	; 0x24
    2762:	8d a1       	ldd	r24, Y+37	; 0x25
    2764:	9e a1       	ldd	r25, Y+38	; 0x26
    2766:	0e 94 65 50 	call	0xa0ca	; 0xa0ca <__mulsf3>
    276a:	dc 01       	movw	r26, r24
    276c:	cb 01       	movw	r24, r22
    276e:	f8 01       	movw	r30, r16
    2770:	80 83       	st	Z, r24
    2772:	91 83       	std	Z+1, r25	; 0x01
    2774:	a2 83       	std	Z+2, r26	; 0x02
    2776:	b3 83       	std	Z+3, r27	; 0x03
    2778:	ce 01       	movw	r24, r28
    277a:	87 5a       	subi	r24, 0xA7	; 167
    277c:	9e 4f       	sbci	r25, 0xFE	; 254
    277e:	20 e0       	ldi	r18, 0x00	; 0
    2780:	30 e0       	ldi	r19, 0x00	; 0
    2782:	40 e8       	ldi	r20, 0x80	; 128
    2784:	5f e3       	ldi	r21, 0x3F	; 63
    2786:	fc 01       	movw	r30, r24
    2788:	60 81       	ld	r22, Z
    278a:	71 81       	ldd	r23, Z+1	; 0x01
    278c:	82 81       	ldd	r24, Z+2	; 0x02
    278e:	93 81       	ldd	r25, Z+3	; 0x03
    2790:	0e 94 e4 4f 	call	0x9fc8	; 0x9fc8 <__cmpsf2>
    2794:	88 23       	and	r24, r24
    2796:	4c f4       	brge	.+18     	; 0x27aa <__stack+0x5ab>
    2798:	ce 01       	movw	r24, r28
    279a:	83 5a       	subi	r24, 0xA3	; 163
    279c:	9e 4f       	sbci	r25, 0xFE	; 254
    279e:	21 e0       	ldi	r18, 0x01	; 1
    27a0:	30 e0       	ldi	r19, 0x00	; 0
    27a2:	fc 01       	movw	r30, r24
    27a4:	31 83       	std	Z+1, r19	; 0x01
    27a6:	20 83       	st	Z, r18
    27a8:	69 c0       	rjmp	.+210    	; 0x287c <__stack+0x67d>
    27aa:	ce 01       	movw	r24, r28
    27ac:	87 5a       	subi	r24, 0xA7	; 167
    27ae:	9e 4f       	sbci	r25, 0xFE	; 254
    27b0:	20 e0       	ldi	r18, 0x00	; 0
    27b2:	3f ef       	ldi	r19, 0xFF	; 255
    27b4:	4f e7       	ldi	r20, 0x7F	; 127
    27b6:	57 e4       	ldi	r21, 0x47	; 71
    27b8:	fc 01       	movw	r30, r24
    27ba:	60 81       	ld	r22, Z
    27bc:	71 81       	ldd	r23, Z+1	; 0x01
    27be:	82 81       	ldd	r24, Z+2	; 0x02
    27c0:	93 81       	ldd	r25, Z+3	; 0x03
    27c2:	0e 94 61 50 	call	0xa0c2	; 0xa0c2 <__gesf2>
    27c6:	18 16       	cp	r1, r24
    27c8:	0c f0       	brlt	.+2      	; 0x27cc <__stack+0x5cd>
    27ca:	46 c0       	rjmp	.+140    	; 0x2858 <__stack+0x659>
    27cc:	20 e0       	ldi	r18, 0x00	; 0
    27ce:	30 e0       	ldi	r19, 0x00	; 0
    27d0:	40 e2       	ldi	r20, 0x20	; 32
    27d2:	51 e4       	ldi	r21, 0x41	; 65
    27d4:	6b a1       	ldd	r22, Y+35	; 0x23
    27d6:	7c a1       	ldd	r23, Y+36	; 0x24
    27d8:	8d a1       	ldd	r24, Y+37	; 0x25
    27da:	9e a1       	ldd	r25, Y+38	; 0x26
    27dc:	0e 94 65 50 	call	0xa0ca	; 0xa0ca <__mulsf3>
    27e0:	dc 01       	movw	r26, r24
    27e2:	cb 01       	movw	r24, r22
    27e4:	8e 01       	movw	r16, r28
    27e6:	03 5a       	subi	r16, 0xA3	; 163
    27e8:	1e 4f       	sbci	r17, 0xFE	; 254
    27ea:	bc 01       	movw	r22, r24
    27ec:	cd 01       	movw	r24, r26
    27ee:	0e 94 e8 4f 	call	0x9fd0	; 0x9fd0 <__fixunssfsi>
    27f2:	dc 01       	movw	r26, r24
    27f4:	cb 01       	movw	r24, r22
    27f6:	f8 01       	movw	r30, r16
    27f8:	91 83       	std	Z+1, r25	; 0x01
    27fa:	80 83       	st	Z, r24
    27fc:	24 c0       	rjmp	.+72     	; 0x2846 <__stack+0x647>
    27fe:	ce 01       	movw	r24, r28
    2800:	81 5a       	subi	r24, 0xA1	; 161
    2802:	9e 4f       	sbci	r25, 0xFE	; 254
    2804:	20 e7       	ldi	r18, 0x70	; 112
    2806:	31 e0       	ldi	r19, 0x01	; 1
    2808:	fc 01       	movw	r30, r24
    280a:	31 83       	std	Z+1, r19	; 0x01
    280c:	20 83       	st	Z, r18
    280e:	ce 01       	movw	r24, r28
    2810:	81 5a       	subi	r24, 0xA1	; 161
    2812:	9e 4f       	sbci	r25, 0xFE	; 254
    2814:	fc 01       	movw	r30, r24
    2816:	80 81       	ld	r24, Z
    2818:	91 81       	ldd	r25, Z+1	; 0x01
    281a:	01 97       	sbiw	r24, 0x01	; 1
    281c:	f1 f7       	brne	.-4      	; 0x281a <__stack+0x61b>
    281e:	9e 01       	movw	r18, r28
    2820:	21 5a       	subi	r18, 0xA1	; 161
    2822:	3e 4f       	sbci	r19, 0xFE	; 254
    2824:	f9 01       	movw	r30, r18
    2826:	91 83       	std	Z+1, r25	; 0x01
    2828:	80 83       	st	Z, r24
    282a:	ce 01       	movw	r24, r28
    282c:	83 5a       	subi	r24, 0xA3	; 163
    282e:	9e 4f       	sbci	r25, 0xFE	; 254
    2830:	9e 01       	movw	r18, r28
    2832:	23 5a       	subi	r18, 0xA3	; 163
    2834:	3e 4f       	sbci	r19, 0xFE	; 254
    2836:	f9 01       	movw	r30, r18
    2838:	20 81       	ld	r18, Z
    283a:	31 81       	ldd	r19, Z+1	; 0x01
    283c:	21 50       	subi	r18, 0x01	; 1
    283e:	31 09       	sbc	r19, r1
    2840:	fc 01       	movw	r30, r24
    2842:	31 83       	std	Z+1, r19	; 0x01
    2844:	20 83       	st	Z, r18
    2846:	ce 01       	movw	r24, r28
    2848:	83 5a       	subi	r24, 0xA3	; 163
    284a:	9e 4f       	sbci	r25, 0xFE	; 254
    284c:	fc 01       	movw	r30, r24
    284e:	80 81       	ld	r24, Z
    2850:	91 81       	ldd	r25, Z+1	; 0x01
    2852:	89 2b       	or	r24, r25
    2854:	a1 f6       	brne	.-88     	; 0x27fe <__stack+0x5ff>
    2856:	2c c0       	rjmp	.+88     	; 0x28b0 <__stack+0x6b1>
    2858:	8e 01       	movw	r16, r28
    285a:	03 5a       	subi	r16, 0xA3	; 163
    285c:	1e 4f       	sbci	r17, 0xFE	; 254
    285e:	ce 01       	movw	r24, r28
    2860:	87 5a       	subi	r24, 0xA7	; 167
    2862:	9e 4f       	sbci	r25, 0xFE	; 254
    2864:	fc 01       	movw	r30, r24
    2866:	60 81       	ld	r22, Z
    2868:	71 81       	ldd	r23, Z+1	; 0x01
    286a:	82 81       	ldd	r24, Z+2	; 0x02
    286c:	93 81       	ldd	r25, Z+3	; 0x03
    286e:	0e 94 e8 4f 	call	0x9fd0	; 0x9fd0 <__fixunssfsi>
    2872:	dc 01       	movw	r26, r24
    2874:	cb 01       	movw	r24, r22
    2876:	f8 01       	movw	r30, r16
    2878:	91 83       	std	Z+1, r25	; 0x01
    287a:	80 83       	st	Z, r24
    287c:	ce 01       	movw	r24, r28
    287e:	8f 59       	subi	r24, 0x9F	; 159
    2880:	9e 4f       	sbci	r25, 0xFE	; 254
    2882:	9e 01       	movw	r18, r28
    2884:	23 5a       	subi	r18, 0xA3	; 163
    2886:	3e 4f       	sbci	r19, 0xFE	; 254
    2888:	f9 01       	movw	r30, r18
    288a:	20 81       	ld	r18, Z
    288c:	31 81       	ldd	r19, Z+1	; 0x01
    288e:	fc 01       	movw	r30, r24
    2890:	31 83       	std	Z+1, r19	; 0x01
    2892:	20 83       	st	Z, r18
    2894:	ce 01       	movw	r24, r28
    2896:	8f 59       	subi	r24, 0x9F	; 159
    2898:	9e 4f       	sbci	r25, 0xFE	; 254
    289a:	fc 01       	movw	r30, r24
    289c:	80 81       	ld	r24, Z
    289e:	91 81       	ldd	r25, Z+1	; 0x01
    28a0:	01 97       	sbiw	r24, 0x01	; 1
    28a2:	f1 f7       	brne	.-4      	; 0x28a0 <__stack+0x6a1>
    28a4:	9e 01       	movw	r18, r28
    28a6:	2f 59       	subi	r18, 0x9F	; 159
    28a8:	3e 4f       	sbci	r19, 0xFE	; 254
    28aa:	f9 01       	movw	r30, r18
    28ac:	91 83       	std	Z+1, r25	; 0x01
    28ae:	80 83       	st	Z, r24
    28b0:	33 da       	rcall	.-2970   	; 0x1d18 <forward>
    28b2:	80 e0       	ldi	r24, 0x00	; 0
    28b4:	90 e0       	ldi	r25, 0x00	; 0
    28b6:	a8 ec       	ldi	r26, 0xC8	; 200
    28b8:	b3 e4       	ldi	r27, 0x43	; 67
    28ba:	8f a3       	std	Y+39, r24	; 0x27
    28bc:	98 a7       	std	Y+40, r25	; 0x28
    28be:	a9 a7       	std	Y+41, r26	; 0x29
    28c0:	ba a7       	std	Y+42, r27	; 0x2a
    28c2:	8e 01       	movw	r16, r28
    28c4:	01 5b       	subi	r16, 0xB1	; 177
    28c6:	1e 4f       	sbci	r17, 0xFE	; 254
    28c8:	26 e6       	ldi	r18, 0x66	; 102
    28ca:	36 e6       	ldi	r19, 0x66	; 102
    28cc:	46 e6       	ldi	r20, 0x66	; 102
    28ce:	55 e4       	ldi	r21, 0x45	; 69
    28d0:	6f a1       	ldd	r22, Y+39	; 0x27
    28d2:	78 a5       	ldd	r23, Y+40	; 0x28
    28d4:	89 a5       	ldd	r24, Y+41	; 0x29
    28d6:	9a a5       	ldd	r25, Y+42	; 0x2a
    28d8:	0e 94 65 50 	call	0xa0ca	; 0xa0ca <__mulsf3>
    28dc:	dc 01       	movw	r26, r24
    28de:	cb 01       	movw	r24, r22
    28e0:	f8 01       	movw	r30, r16
    28e2:	80 83       	st	Z, r24
    28e4:	91 83       	std	Z+1, r25	; 0x01
    28e6:	a2 83       	std	Z+2, r26	; 0x02
    28e8:	b3 83       	std	Z+3, r27	; 0x03
    28ea:	ce 01       	movw	r24, r28
    28ec:	81 5b       	subi	r24, 0xB1	; 177
    28ee:	9e 4f       	sbci	r25, 0xFE	; 254
    28f0:	20 e0       	ldi	r18, 0x00	; 0
    28f2:	30 e0       	ldi	r19, 0x00	; 0
    28f4:	40 e8       	ldi	r20, 0x80	; 128
    28f6:	5f e3       	ldi	r21, 0x3F	; 63
    28f8:	fc 01       	movw	r30, r24
    28fa:	60 81       	ld	r22, Z
    28fc:	71 81       	ldd	r23, Z+1	; 0x01
    28fe:	82 81       	ldd	r24, Z+2	; 0x02
    2900:	93 81       	ldd	r25, Z+3	; 0x03
    2902:	0e 94 e4 4f 	call	0x9fc8	; 0x9fc8 <__cmpsf2>
    2906:	88 23       	and	r24, r24
    2908:	4c f4       	brge	.+18     	; 0x291c <__stack+0x71d>
    290a:	ce 01       	movw	r24, r28
    290c:	8d 5a       	subi	r24, 0xAD	; 173
    290e:	9e 4f       	sbci	r25, 0xFE	; 254
    2910:	21 e0       	ldi	r18, 0x01	; 1
    2912:	30 e0       	ldi	r19, 0x00	; 0
    2914:	fc 01       	movw	r30, r24
    2916:	31 83       	std	Z+1, r19	; 0x01
    2918:	20 83       	st	Z, r18
    291a:	69 c0       	rjmp	.+210    	; 0x29ee <__stack+0x7ef>
    291c:	ce 01       	movw	r24, r28
    291e:	81 5b       	subi	r24, 0xB1	; 177
    2920:	9e 4f       	sbci	r25, 0xFE	; 254
    2922:	20 e0       	ldi	r18, 0x00	; 0
    2924:	3f ef       	ldi	r19, 0xFF	; 255
    2926:	4f e7       	ldi	r20, 0x7F	; 127
    2928:	57 e4       	ldi	r21, 0x47	; 71
    292a:	fc 01       	movw	r30, r24
    292c:	60 81       	ld	r22, Z
    292e:	71 81       	ldd	r23, Z+1	; 0x01
    2930:	82 81       	ldd	r24, Z+2	; 0x02
    2932:	93 81       	ldd	r25, Z+3	; 0x03
    2934:	0e 94 61 50 	call	0xa0c2	; 0xa0c2 <__gesf2>
    2938:	18 16       	cp	r1, r24
    293a:	0c f0       	brlt	.+2      	; 0x293e <__stack+0x73f>
    293c:	46 c0       	rjmp	.+140    	; 0x29ca <__stack+0x7cb>
    293e:	20 e0       	ldi	r18, 0x00	; 0
    2940:	30 e0       	ldi	r19, 0x00	; 0
    2942:	40 e2       	ldi	r20, 0x20	; 32
    2944:	51 e4       	ldi	r21, 0x41	; 65
    2946:	6f a1       	ldd	r22, Y+39	; 0x27
    2948:	78 a5       	ldd	r23, Y+40	; 0x28
    294a:	89 a5       	ldd	r24, Y+41	; 0x29
    294c:	9a a5       	ldd	r25, Y+42	; 0x2a
    294e:	0e 94 65 50 	call	0xa0ca	; 0xa0ca <__mulsf3>
    2952:	dc 01       	movw	r26, r24
    2954:	cb 01       	movw	r24, r22
    2956:	8e 01       	movw	r16, r28
    2958:	0d 5a       	subi	r16, 0xAD	; 173
    295a:	1e 4f       	sbci	r17, 0xFE	; 254
    295c:	bc 01       	movw	r22, r24
    295e:	cd 01       	movw	r24, r26
    2960:	0e 94 e8 4f 	call	0x9fd0	; 0x9fd0 <__fixunssfsi>
    2964:	dc 01       	movw	r26, r24
    2966:	cb 01       	movw	r24, r22
    2968:	f8 01       	movw	r30, r16
    296a:	91 83       	std	Z+1, r25	; 0x01
    296c:	80 83       	st	Z, r24
    296e:	24 c0       	rjmp	.+72     	; 0x29b8 <__stack+0x7b9>
    2970:	ce 01       	movw	r24, r28
    2972:	8b 5a       	subi	r24, 0xAB	; 171
    2974:	9e 4f       	sbci	r25, 0xFE	; 254
    2976:	20 e7       	ldi	r18, 0x70	; 112
    2978:	31 e0       	ldi	r19, 0x01	; 1
    297a:	fc 01       	movw	r30, r24
    297c:	31 83       	std	Z+1, r19	; 0x01
    297e:	20 83       	st	Z, r18
    2980:	ce 01       	movw	r24, r28
    2982:	8b 5a       	subi	r24, 0xAB	; 171
    2984:	9e 4f       	sbci	r25, 0xFE	; 254
    2986:	fc 01       	movw	r30, r24
    2988:	80 81       	ld	r24, Z
    298a:	91 81       	ldd	r25, Z+1	; 0x01
    298c:	01 97       	sbiw	r24, 0x01	; 1
    298e:	f1 f7       	brne	.-4      	; 0x298c <__stack+0x78d>
    2990:	9e 01       	movw	r18, r28
    2992:	2b 5a       	subi	r18, 0xAB	; 171
    2994:	3e 4f       	sbci	r19, 0xFE	; 254
    2996:	f9 01       	movw	r30, r18
    2998:	91 83       	std	Z+1, r25	; 0x01
    299a:	80 83       	st	Z, r24
    299c:	ce 01       	movw	r24, r28
    299e:	8d 5a       	subi	r24, 0xAD	; 173
    29a0:	9e 4f       	sbci	r25, 0xFE	; 254
    29a2:	9e 01       	movw	r18, r28
    29a4:	2d 5a       	subi	r18, 0xAD	; 173
    29a6:	3e 4f       	sbci	r19, 0xFE	; 254
    29a8:	f9 01       	movw	r30, r18
    29aa:	20 81       	ld	r18, Z
    29ac:	31 81       	ldd	r19, Z+1	; 0x01
    29ae:	21 50       	subi	r18, 0x01	; 1
    29b0:	31 09       	sbc	r19, r1
    29b2:	fc 01       	movw	r30, r24
    29b4:	31 83       	std	Z+1, r19	; 0x01
    29b6:	20 83       	st	Z, r18
    29b8:	ce 01       	movw	r24, r28
    29ba:	8d 5a       	subi	r24, 0xAD	; 173
    29bc:	9e 4f       	sbci	r25, 0xFE	; 254
    29be:	fc 01       	movw	r30, r24
    29c0:	80 81       	ld	r24, Z
    29c2:	91 81       	ldd	r25, Z+1	; 0x01
    29c4:	89 2b       	or	r24, r25
    29c6:	a1 f6       	brne	.-88     	; 0x2970 <__stack+0x771>
    29c8:	2c c0       	rjmp	.+88     	; 0x2a22 <__stack+0x823>
    29ca:	8e 01       	movw	r16, r28
    29cc:	0d 5a       	subi	r16, 0xAD	; 173
    29ce:	1e 4f       	sbci	r17, 0xFE	; 254
    29d0:	ce 01       	movw	r24, r28
    29d2:	81 5b       	subi	r24, 0xB1	; 177
    29d4:	9e 4f       	sbci	r25, 0xFE	; 254
    29d6:	fc 01       	movw	r30, r24
    29d8:	60 81       	ld	r22, Z
    29da:	71 81       	ldd	r23, Z+1	; 0x01
    29dc:	82 81       	ldd	r24, Z+2	; 0x02
    29de:	93 81       	ldd	r25, Z+3	; 0x03
    29e0:	0e 94 e8 4f 	call	0x9fd0	; 0x9fd0 <__fixunssfsi>
    29e4:	dc 01       	movw	r26, r24
    29e6:	cb 01       	movw	r24, r22
    29e8:	f8 01       	movw	r30, r16
    29ea:	91 83       	std	Z+1, r25	; 0x01
    29ec:	80 83       	st	Z, r24
    29ee:	ce 01       	movw	r24, r28
    29f0:	89 5a       	subi	r24, 0xA9	; 169
    29f2:	9e 4f       	sbci	r25, 0xFE	; 254
    29f4:	9e 01       	movw	r18, r28
    29f6:	2d 5a       	subi	r18, 0xAD	; 173
    29f8:	3e 4f       	sbci	r19, 0xFE	; 254
    29fa:	f9 01       	movw	r30, r18
    29fc:	20 81       	ld	r18, Z
    29fe:	31 81       	ldd	r19, Z+1	; 0x01
    2a00:	fc 01       	movw	r30, r24
    2a02:	31 83       	std	Z+1, r19	; 0x01
    2a04:	20 83       	st	Z, r18
    2a06:	ce 01       	movw	r24, r28
    2a08:	89 5a       	subi	r24, 0xA9	; 169
    2a0a:	9e 4f       	sbci	r25, 0xFE	; 254
    2a0c:	fc 01       	movw	r30, r24
    2a0e:	80 81       	ld	r24, Z
    2a10:	91 81       	ldd	r25, Z+1	; 0x01
    2a12:	01 97       	sbiw	r24, 0x01	; 1
    2a14:	f1 f7       	brne	.-4      	; 0x2a12 <__stack+0x813>
    2a16:	9e 01       	movw	r18, r28
    2a18:	29 5a       	subi	r18, 0xA9	; 169
    2a1a:	3e 4f       	sbci	r19, 0xFE	; 254
    2a1c:	f9 01       	movw	r30, r18
    2a1e:	91 83       	std	Z+1, r25	; 0x01
    2a20:	80 83       	st	Z, r24
    2a22:	84 d9       	rcall	.-3320   	; 0x1d2c <left>
    2a24:	9e 01       	movw	r18, r28
    2a26:	2f 5b       	subi	r18, 0xBF	; 191
    2a28:	3e 4f       	sbci	r19, 0xFE	; 254
    2a2a:	80 e0       	ldi	r24, 0x00	; 0
    2a2c:	90 e0       	ldi	r25, 0x00	; 0
    2a2e:	a1 e6       	ldi	r26, 0x61	; 97
    2a30:	b4 e4       	ldi	r27, 0x44	; 68
    2a32:	f9 01       	movw	r30, r18
    2a34:	80 83       	st	Z, r24
    2a36:	91 83       	std	Z+1, r25	; 0x01
    2a38:	a2 83       	std	Z+2, r26	; 0x02
    2a3a:	b3 83       	std	Z+3, r27	; 0x03
    2a3c:	8e 01       	movw	r16, r28
    2a3e:	0b 5b       	subi	r16, 0xBB	; 187
    2a40:	1e 4f       	sbci	r17, 0xFE	; 254
    2a42:	ce 01       	movw	r24, r28
    2a44:	8f 5b       	subi	r24, 0xBF	; 191
    2a46:	9e 4f       	sbci	r25, 0xFE	; 254
    2a48:	26 e6       	ldi	r18, 0x66	; 102
    2a4a:	36 e6       	ldi	r19, 0x66	; 102
    2a4c:	46 e6       	ldi	r20, 0x66	; 102
    2a4e:	55 e4       	ldi	r21, 0x45	; 69
    2a50:	fc 01       	movw	r30, r24
    2a52:	60 81       	ld	r22, Z
    2a54:	71 81       	ldd	r23, Z+1	; 0x01
    2a56:	82 81       	ldd	r24, Z+2	; 0x02
    2a58:	93 81       	ldd	r25, Z+3	; 0x03
    2a5a:	0e 94 65 50 	call	0xa0ca	; 0xa0ca <__mulsf3>
    2a5e:	dc 01       	movw	r26, r24
    2a60:	cb 01       	movw	r24, r22
    2a62:	f8 01       	movw	r30, r16
    2a64:	80 83       	st	Z, r24
    2a66:	91 83       	std	Z+1, r25	; 0x01
    2a68:	a2 83       	std	Z+2, r26	; 0x02
    2a6a:	b3 83       	std	Z+3, r27	; 0x03
    2a6c:	ce 01       	movw	r24, r28
    2a6e:	8b 5b       	subi	r24, 0xBB	; 187
    2a70:	9e 4f       	sbci	r25, 0xFE	; 254
    2a72:	20 e0       	ldi	r18, 0x00	; 0
    2a74:	30 e0       	ldi	r19, 0x00	; 0
    2a76:	40 e8       	ldi	r20, 0x80	; 128
    2a78:	5f e3       	ldi	r21, 0x3F	; 63
    2a7a:	fc 01       	movw	r30, r24
    2a7c:	60 81       	ld	r22, Z
    2a7e:	71 81       	ldd	r23, Z+1	; 0x01
    2a80:	82 81       	ldd	r24, Z+2	; 0x02
    2a82:	93 81       	ldd	r25, Z+3	; 0x03
    2a84:	0e 94 e4 4f 	call	0x9fc8	; 0x9fc8 <__cmpsf2>
    2a88:	88 23       	and	r24, r24
    2a8a:	4c f4       	brge	.+18     	; 0x2a9e <__stack+0x89f>
    2a8c:	ce 01       	movw	r24, r28
    2a8e:	87 5b       	subi	r24, 0xB7	; 183
    2a90:	9e 4f       	sbci	r25, 0xFE	; 254
    2a92:	21 e0       	ldi	r18, 0x01	; 1
    2a94:	30 e0       	ldi	r19, 0x00	; 0
    2a96:	fc 01       	movw	r30, r24
    2a98:	31 83       	std	Z+1, r19	; 0x01
    2a9a:	20 83       	st	Z, r18
    2a9c:	6d c0       	rjmp	.+218    	; 0x2b78 <__stack+0x979>
    2a9e:	ce 01       	movw	r24, r28
    2aa0:	8b 5b       	subi	r24, 0xBB	; 187
    2aa2:	9e 4f       	sbci	r25, 0xFE	; 254
    2aa4:	20 e0       	ldi	r18, 0x00	; 0
    2aa6:	3f ef       	ldi	r19, 0xFF	; 255
    2aa8:	4f e7       	ldi	r20, 0x7F	; 127
    2aaa:	57 e4       	ldi	r21, 0x47	; 71
    2aac:	fc 01       	movw	r30, r24
    2aae:	60 81       	ld	r22, Z
    2ab0:	71 81       	ldd	r23, Z+1	; 0x01
    2ab2:	82 81       	ldd	r24, Z+2	; 0x02
    2ab4:	93 81       	ldd	r25, Z+3	; 0x03
    2ab6:	0e 94 61 50 	call	0xa0c2	; 0xa0c2 <__gesf2>
    2aba:	18 16       	cp	r1, r24
    2abc:	0c f0       	brlt	.+2      	; 0x2ac0 <__stack+0x8c1>
    2abe:	4a c0       	rjmp	.+148    	; 0x2b54 <__stack+0x955>
    2ac0:	ce 01       	movw	r24, r28
    2ac2:	8f 5b       	subi	r24, 0xBF	; 191
    2ac4:	9e 4f       	sbci	r25, 0xFE	; 254
    2ac6:	20 e0       	ldi	r18, 0x00	; 0
    2ac8:	30 e0       	ldi	r19, 0x00	; 0
    2aca:	40 e2       	ldi	r20, 0x20	; 32
    2acc:	51 e4       	ldi	r21, 0x41	; 65
    2ace:	fc 01       	movw	r30, r24
    2ad0:	60 81       	ld	r22, Z
    2ad2:	71 81       	ldd	r23, Z+1	; 0x01
    2ad4:	82 81       	ldd	r24, Z+2	; 0x02
    2ad6:	93 81       	ldd	r25, Z+3	; 0x03
    2ad8:	0e 94 65 50 	call	0xa0ca	; 0xa0ca <__mulsf3>
    2adc:	dc 01       	movw	r26, r24
    2ade:	cb 01       	movw	r24, r22
    2ae0:	8e 01       	movw	r16, r28
    2ae2:	07 5b       	subi	r16, 0xB7	; 183
    2ae4:	1e 4f       	sbci	r17, 0xFE	; 254
    2ae6:	bc 01       	movw	r22, r24
    2ae8:	cd 01       	movw	r24, r26
    2aea:	0e 94 e8 4f 	call	0x9fd0	; 0x9fd0 <__fixunssfsi>
    2aee:	dc 01       	movw	r26, r24
    2af0:	cb 01       	movw	r24, r22
    2af2:	f8 01       	movw	r30, r16
    2af4:	91 83       	std	Z+1, r25	; 0x01
    2af6:	80 83       	st	Z, r24
    2af8:	24 c0       	rjmp	.+72     	; 0x2b42 <__stack+0x943>
    2afa:	ce 01       	movw	r24, r28
    2afc:	85 5b       	subi	r24, 0xB5	; 181
    2afe:	9e 4f       	sbci	r25, 0xFE	; 254
    2b00:	20 e7       	ldi	r18, 0x70	; 112
    2b02:	31 e0       	ldi	r19, 0x01	; 1
    2b04:	fc 01       	movw	r30, r24
    2b06:	31 83       	std	Z+1, r19	; 0x01
    2b08:	20 83       	st	Z, r18
    2b0a:	ce 01       	movw	r24, r28
    2b0c:	85 5b       	subi	r24, 0xB5	; 181
    2b0e:	9e 4f       	sbci	r25, 0xFE	; 254
    2b10:	fc 01       	movw	r30, r24
    2b12:	80 81       	ld	r24, Z
    2b14:	91 81       	ldd	r25, Z+1	; 0x01
    2b16:	01 97       	sbiw	r24, 0x01	; 1
    2b18:	f1 f7       	brne	.-4      	; 0x2b16 <__stack+0x917>
    2b1a:	9e 01       	movw	r18, r28
    2b1c:	25 5b       	subi	r18, 0xB5	; 181
    2b1e:	3e 4f       	sbci	r19, 0xFE	; 254
    2b20:	f9 01       	movw	r30, r18
    2b22:	91 83       	std	Z+1, r25	; 0x01
    2b24:	80 83       	st	Z, r24
    2b26:	ce 01       	movw	r24, r28
    2b28:	87 5b       	subi	r24, 0xB7	; 183
    2b2a:	9e 4f       	sbci	r25, 0xFE	; 254
    2b2c:	9e 01       	movw	r18, r28
    2b2e:	27 5b       	subi	r18, 0xB7	; 183
    2b30:	3e 4f       	sbci	r19, 0xFE	; 254
    2b32:	f9 01       	movw	r30, r18
    2b34:	20 81       	ld	r18, Z
    2b36:	31 81       	ldd	r19, Z+1	; 0x01
    2b38:	21 50       	subi	r18, 0x01	; 1
    2b3a:	31 09       	sbc	r19, r1
    2b3c:	fc 01       	movw	r30, r24
    2b3e:	31 83       	std	Z+1, r19	; 0x01
    2b40:	20 83       	st	Z, r18
    2b42:	ce 01       	movw	r24, r28
    2b44:	87 5b       	subi	r24, 0xB7	; 183
    2b46:	9e 4f       	sbci	r25, 0xFE	; 254
    2b48:	fc 01       	movw	r30, r24
    2b4a:	80 81       	ld	r24, Z
    2b4c:	91 81       	ldd	r25, Z+1	; 0x01
    2b4e:	89 2b       	or	r24, r25
    2b50:	a1 f6       	brne	.-88     	; 0x2afa <__stack+0x8fb>
    2b52:	2c c0       	rjmp	.+88     	; 0x2bac <__stack+0x9ad>
    2b54:	8e 01       	movw	r16, r28
    2b56:	07 5b       	subi	r16, 0xB7	; 183
    2b58:	1e 4f       	sbci	r17, 0xFE	; 254
    2b5a:	ce 01       	movw	r24, r28
    2b5c:	8b 5b       	subi	r24, 0xBB	; 187
    2b5e:	9e 4f       	sbci	r25, 0xFE	; 254
    2b60:	fc 01       	movw	r30, r24
    2b62:	60 81       	ld	r22, Z
    2b64:	71 81       	ldd	r23, Z+1	; 0x01
    2b66:	82 81       	ldd	r24, Z+2	; 0x02
    2b68:	93 81       	ldd	r25, Z+3	; 0x03
    2b6a:	0e 94 e8 4f 	call	0x9fd0	; 0x9fd0 <__fixunssfsi>
    2b6e:	dc 01       	movw	r26, r24
    2b70:	cb 01       	movw	r24, r22
    2b72:	f8 01       	movw	r30, r16
    2b74:	91 83       	std	Z+1, r25	; 0x01
    2b76:	80 83       	st	Z, r24
    2b78:	ce 01       	movw	r24, r28
    2b7a:	83 5b       	subi	r24, 0xB3	; 179
    2b7c:	9e 4f       	sbci	r25, 0xFE	; 254
    2b7e:	9e 01       	movw	r18, r28
    2b80:	27 5b       	subi	r18, 0xB7	; 183
    2b82:	3e 4f       	sbci	r19, 0xFE	; 254
    2b84:	f9 01       	movw	r30, r18
    2b86:	20 81       	ld	r18, Z
    2b88:	31 81       	ldd	r19, Z+1	; 0x01
    2b8a:	fc 01       	movw	r30, r24
    2b8c:	31 83       	std	Z+1, r19	; 0x01
    2b8e:	20 83       	st	Z, r18
    2b90:	ce 01       	movw	r24, r28
    2b92:	83 5b       	subi	r24, 0xB3	; 179
    2b94:	9e 4f       	sbci	r25, 0xFE	; 254
    2b96:	fc 01       	movw	r30, r24
    2b98:	80 81       	ld	r24, Z
    2b9a:	91 81       	ldd	r25, Z+1	; 0x01
    2b9c:	01 97       	sbiw	r24, 0x01	; 1
    2b9e:	f1 f7       	brne	.-4      	; 0x2b9c <__stack+0x99d>
    2ba0:	9e 01       	movw	r18, r28
    2ba2:	23 5b       	subi	r18, 0xB3	; 179
    2ba4:	3e 4f       	sbci	r19, 0xFE	; 254
    2ba6:	f9 01       	movw	r30, r18
    2ba8:	91 83       	std	Z+1, r25	; 0x01
    2baa:	80 83       	st	Z, r24
    2bac:	d3 d8       	rcall	.-3674   	; 0x1d54 <stop>
    2bae:	84 e6       	ldi	r24, 0x64	; 100
    2bb0:	90 e0       	ldi	r25, 0x00	; 0
    2bb2:	9a 83       	std	Y+2, r25	; 0x02
    2bb4:	89 83       	std	Y+1, r24	; 0x01
    2bb6:	89 81       	ldd	r24, Y+1	; 0x01
    2bb8:	9a 81       	ldd	r25, Y+2	; 0x02
    2bba:	03 97       	sbiw	r24, 0x03	; 3
    2bbc:	09 f0       	breq	.+2      	; 0x2bc0 <__stack+0x9c1>
    2bbe:	32 c4       	rjmp	.+2148   	; 0x3424 <__stack+0x1225>
    2bc0:	8b 81       	ldd	r24, Y+3	; 0x03
    2bc2:	9c 81       	ldd	r25, Y+4	; 0x04
    2bc4:	03 97       	sbiw	r24, 0x03	; 3
    2bc6:	09 f4       	brne	.+2      	; 0x2bca <__stack+0x9cb>
    2bc8:	1d ca       	rjmp	.-3014   	; 0x2004 <__DATA_REGION_LENGTH__+0x4>
    2bca:	2c c4       	rjmp	.+2136   	; 0x3424 <__stack+0x1225>
    2bcc:	83 e0       	ldi	r24, 0x03	; 3
    2bce:	09 d8       	rcall	.-4078   	; 0x1be2 <ADC_Conversion>
    2bd0:	80 93 33 02 	sts	0x0233, r24	; 0x800233 <Left_white_line>
    2bd4:	82 e0       	ldi	r24, 0x02	; 2
    2bd6:	05 d8       	rcall	.-4086   	; 0x1be2 <ADC_Conversion>
    2bd8:	80 93 34 02 	sts	0x0234, r24	; 0x800234 <Center_white_line>
    2bdc:	81 e0       	ldi	r24, 0x01	; 1
    2bde:	01 d8       	rcall	.-4094   	; 0x1be2 <ADC_Conversion>
    2be0:	80 93 35 02 	sts	0x0235, r24	; 0x800235 <Right_white_line>
    2be4:	10 92 32 02 	sts	0x0232, r1	; 0x800232 <__data_end>
    2be8:	43 e0       	ldi	r20, 0x03	; 3
    2bea:	61 e0       	ldi	r22, 0x01	; 1
    2bec:	81 e0       	ldi	r24, 0x01	; 1
    2bee:	3d d8       	rcall	.-3974   	; 0x1c6a <print_sensor>
    2bf0:	42 e0       	ldi	r20, 0x02	; 2
    2bf2:	65 e0       	ldi	r22, 0x05	; 5
    2bf4:	81 e0       	ldi	r24, 0x01	; 1
    2bf6:	39 d8       	rcall	.-3982   	; 0x1c6a <print_sensor>
    2bf8:	41 e0       	ldi	r20, 0x01	; 1
    2bfa:	69 e0       	ldi	r22, 0x09	; 9
    2bfc:	81 e0       	ldi	r24, 0x01	; 1
    2bfe:	35 d8       	rcall	.-3990   	; 0x1c6a <print_sensor>
    2c00:	89 81       	ldd	r24, Y+1	; 0x01
    2c02:	9a 81       	ldd	r25, Y+2	; 0x02
    2c04:	22 e0       	ldi	r18, 0x02	; 2
    2c06:	30 e0       	ldi	r19, 0x00	; 0
    2c08:	ac 01       	movw	r20, r24
    2c0a:	67 e0       	ldi	r22, 0x07	; 7
    2c0c:	82 e0       	ldi	r24, 0x02	; 2
    2c0e:	0e 94 f7 09 	call	0x13ee	; 0x13ee <lcd_print>
    2c12:	80 91 34 02 	lds	r24, 0x0234	; 0x800234 <Center_white_line>
    2c16:	88 30       	cpi	r24, 0x08	; 8
    2c18:	38 f0       	brcs	.+14     	; 0x2c28 <__stack+0xa29>
    2c1a:	81 e0       	ldi	r24, 0x01	; 1
    2c1c:	80 93 32 02 	sts	0x0232, r24	; 0x800232 <__data_end>
    2c20:	7b d8       	rcall	.-3850   	; 0x1d18 <forward>
    2c22:	60 ea       	ldi	r22, 0xA0	; 160
    2c24:	80 ea       	ldi	r24, 0xA0	; 160
    2c26:	3e d8       	rcall	.-3972   	; 0x1ca4 <velocity>
    2c28:	80 91 33 02 	lds	r24, 0x0233	; 0x800233 <Left_white_line>
    2c2c:	87 30       	cpi	r24, 0x07	; 7
    2c2e:	58 f4       	brcc	.+22     	; 0x2c46 <__stack+0xa47>
    2c30:	80 91 32 02 	lds	r24, 0x0232	; 0x800232 <__data_end>
    2c34:	88 23       	and	r24, r24
    2c36:	39 f4       	brne	.+14     	; 0x2c46 <__stack+0xa47>
    2c38:	81 e0       	ldi	r24, 0x01	; 1
    2c3a:	80 93 32 02 	sts	0x0232, r24	; 0x800232 <__data_end>
    2c3e:	6c d8       	rcall	.-3880   	; 0x1d18 <forward>
    2c40:	62 e3       	ldi	r22, 0x32	; 50
    2c42:	82 e8       	ldi	r24, 0x82	; 130
    2c44:	2f d8       	rcall	.-4002   	; 0x1ca4 <velocity>
    2c46:	80 91 35 02 	lds	r24, 0x0235	; 0x800235 <Right_white_line>
    2c4a:	88 30       	cpi	r24, 0x08	; 8
    2c4c:	58 f4       	brcc	.+22     	; 0x2c64 <__stack+0xa65>
    2c4e:	80 91 32 02 	lds	r24, 0x0232	; 0x800232 <__data_end>
    2c52:	88 23       	and	r24, r24
    2c54:	39 f4       	brne	.+14     	; 0x2c64 <__stack+0xa65>
    2c56:	81 e0       	ldi	r24, 0x01	; 1
    2c58:	80 93 32 02 	sts	0x0232, r24	; 0x800232 <__data_end>
    2c5c:	5d d8       	rcall	.-3910   	; 0x1d18 <forward>
    2c5e:	62 e8       	ldi	r22, 0x82	; 130
    2c60:	82 e3       	ldi	r24, 0x32	; 50
    2c62:	20 d8       	rcall	.-4032   	; 0x1ca4 <velocity>
    2c64:	80 91 34 02 	lds	r24, 0x0234	; 0x800234 <Center_white_line>
    2c68:	87 30       	cpi	r24, 0x07	; 7
    2c6a:	08 f0       	brcs	.+2      	; 0x2c6e <__stack+0xa6f>
    2c6c:	c6 c0       	rjmp	.+396    	; 0x2dfa <__stack+0xbfb>
    2c6e:	80 91 33 02 	lds	r24, 0x0233	; 0x800233 <Left_white_line>
    2c72:	87 30       	cpi	r24, 0x07	; 7
    2c74:	08 f0       	brcs	.+2      	; 0x2c78 <__stack+0xa79>
    2c76:	c1 c0       	rjmp	.+386    	; 0x2dfa <__stack+0xbfb>
    2c78:	80 91 35 02 	lds	r24, 0x0235	; 0x800235 <Right_white_line>
    2c7c:	87 30       	cpi	r24, 0x07	; 7
    2c7e:	08 f0       	brcs	.+2      	; 0x2c82 <__stack+0xa83>
    2c80:	bc c0       	rjmp	.+376    	; 0x2dfa <__stack+0xbfb>
    2c82:	4a d8       	rcall	.-3948   	; 0x1d18 <forward>
    2c84:	60 ea       	ldi	r22, 0xA0	; 160
    2c86:	80 ea       	ldi	r24, 0xA0	; 160
    2c88:	0d d8       	rcall	.-4070   	; 0x1ca4 <velocity>
    2c8a:	80 e0       	ldi	r24, 0x00	; 0
    2c8c:	90 e0       	ldi	r25, 0x00	; 0
    2c8e:	aa ef       	ldi	r26, 0xFA	; 250
    2c90:	b3 e4       	ldi	r27, 0x43	; 67
    2c92:	8b 87       	std	Y+11, r24	; 0x0b
    2c94:	9c 87       	std	Y+12, r25	; 0x0c
    2c96:	ad 87       	std	Y+13, r26	; 0x0d
    2c98:	be 87       	std	Y+14, r27	; 0x0e
    2c9a:	8e 01       	movw	r16, r28
    2c9c:	0b 56       	subi	r16, 0x6B	; 107
    2c9e:	1e 4f       	sbci	r17, 0xFE	; 254
    2ca0:	26 e6       	ldi	r18, 0x66	; 102
    2ca2:	36 e6       	ldi	r19, 0x66	; 102
    2ca4:	46 e6       	ldi	r20, 0x66	; 102
    2ca6:	55 e4       	ldi	r21, 0x45	; 69
    2ca8:	6b 85       	ldd	r22, Y+11	; 0x0b
    2caa:	7c 85       	ldd	r23, Y+12	; 0x0c
    2cac:	8d 85       	ldd	r24, Y+13	; 0x0d
    2cae:	9e 85       	ldd	r25, Y+14	; 0x0e
    2cb0:	0e 94 65 50 	call	0xa0ca	; 0xa0ca <__mulsf3>
    2cb4:	dc 01       	movw	r26, r24
    2cb6:	cb 01       	movw	r24, r22
    2cb8:	f8 01       	movw	r30, r16
    2cba:	80 83       	st	Z, r24
    2cbc:	91 83       	std	Z+1, r25	; 0x01
    2cbe:	a2 83       	std	Z+2, r26	; 0x02
    2cc0:	b3 83       	std	Z+3, r27	; 0x03
    2cc2:	ce 01       	movw	r24, r28
    2cc4:	8b 56       	subi	r24, 0x6B	; 107
    2cc6:	9e 4f       	sbci	r25, 0xFE	; 254
    2cc8:	20 e0       	ldi	r18, 0x00	; 0
    2cca:	30 e0       	ldi	r19, 0x00	; 0
    2ccc:	40 e8       	ldi	r20, 0x80	; 128
    2cce:	5f e3       	ldi	r21, 0x3F	; 63
    2cd0:	fc 01       	movw	r30, r24
    2cd2:	60 81       	ld	r22, Z
    2cd4:	71 81       	ldd	r23, Z+1	; 0x01
    2cd6:	82 81       	ldd	r24, Z+2	; 0x02
    2cd8:	93 81       	ldd	r25, Z+3	; 0x03
    2cda:	0e 94 e4 4f 	call	0x9fc8	; 0x9fc8 <__cmpsf2>
    2cde:	88 23       	and	r24, r24
    2ce0:	4c f4       	brge	.+18     	; 0x2cf4 <__stack+0xaf5>
    2ce2:	ce 01       	movw	r24, r28
    2ce4:	87 56       	subi	r24, 0x67	; 103
    2ce6:	9e 4f       	sbci	r25, 0xFE	; 254
    2ce8:	21 e0       	ldi	r18, 0x01	; 1
    2cea:	30 e0       	ldi	r19, 0x00	; 0
    2cec:	fc 01       	movw	r30, r24
    2cee:	31 83       	std	Z+1, r19	; 0x01
    2cf0:	20 83       	st	Z, r18
    2cf2:	69 c0       	rjmp	.+210    	; 0x2dc6 <__stack+0xbc7>
    2cf4:	ce 01       	movw	r24, r28
    2cf6:	8b 56       	subi	r24, 0x6B	; 107
    2cf8:	9e 4f       	sbci	r25, 0xFE	; 254
    2cfa:	20 e0       	ldi	r18, 0x00	; 0
    2cfc:	3f ef       	ldi	r19, 0xFF	; 255
    2cfe:	4f e7       	ldi	r20, 0x7F	; 127
    2d00:	57 e4       	ldi	r21, 0x47	; 71
    2d02:	fc 01       	movw	r30, r24
    2d04:	60 81       	ld	r22, Z
    2d06:	71 81       	ldd	r23, Z+1	; 0x01
    2d08:	82 81       	ldd	r24, Z+2	; 0x02
    2d0a:	93 81       	ldd	r25, Z+3	; 0x03
    2d0c:	0e 94 61 50 	call	0xa0c2	; 0xa0c2 <__gesf2>
    2d10:	18 16       	cp	r1, r24
    2d12:	0c f0       	brlt	.+2      	; 0x2d16 <__stack+0xb17>
    2d14:	46 c0       	rjmp	.+140    	; 0x2da2 <__stack+0xba3>
    2d16:	20 e0       	ldi	r18, 0x00	; 0
    2d18:	30 e0       	ldi	r19, 0x00	; 0
    2d1a:	40 e2       	ldi	r20, 0x20	; 32
    2d1c:	51 e4       	ldi	r21, 0x41	; 65
    2d1e:	6b 85       	ldd	r22, Y+11	; 0x0b
    2d20:	7c 85       	ldd	r23, Y+12	; 0x0c
    2d22:	8d 85       	ldd	r24, Y+13	; 0x0d
    2d24:	9e 85       	ldd	r25, Y+14	; 0x0e
    2d26:	0e 94 65 50 	call	0xa0ca	; 0xa0ca <__mulsf3>
    2d2a:	dc 01       	movw	r26, r24
    2d2c:	cb 01       	movw	r24, r22
    2d2e:	8e 01       	movw	r16, r28
    2d30:	07 56       	subi	r16, 0x67	; 103
    2d32:	1e 4f       	sbci	r17, 0xFE	; 254
    2d34:	bc 01       	movw	r22, r24
    2d36:	cd 01       	movw	r24, r26
    2d38:	0e 94 e8 4f 	call	0x9fd0	; 0x9fd0 <__fixunssfsi>
    2d3c:	dc 01       	movw	r26, r24
    2d3e:	cb 01       	movw	r24, r22
    2d40:	f8 01       	movw	r30, r16
    2d42:	91 83       	std	Z+1, r25	; 0x01
    2d44:	80 83       	st	Z, r24
    2d46:	24 c0       	rjmp	.+72     	; 0x2d90 <__stack+0xb91>
    2d48:	ce 01       	movw	r24, r28
    2d4a:	85 56       	subi	r24, 0x65	; 101
    2d4c:	9e 4f       	sbci	r25, 0xFE	; 254
    2d4e:	20 e7       	ldi	r18, 0x70	; 112
    2d50:	31 e0       	ldi	r19, 0x01	; 1
    2d52:	fc 01       	movw	r30, r24
    2d54:	31 83       	std	Z+1, r19	; 0x01
    2d56:	20 83       	st	Z, r18
    2d58:	ce 01       	movw	r24, r28
    2d5a:	85 56       	subi	r24, 0x65	; 101
    2d5c:	9e 4f       	sbci	r25, 0xFE	; 254
    2d5e:	fc 01       	movw	r30, r24
    2d60:	80 81       	ld	r24, Z
    2d62:	91 81       	ldd	r25, Z+1	; 0x01
    2d64:	01 97       	sbiw	r24, 0x01	; 1
    2d66:	f1 f7       	brne	.-4      	; 0x2d64 <__stack+0xb65>
    2d68:	9e 01       	movw	r18, r28
    2d6a:	25 56       	subi	r18, 0x65	; 101
    2d6c:	3e 4f       	sbci	r19, 0xFE	; 254
    2d6e:	f9 01       	movw	r30, r18
    2d70:	91 83       	std	Z+1, r25	; 0x01
    2d72:	80 83       	st	Z, r24
    2d74:	ce 01       	movw	r24, r28
    2d76:	87 56       	subi	r24, 0x67	; 103
    2d78:	9e 4f       	sbci	r25, 0xFE	; 254
    2d7a:	9e 01       	movw	r18, r28
    2d7c:	27 56       	subi	r18, 0x67	; 103
    2d7e:	3e 4f       	sbci	r19, 0xFE	; 254
    2d80:	f9 01       	movw	r30, r18
    2d82:	20 81       	ld	r18, Z
    2d84:	31 81       	ldd	r19, Z+1	; 0x01
    2d86:	21 50       	subi	r18, 0x01	; 1
    2d88:	31 09       	sbc	r19, r1
    2d8a:	fc 01       	movw	r30, r24
    2d8c:	31 83       	std	Z+1, r19	; 0x01
    2d8e:	20 83       	st	Z, r18
    2d90:	ce 01       	movw	r24, r28
    2d92:	87 56       	subi	r24, 0x67	; 103
    2d94:	9e 4f       	sbci	r25, 0xFE	; 254
    2d96:	fc 01       	movw	r30, r24
    2d98:	80 81       	ld	r24, Z
    2d9a:	91 81       	ldd	r25, Z+1	; 0x01
    2d9c:	89 2b       	or	r24, r25
    2d9e:	a1 f6       	brne	.-88     	; 0x2d48 <__stack+0xb49>
    2da0:	2c c0       	rjmp	.+88     	; 0x2dfa <__stack+0xbfb>
    2da2:	8e 01       	movw	r16, r28
    2da4:	07 56       	subi	r16, 0x67	; 103
    2da6:	1e 4f       	sbci	r17, 0xFE	; 254
    2da8:	ce 01       	movw	r24, r28
    2daa:	8b 56       	subi	r24, 0x6B	; 107
    2dac:	9e 4f       	sbci	r25, 0xFE	; 254
    2dae:	fc 01       	movw	r30, r24
    2db0:	60 81       	ld	r22, Z
    2db2:	71 81       	ldd	r23, Z+1	; 0x01
    2db4:	82 81       	ldd	r24, Z+2	; 0x02
    2db6:	93 81       	ldd	r25, Z+3	; 0x03
    2db8:	0e 94 e8 4f 	call	0x9fd0	; 0x9fd0 <__fixunssfsi>
    2dbc:	dc 01       	movw	r26, r24
    2dbe:	cb 01       	movw	r24, r22
    2dc0:	f8 01       	movw	r30, r16
    2dc2:	91 83       	std	Z+1, r25	; 0x01
    2dc4:	80 83       	st	Z, r24
    2dc6:	ce 01       	movw	r24, r28
    2dc8:	83 56       	subi	r24, 0x63	; 99
    2dca:	9e 4f       	sbci	r25, 0xFE	; 254
    2dcc:	9e 01       	movw	r18, r28
    2dce:	27 56       	subi	r18, 0x67	; 103
    2dd0:	3e 4f       	sbci	r19, 0xFE	; 254
    2dd2:	f9 01       	movw	r30, r18
    2dd4:	20 81       	ld	r18, Z
    2dd6:	31 81       	ldd	r19, Z+1	; 0x01
    2dd8:	fc 01       	movw	r30, r24
    2dda:	31 83       	std	Z+1, r19	; 0x01
    2ddc:	20 83       	st	Z, r18
    2dde:	ce 01       	movw	r24, r28
    2de0:	83 56       	subi	r24, 0x63	; 99
    2de2:	9e 4f       	sbci	r25, 0xFE	; 254
    2de4:	fc 01       	movw	r30, r24
    2de6:	80 81       	ld	r24, Z
    2de8:	91 81       	ldd	r25, Z+1	; 0x01
    2dea:	01 97       	sbiw	r24, 0x01	; 1
    2dec:	f1 f7       	brne	.-4      	; 0x2dea <__stack+0xbeb>
    2dee:	9e 01       	movw	r18, r28
    2df0:	23 56       	subi	r18, 0x63	; 99
    2df2:	3e 4f       	sbci	r19, 0xFE	; 254
    2df4:	f9 01       	movw	r30, r18
    2df6:	91 83       	std	Z+1, r25	; 0x01
    2df8:	80 83       	st	Z, r24
    2dfa:	80 91 34 02 	lds	r24, 0x0234	; 0x800234 <Center_white_line>
    2dfe:	88 30       	cpi	r24, 0x08	; 8
    2e00:	08 f4       	brcc	.+2      	; 0x2e04 <__stack+0xc05>
    2e02:	10 c3       	rjmp	.+1568   	; 0x3424 <__stack+0x1225>
    2e04:	80 91 33 02 	lds	r24, 0x0233	; 0x800233 <Left_white_line>
    2e08:	88 30       	cpi	r24, 0x08	; 8
    2e0a:	08 f4       	brcc	.+2      	; 0x2e0e <__stack+0xc0f>
    2e0c:	0b c3       	rjmp	.+1558   	; 0x3424 <__stack+0x1225>
    2e0e:	80 91 35 02 	lds	r24, 0x0235	; 0x800235 <Right_white_line>
    2e12:	88 30       	cpi	r24, 0x08	; 8
    2e14:	08 f4       	brcc	.+2      	; 0x2e18 <__stack+0xc19>
    2e16:	06 c3       	rjmp	.+1548   	; 0x3424 <__stack+0x1225>
    2e18:	81 e1       	ldi	r24, 0x11	; 17
    2e1a:	90 e0       	ldi	r25, 0x00	; 0
    2e1c:	9a 83       	std	Y+2, r25	; 0x02
    2e1e:	89 83       	std	Y+1, r24	; 0x01
    2e20:	89 81       	ldd	r24, Y+1	; 0x01
    2e22:	9a 81       	ldd	r25, Y+2	; 0x02
    2e24:	22 e0       	ldi	r18, 0x02	; 2
    2e26:	30 e0       	ldi	r19, 0x00	; 0
    2e28:	ac 01       	movw	r20, r24
    2e2a:	67 e0       	ldi	r22, 0x07	; 7
    2e2c:	82 e0       	ldi	r24, 0x02	; 2
    2e2e:	0e 94 f7 09 	call	0x13ee	; 0x13ee <lcd_print>
    2e32:	81 e1       	ldi	r24, 0x11	; 17
    2e34:	90 e0       	ldi	r25, 0x00	; 0
    2e36:	9c 83       	std	Y+4, r25	; 0x04
    2e38:	8b 83       	std	Y+3, r24	; 0x03
    2e3a:	8b 81       	ldd	r24, Y+3	; 0x03
    2e3c:	9c 81       	ldd	r25, Y+4	; 0x04
    2e3e:	22 e0       	ldi	r18, 0x02	; 2
    2e40:	30 e0       	ldi	r19, 0x00	; 0
    2e42:	ac 01       	movw	r20, r24
    2e44:	61 e0       	ldi	r22, 0x01	; 1
    2e46:	82 e0       	ldi	r24, 0x02	; 2
    2e48:	0e 94 f7 09 	call	0x13ee	; 0x13ee <lcd_print>
    2e4c:	0e 94 0c 0d 	call	0x1a18	; 0x1a18 <buzzer_on>
    2e50:	80 e0       	ldi	r24, 0x00	; 0
    2e52:	90 e0       	ldi	r25, 0x00	; 0
    2e54:	a8 ec       	ldi	r26, 0xC8	; 200
    2e56:	b2 e4       	ldi	r27, 0x42	; 66
    2e58:	8b ab       	std	Y+51, r24	; 0x33
    2e5a:	9c ab       	std	Y+52, r25	; 0x34
    2e5c:	ad ab       	std	Y+53, r26	; 0x35
    2e5e:	be ab       	std	Y+54, r27	; 0x36
    2e60:	8e 01       	movw	r16, r28
    2e62:	03 54       	subi	r16, 0x43	; 67
    2e64:	1e 4f       	sbci	r17, 0xFE	; 254
    2e66:	26 e6       	ldi	r18, 0x66	; 102
    2e68:	36 e6       	ldi	r19, 0x66	; 102
    2e6a:	46 e6       	ldi	r20, 0x66	; 102
    2e6c:	55 e4       	ldi	r21, 0x45	; 69
    2e6e:	6b a9       	ldd	r22, Y+51	; 0x33
    2e70:	7c a9       	ldd	r23, Y+52	; 0x34
    2e72:	8d a9       	ldd	r24, Y+53	; 0x35
    2e74:	9e a9       	ldd	r25, Y+54	; 0x36
    2e76:	0e 94 65 50 	call	0xa0ca	; 0xa0ca <__mulsf3>
    2e7a:	dc 01       	movw	r26, r24
    2e7c:	cb 01       	movw	r24, r22
    2e7e:	f8 01       	movw	r30, r16
    2e80:	80 83       	st	Z, r24
    2e82:	91 83       	std	Z+1, r25	; 0x01
    2e84:	a2 83       	std	Z+2, r26	; 0x02
    2e86:	b3 83       	std	Z+3, r27	; 0x03
    2e88:	ce 01       	movw	r24, r28
    2e8a:	83 54       	subi	r24, 0x43	; 67
    2e8c:	9e 4f       	sbci	r25, 0xFE	; 254
    2e8e:	20 e0       	ldi	r18, 0x00	; 0
    2e90:	30 e0       	ldi	r19, 0x00	; 0
    2e92:	40 e8       	ldi	r20, 0x80	; 128
    2e94:	5f e3       	ldi	r21, 0x3F	; 63
    2e96:	fc 01       	movw	r30, r24
    2e98:	60 81       	ld	r22, Z
    2e9a:	71 81       	ldd	r23, Z+1	; 0x01
    2e9c:	82 81       	ldd	r24, Z+2	; 0x02
    2e9e:	93 81       	ldd	r25, Z+3	; 0x03
    2ea0:	0e 94 e4 4f 	call	0x9fc8	; 0x9fc8 <__cmpsf2>
    2ea4:	88 23       	and	r24, r24
    2ea6:	4c f4       	brge	.+18     	; 0x2eba <__stack+0xcbb>
    2ea8:	ce 01       	movw	r24, r28
    2eaa:	8f 53       	subi	r24, 0x3F	; 63
    2eac:	9e 4f       	sbci	r25, 0xFE	; 254
    2eae:	21 e0       	ldi	r18, 0x01	; 1
    2eb0:	30 e0       	ldi	r19, 0x00	; 0
    2eb2:	fc 01       	movw	r30, r24
    2eb4:	31 83       	std	Z+1, r19	; 0x01
    2eb6:	20 83       	st	Z, r18
    2eb8:	69 c0       	rjmp	.+210    	; 0x2f8c <__stack+0xd8d>
    2eba:	ce 01       	movw	r24, r28
    2ebc:	83 54       	subi	r24, 0x43	; 67
    2ebe:	9e 4f       	sbci	r25, 0xFE	; 254
    2ec0:	20 e0       	ldi	r18, 0x00	; 0
    2ec2:	3f ef       	ldi	r19, 0xFF	; 255
    2ec4:	4f e7       	ldi	r20, 0x7F	; 127
    2ec6:	57 e4       	ldi	r21, 0x47	; 71
    2ec8:	fc 01       	movw	r30, r24
    2eca:	60 81       	ld	r22, Z
    2ecc:	71 81       	ldd	r23, Z+1	; 0x01
    2ece:	82 81       	ldd	r24, Z+2	; 0x02
    2ed0:	93 81       	ldd	r25, Z+3	; 0x03
    2ed2:	0e 94 61 50 	call	0xa0c2	; 0xa0c2 <__gesf2>
    2ed6:	18 16       	cp	r1, r24
    2ed8:	0c f0       	brlt	.+2      	; 0x2edc <__stack+0xcdd>
    2eda:	46 c0       	rjmp	.+140    	; 0x2f68 <__stack+0xd69>
    2edc:	20 e0       	ldi	r18, 0x00	; 0
    2ede:	30 e0       	ldi	r19, 0x00	; 0
    2ee0:	40 e2       	ldi	r20, 0x20	; 32
    2ee2:	51 e4       	ldi	r21, 0x41	; 65
    2ee4:	6b a9       	ldd	r22, Y+51	; 0x33
    2ee6:	7c a9       	ldd	r23, Y+52	; 0x34
    2ee8:	8d a9       	ldd	r24, Y+53	; 0x35
    2eea:	9e a9       	ldd	r25, Y+54	; 0x36
    2eec:	0e 94 65 50 	call	0xa0ca	; 0xa0ca <__mulsf3>
    2ef0:	dc 01       	movw	r26, r24
    2ef2:	cb 01       	movw	r24, r22
    2ef4:	8e 01       	movw	r16, r28
    2ef6:	0f 53       	subi	r16, 0x3F	; 63
    2ef8:	1e 4f       	sbci	r17, 0xFE	; 254
    2efa:	bc 01       	movw	r22, r24
    2efc:	cd 01       	movw	r24, r26
    2efe:	0e 94 e8 4f 	call	0x9fd0	; 0x9fd0 <__fixunssfsi>
    2f02:	dc 01       	movw	r26, r24
    2f04:	cb 01       	movw	r24, r22
    2f06:	f8 01       	movw	r30, r16
    2f08:	91 83       	std	Z+1, r25	; 0x01
    2f0a:	80 83       	st	Z, r24
    2f0c:	24 c0       	rjmp	.+72     	; 0x2f56 <__stack+0xd57>
    2f0e:	ce 01       	movw	r24, r28
    2f10:	8d 53       	subi	r24, 0x3D	; 61
    2f12:	9e 4f       	sbci	r25, 0xFE	; 254
    2f14:	20 e7       	ldi	r18, 0x70	; 112
    2f16:	31 e0       	ldi	r19, 0x01	; 1
    2f18:	fc 01       	movw	r30, r24
    2f1a:	31 83       	std	Z+1, r19	; 0x01
    2f1c:	20 83       	st	Z, r18
    2f1e:	ce 01       	movw	r24, r28
    2f20:	8d 53       	subi	r24, 0x3D	; 61
    2f22:	9e 4f       	sbci	r25, 0xFE	; 254
    2f24:	fc 01       	movw	r30, r24
    2f26:	80 81       	ld	r24, Z
    2f28:	91 81       	ldd	r25, Z+1	; 0x01
    2f2a:	01 97       	sbiw	r24, 0x01	; 1
    2f2c:	f1 f7       	brne	.-4      	; 0x2f2a <__stack+0xd2b>
    2f2e:	9e 01       	movw	r18, r28
    2f30:	2d 53       	subi	r18, 0x3D	; 61
    2f32:	3e 4f       	sbci	r19, 0xFE	; 254
    2f34:	f9 01       	movw	r30, r18
    2f36:	91 83       	std	Z+1, r25	; 0x01
    2f38:	80 83       	st	Z, r24
    2f3a:	ce 01       	movw	r24, r28
    2f3c:	8f 53       	subi	r24, 0x3F	; 63
    2f3e:	9e 4f       	sbci	r25, 0xFE	; 254
    2f40:	9e 01       	movw	r18, r28
    2f42:	2f 53       	subi	r18, 0x3F	; 63
    2f44:	3e 4f       	sbci	r19, 0xFE	; 254
    2f46:	f9 01       	movw	r30, r18
    2f48:	20 81       	ld	r18, Z
    2f4a:	31 81       	ldd	r19, Z+1	; 0x01
    2f4c:	21 50       	subi	r18, 0x01	; 1
    2f4e:	31 09       	sbc	r19, r1
    2f50:	fc 01       	movw	r30, r24
    2f52:	31 83       	std	Z+1, r19	; 0x01
    2f54:	20 83       	st	Z, r18
    2f56:	ce 01       	movw	r24, r28
    2f58:	8f 53       	subi	r24, 0x3F	; 63
    2f5a:	9e 4f       	sbci	r25, 0xFE	; 254
    2f5c:	fc 01       	movw	r30, r24
    2f5e:	80 81       	ld	r24, Z
    2f60:	91 81       	ldd	r25, Z+1	; 0x01
    2f62:	89 2b       	or	r24, r25
    2f64:	a1 f6       	brne	.-88     	; 0x2f0e <__stack+0xd0f>
    2f66:	2c c0       	rjmp	.+88     	; 0x2fc0 <__stack+0xdc1>
    2f68:	8e 01       	movw	r16, r28
    2f6a:	0f 53       	subi	r16, 0x3F	; 63
    2f6c:	1e 4f       	sbci	r17, 0xFE	; 254
    2f6e:	ce 01       	movw	r24, r28
    2f70:	83 54       	subi	r24, 0x43	; 67
    2f72:	9e 4f       	sbci	r25, 0xFE	; 254
    2f74:	fc 01       	movw	r30, r24
    2f76:	60 81       	ld	r22, Z
    2f78:	71 81       	ldd	r23, Z+1	; 0x01
    2f7a:	82 81       	ldd	r24, Z+2	; 0x02
    2f7c:	93 81       	ldd	r25, Z+3	; 0x03
    2f7e:	0e 94 e8 4f 	call	0x9fd0	; 0x9fd0 <__fixunssfsi>
    2f82:	dc 01       	movw	r26, r24
    2f84:	cb 01       	movw	r24, r22
    2f86:	f8 01       	movw	r30, r16
    2f88:	91 83       	std	Z+1, r25	; 0x01
    2f8a:	80 83       	st	Z, r24
    2f8c:	ce 01       	movw	r24, r28
    2f8e:	8b 53       	subi	r24, 0x3B	; 59
    2f90:	9e 4f       	sbci	r25, 0xFE	; 254
    2f92:	9e 01       	movw	r18, r28
    2f94:	2f 53       	subi	r18, 0x3F	; 63
    2f96:	3e 4f       	sbci	r19, 0xFE	; 254
    2f98:	f9 01       	movw	r30, r18
    2f9a:	20 81       	ld	r18, Z
    2f9c:	31 81       	ldd	r19, Z+1	; 0x01
    2f9e:	fc 01       	movw	r30, r24
    2fa0:	31 83       	std	Z+1, r19	; 0x01
    2fa2:	20 83       	st	Z, r18
    2fa4:	ce 01       	movw	r24, r28
    2fa6:	8b 53       	subi	r24, 0x3B	; 59
    2fa8:	9e 4f       	sbci	r25, 0xFE	; 254
    2faa:	fc 01       	movw	r30, r24
    2fac:	80 81       	ld	r24, Z
    2fae:	91 81       	ldd	r25, Z+1	; 0x01
    2fb0:	01 97       	sbiw	r24, 0x01	; 1
    2fb2:	f1 f7       	brne	.-4      	; 0x2fb0 <__stack+0xdb1>
    2fb4:	9e 01       	movw	r18, r28
    2fb6:	2b 53       	subi	r18, 0x3B	; 59
    2fb8:	3e 4f       	sbci	r19, 0xFE	; 254
    2fba:	f9 01       	movw	r30, r18
    2fbc:	91 83       	std	Z+1, r25	; 0x01
    2fbe:	80 83       	st	Z, r24
    2fc0:	0e 94 1d 0d 	call	0x1a3a	; 0x1a3a <buzzer_off>
    2fc4:	80 e0       	ldi	r24, 0x00	; 0
    2fc6:	90 e0       	ldi	r25, 0x00	; 0
    2fc8:	a8 e4       	ldi	r26, 0x48	; 72
    2fca:	b2 e4       	ldi	r27, 0x42	; 66
    2fcc:	8f ab       	std	Y+55, r24	; 0x37
    2fce:	98 af       	std	Y+56, r25	; 0x38
    2fd0:	a9 af       	std	Y+57, r26	; 0x39
    2fd2:	ba af       	std	Y+58, r27	; 0x3a
    2fd4:	8e 01       	movw	r16, r28
    2fd6:	0d 54       	subi	r16, 0x4D	; 77
    2fd8:	1e 4f       	sbci	r17, 0xFE	; 254
    2fda:	26 e6       	ldi	r18, 0x66	; 102
    2fdc:	36 e6       	ldi	r19, 0x66	; 102
    2fde:	46 e6       	ldi	r20, 0x66	; 102
    2fe0:	55 e4       	ldi	r21, 0x45	; 69
    2fe2:	6f a9       	ldd	r22, Y+55	; 0x37
    2fe4:	78 ad       	ldd	r23, Y+56	; 0x38
    2fe6:	89 ad       	ldd	r24, Y+57	; 0x39
    2fe8:	9a ad       	ldd	r25, Y+58	; 0x3a
    2fea:	0e 94 65 50 	call	0xa0ca	; 0xa0ca <__mulsf3>
    2fee:	dc 01       	movw	r26, r24
    2ff0:	cb 01       	movw	r24, r22
    2ff2:	f8 01       	movw	r30, r16
    2ff4:	80 83       	st	Z, r24
    2ff6:	91 83       	std	Z+1, r25	; 0x01
    2ff8:	a2 83       	std	Z+2, r26	; 0x02
    2ffa:	b3 83       	std	Z+3, r27	; 0x03
    2ffc:	ce 01       	movw	r24, r28
    2ffe:	8d 54       	subi	r24, 0x4D	; 77
    3000:	9e 4f       	sbci	r25, 0xFE	; 254
    3002:	20 e0       	ldi	r18, 0x00	; 0
    3004:	30 e0       	ldi	r19, 0x00	; 0
    3006:	40 e8       	ldi	r20, 0x80	; 128
    3008:	5f e3       	ldi	r21, 0x3F	; 63
    300a:	fc 01       	movw	r30, r24
    300c:	60 81       	ld	r22, Z
    300e:	71 81       	ldd	r23, Z+1	; 0x01
    3010:	82 81       	ldd	r24, Z+2	; 0x02
    3012:	93 81       	ldd	r25, Z+3	; 0x03
    3014:	0e 94 e4 4f 	call	0x9fc8	; 0x9fc8 <__cmpsf2>
    3018:	88 23       	and	r24, r24
    301a:	4c f4       	brge	.+18     	; 0x302e <__stack+0xe2f>
    301c:	ce 01       	movw	r24, r28
    301e:	89 54       	subi	r24, 0x49	; 73
    3020:	9e 4f       	sbci	r25, 0xFE	; 254
    3022:	21 e0       	ldi	r18, 0x01	; 1
    3024:	30 e0       	ldi	r19, 0x00	; 0
    3026:	fc 01       	movw	r30, r24
    3028:	31 83       	std	Z+1, r19	; 0x01
    302a:	20 83       	st	Z, r18
    302c:	69 c0       	rjmp	.+210    	; 0x3100 <__stack+0xf01>
    302e:	ce 01       	movw	r24, r28
    3030:	8d 54       	subi	r24, 0x4D	; 77
    3032:	9e 4f       	sbci	r25, 0xFE	; 254
    3034:	20 e0       	ldi	r18, 0x00	; 0
    3036:	3f ef       	ldi	r19, 0xFF	; 255
    3038:	4f e7       	ldi	r20, 0x7F	; 127
    303a:	57 e4       	ldi	r21, 0x47	; 71
    303c:	fc 01       	movw	r30, r24
    303e:	60 81       	ld	r22, Z
    3040:	71 81       	ldd	r23, Z+1	; 0x01
    3042:	82 81       	ldd	r24, Z+2	; 0x02
    3044:	93 81       	ldd	r25, Z+3	; 0x03
    3046:	0e 94 61 50 	call	0xa0c2	; 0xa0c2 <__gesf2>
    304a:	18 16       	cp	r1, r24
    304c:	0c f0       	brlt	.+2      	; 0x3050 <__stack+0xe51>
    304e:	46 c0       	rjmp	.+140    	; 0x30dc <__stack+0xedd>
    3050:	20 e0       	ldi	r18, 0x00	; 0
    3052:	30 e0       	ldi	r19, 0x00	; 0
    3054:	40 e2       	ldi	r20, 0x20	; 32
    3056:	51 e4       	ldi	r21, 0x41	; 65
    3058:	6f a9       	ldd	r22, Y+55	; 0x37
    305a:	78 ad       	ldd	r23, Y+56	; 0x38
    305c:	89 ad       	ldd	r24, Y+57	; 0x39
    305e:	9a ad       	ldd	r25, Y+58	; 0x3a
    3060:	0e 94 65 50 	call	0xa0ca	; 0xa0ca <__mulsf3>
    3064:	dc 01       	movw	r26, r24
    3066:	cb 01       	movw	r24, r22
    3068:	8e 01       	movw	r16, r28
    306a:	09 54       	subi	r16, 0x49	; 73
    306c:	1e 4f       	sbci	r17, 0xFE	; 254
    306e:	bc 01       	movw	r22, r24
    3070:	cd 01       	movw	r24, r26
    3072:	0e 94 e8 4f 	call	0x9fd0	; 0x9fd0 <__fixunssfsi>
    3076:	dc 01       	movw	r26, r24
    3078:	cb 01       	movw	r24, r22
    307a:	f8 01       	movw	r30, r16
    307c:	91 83       	std	Z+1, r25	; 0x01
    307e:	80 83       	st	Z, r24
    3080:	24 c0       	rjmp	.+72     	; 0x30ca <__stack+0xecb>
    3082:	ce 01       	movw	r24, r28
    3084:	87 54       	subi	r24, 0x47	; 71
    3086:	9e 4f       	sbci	r25, 0xFE	; 254
    3088:	20 e7       	ldi	r18, 0x70	; 112
    308a:	31 e0       	ldi	r19, 0x01	; 1
    308c:	fc 01       	movw	r30, r24
    308e:	31 83       	std	Z+1, r19	; 0x01
    3090:	20 83       	st	Z, r18
    3092:	ce 01       	movw	r24, r28
    3094:	87 54       	subi	r24, 0x47	; 71
    3096:	9e 4f       	sbci	r25, 0xFE	; 254
    3098:	fc 01       	movw	r30, r24
    309a:	80 81       	ld	r24, Z
    309c:	91 81       	ldd	r25, Z+1	; 0x01
    309e:	01 97       	sbiw	r24, 0x01	; 1
    30a0:	f1 f7       	brne	.-4      	; 0x309e <__stack+0xe9f>
    30a2:	9e 01       	movw	r18, r28
    30a4:	27 54       	subi	r18, 0x47	; 71
    30a6:	3e 4f       	sbci	r19, 0xFE	; 254
    30a8:	f9 01       	movw	r30, r18
    30aa:	91 83       	std	Z+1, r25	; 0x01
    30ac:	80 83       	st	Z, r24
    30ae:	ce 01       	movw	r24, r28
    30b0:	89 54       	subi	r24, 0x49	; 73
    30b2:	9e 4f       	sbci	r25, 0xFE	; 254
    30b4:	9e 01       	movw	r18, r28
    30b6:	29 54       	subi	r18, 0x49	; 73
    30b8:	3e 4f       	sbci	r19, 0xFE	; 254
    30ba:	f9 01       	movw	r30, r18
    30bc:	20 81       	ld	r18, Z
    30be:	31 81       	ldd	r19, Z+1	; 0x01
    30c0:	21 50       	subi	r18, 0x01	; 1
    30c2:	31 09       	sbc	r19, r1
    30c4:	fc 01       	movw	r30, r24
    30c6:	31 83       	std	Z+1, r19	; 0x01
    30c8:	20 83       	st	Z, r18
    30ca:	ce 01       	movw	r24, r28
    30cc:	89 54       	subi	r24, 0x49	; 73
    30ce:	9e 4f       	sbci	r25, 0xFE	; 254
    30d0:	fc 01       	movw	r30, r24
    30d2:	80 81       	ld	r24, Z
    30d4:	91 81       	ldd	r25, Z+1	; 0x01
    30d6:	89 2b       	or	r24, r25
    30d8:	a1 f6       	brne	.-88     	; 0x3082 <__stack+0xe83>
    30da:	2c c0       	rjmp	.+88     	; 0x3134 <__stack+0xf35>
    30dc:	8e 01       	movw	r16, r28
    30de:	09 54       	subi	r16, 0x49	; 73
    30e0:	1e 4f       	sbci	r17, 0xFE	; 254
    30e2:	ce 01       	movw	r24, r28
    30e4:	8d 54       	subi	r24, 0x4D	; 77
    30e6:	9e 4f       	sbci	r25, 0xFE	; 254
    30e8:	fc 01       	movw	r30, r24
    30ea:	60 81       	ld	r22, Z
    30ec:	71 81       	ldd	r23, Z+1	; 0x01
    30ee:	82 81       	ldd	r24, Z+2	; 0x02
    30f0:	93 81       	ldd	r25, Z+3	; 0x03
    30f2:	0e 94 e8 4f 	call	0x9fd0	; 0x9fd0 <__fixunssfsi>
    30f6:	dc 01       	movw	r26, r24
    30f8:	cb 01       	movw	r24, r22
    30fa:	f8 01       	movw	r30, r16
    30fc:	91 83       	std	Z+1, r25	; 0x01
    30fe:	80 83       	st	Z, r24
    3100:	ce 01       	movw	r24, r28
    3102:	85 54       	subi	r24, 0x45	; 69
    3104:	9e 4f       	sbci	r25, 0xFE	; 254
    3106:	9e 01       	movw	r18, r28
    3108:	29 54       	subi	r18, 0x49	; 73
    310a:	3e 4f       	sbci	r19, 0xFE	; 254
    310c:	f9 01       	movw	r30, r18
    310e:	20 81       	ld	r18, Z
    3110:	31 81       	ldd	r19, Z+1	; 0x01
    3112:	fc 01       	movw	r30, r24
    3114:	31 83       	std	Z+1, r19	; 0x01
    3116:	20 83       	st	Z, r18
    3118:	ce 01       	movw	r24, r28
    311a:	85 54       	subi	r24, 0x45	; 69
    311c:	9e 4f       	sbci	r25, 0xFE	; 254
    311e:	fc 01       	movw	r30, r24
    3120:	80 81       	ld	r24, Z
    3122:	91 81       	ldd	r25, Z+1	; 0x01
    3124:	01 97       	sbiw	r24, 0x01	; 1
    3126:	f1 f7       	brne	.-4      	; 0x3124 <__stack+0xf25>
    3128:	9e 01       	movw	r18, r28
    312a:	25 54       	subi	r18, 0x45	; 69
    312c:	3e 4f       	sbci	r19, 0xFE	; 254
    312e:	f9 01       	movw	r30, r18
    3130:	91 83       	std	Z+1, r25	; 0x01
    3132:	80 83       	st	Z, r24
    3134:	0e 94 8c 0e 	call	0x1d18	; 0x1d18 <forward>
    3138:	66 e9       	ldi	r22, 0x96	; 150
    313a:	86 e9       	ldi	r24, 0x96	; 150
    313c:	0e 94 52 0e 	call	0x1ca4	; 0x1ca4 <velocity>
    3140:	80 e0       	ldi	r24, 0x00	; 0
    3142:	90 e0       	ldi	r25, 0x00	; 0
    3144:	af e2       	ldi	r26, 0x2F	; 47
    3146:	b4 e4       	ldi	r27, 0x44	; 68
    3148:	8b af       	std	Y+59, r24	; 0x3b
    314a:	9c af       	std	Y+60, r25	; 0x3c
    314c:	ad af       	std	Y+61, r26	; 0x3d
    314e:	be af       	std	Y+62, r27	; 0x3e
    3150:	8e 01       	movw	r16, r28
    3152:	07 55       	subi	r16, 0x57	; 87
    3154:	1e 4f       	sbci	r17, 0xFE	; 254
    3156:	26 e6       	ldi	r18, 0x66	; 102
    3158:	36 e6       	ldi	r19, 0x66	; 102
    315a:	46 e6       	ldi	r20, 0x66	; 102
    315c:	55 e4       	ldi	r21, 0x45	; 69
    315e:	6b ad       	ldd	r22, Y+59	; 0x3b
    3160:	7c ad       	ldd	r23, Y+60	; 0x3c
    3162:	8d ad       	ldd	r24, Y+61	; 0x3d
    3164:	9e ad       	ldd	r25, Y+62	; 0x3e
    3166:	0e 94 65 50 	call	0xa0ca	; 0xa0ca <__mulsf3>
    316a:	dc 01       	movw	r26, r24
    316c:	cb 01       	movw	r24, r22
    316e:	f8 01       	movw	r30, r16
    3170:	80 83       	st	Z, r24
    3172:	91 83       	std	Z+1, r25	; 0x01
    3174:	a2 83       	std	Z+2, r26	; 0x02
    3176:	b3 83       	std	Z+3, r27	; 0x03
    3178:	ce 01       	movw	r24, r28
    317a:	87 55       	subi	r24, 0x57	; 87
    317c:	9e 4f       	sbci	r25, 0xFE	; 254
    317e:	20 e0       	ldi	r18, 0x00	; 0
    3180:	30 e0       	ldi	r19, 0x00	; 0
    3182:	40 e8       	ldi	r20, 0x80	; 128
    3184:	5f e3       	ldi	r21, 0x3F	; 63
    3186:	fc 01       	movw	r30, r24
    3188:	60 81       	ld	r22, Z
    318a:	71 81       	ldd	r23, Z+1	; 0x01
    318c:	82 81       	ldd	r24, Z+2	; 0x02
    318e:	93 81       	ldd	r25, Z+3	; 0x03
    3190:	0e 94 e4 4f 	call	0x9fc8	; 0x9fc8 <__cmpsf2>
    3194:	88 23       	and	r24, r24
    3196:	4c f4       	brge	.+18     	; 0x31aa <__stack+0xfab>
    3198:	ce 01       	movw	r24, r28
    319a:	83 55       	subi	r24, 0x53	; 83
    319c:	9e 4f       	sbci	r25, 0xFE	; 254
    319e:	21 e0       	ldi	r18, 0x01	; 1
    31a0:	30 e0       	ldi	r19, 0x00	; 0
    31a2:	fc 01       	movw	r30, r24
    31a4:	31 83       	std	Z+1, r19	; 0x01
    31a6:	20 83       	st	Z, r18
    31a8:	69 c0       	rjmp	.+210    	; 0x327c <__stack+0x107d>
    31aa:	ce 01       	movw	r24, r28
    31ac:	87 55       	subi	r24, 0x57	; 87
    31ae:	9e 4f       	sbci	r25, 0xFE	; 254
    31b0:	20 e0       	ldi	r18, 0x00	; 0
    31b2:	3f ef       	ldi	r19, 0xFF	; 255
    31b4:	4f e7       	ldi	r20, 0x7F	; 127
    31b6:	57 e4       	ldi	r21, 0x47	; 71
    31b8:	fc 01       	movw	r30, r24
    31ba:	60 81       	ld	r22, Z
    31bc:	71 81       	ldd	r23, Z+1	; 0x01
    31be:	82 81       	ldd	r24, Z+2	; 0x02
    31c0:	93 81       	ldd	r25, Z+3	; 0x03
    31c2:	0e 94 61 50 	call	0xa0c2	; 0xa0c2 <__gesf2>
    31c6:	18 16       	cp	r1, r24
    31c8:	0c f0       	brlt	.+2      	; 0x31cc <__stack+0xfcd>
    31ca:	46 c0       	rjmp	.+140    	; 0x3258 <__stack+0x1059>
    31cc:	20 e0       	ldi	r18, 0x00	; 0
    31ce:	30 e0       	ldi	r19, 0x00	; 0
    31d0:	40 e2       	ldi	r20, 0x20	; 32
    31d2:	51 e4       	ldi	r21, 0x41	; 65
    31d4:	6b ad       	ldd	r22, Y+59	; 0x3b
    31d6:	7c ad       	ldd	r23, Y+60	; 0x3c
    31d8:	8d ad       	ldd	r24, Y+61	; 0x3d
    31da:	9e ad       	ldd	r25, Y+62	; 0x3e
    31dc:	0e 94 65 50 	call	0xa0ca	; 0xa0ca <__mulsf3>
    31e0:	dc 01       	movw	r26, r24
    31e2:	cb 01       	movw	r24, r22
    31e4:	8e 01       	movw	r16, r28
    31e6:	03 55       	subi	r16, 0x53	; 83
    31e8:	1e 4f       	sbci	r17, 0xFE	; 254
    31ea:	bc 01       	movw	r22, r24
    31ec:	cd 01       	movw	r24, r26
    31ee:	0e 94 e8 4f 	call	0x9fd0	; 0x9fd0 <__fixunssfsi>
    31f2:	dc 01       	movw	r26, r24
    31f4:	cb 01       	movw	r24, r22
    31f6:	f8 01       	movw	r30, r16
    31f8:	91 83       	std	Z+1, r25	; 0x01
    31fa:	80 83       	st	Z, r24
    31fc:	24 c0       	rjmp	.+72     	; 0x3246 <__stack+0x1047>
    31fe:	ce 01       	movw	r24, r28
    3200:	81 55       	subi	r24, 0x51	; 81
    3202:	9e 4f       	sbci	r25, 0xFE	; 254
    3204:	20 e7       	ldi	r18, 0x70	; 112
    3206:	31 e0       	ldi	r19, 0x01	; 1
    3208:	fc 01       	movw	r30, r24
    320a:	31 83       	std	Z+1, r19	; 0x01
    320c:	20 83       	st	Z, r18
    320e:	ce 01       	movw	r24, r28
    3210:	81 55       	subi	r24, 0x51	; 81
    3212:	9e 4f       	sbci	r25, 0xFE	; 254
    3214:	fc 01       	movw	r30, r24
    3216:	80 81       	ld	r24, Z
    3218:	91 81       	ldd	r25, Z+1	; 0x01
    321a:	01 97       	sbiw	r24, 0x01	; 1
    321c:	f1 f7       	brne	.-4      	; 0x321a <__stack+0x101b>
    321e:	9e 01       	movw	r18, r28
    3220:	21 55       	subi	r18, 0x51	; 81
    3222:	3e 4f       	sbci	r19, 0xFE	; 254
    3224:	f9 01       	movw	r30, r18
    3226:	91 83       	std	Z+1, r25	; 0x01
    3228:	80 83       	st	Z, r24
    322a:	ce 01       	movw	r24, r28
    322c:	83 55       	subi	r24, 0x53	; 83
    322e:	9e 4f       	sbci	r25, 0xFE	; 254
    3230:	9e 01       	movw	r18, r28
    3232:	23 55       	subi	r18, 0x53	; 83
    3234:	3e 4f       	sbci	r19, 0xFE	; 254
    3236:	f9 01       	movw	r30, r18
    3238:	20 81       	ld	r18, Z
    323a:	31 81       	ldd	r19, Z+1	; 0x01
    323c:	21 50       	subi	r18, 0x01	; 1
    323e:	31 09       	sbc	r19, r1
    3240:	fc 01       	movw	r30, r24
    3242:	31 83       	std	Z+1, r19	; 0x01
    3244:	20 83       	st	Z, r18
    3246:	ce 01       	movw	r24, r28
    3248:	83 55       	subi	r24, 0x53	; 83
    324a:	9e 4f       	sbci	r25, 0xFE	; 254
    324c:	fc 01       	movw	r30, r24
    324e:	80 81       	ld	r24, Z
    3250:	91 81       	ldd	r25, Z+1	; 0x01
    3252:	89 2b       	or	r24, r25
    3254:	a1 f6       	brne	.-88     	; 0x31fe <__stack+0xfff>
    3256:	2c c0       	rjmp	.+88     	; 0x32b0 <__stack+0x10b1>
    3258:	8e 01       	movw	r16, r28
    325a:	03 55       	subi	r16, 0x53	; 83
    325c:	1e 4f       	sbci	r17, 0xFE	; 254
    325e:	ce 01       	movw	r24, r28
    3260:	87 55       	subi	r24, 0x57	; 87
    3262:	9e 4f       	sbci	r25, 0xFE	; 254
    3264:	fc 01       	movw	r30, r24
    3266:	60 81       	ld	r22, Z
    3268:	71 81       	ldd	r23, Z+1	; 0x01
    326a:	82 81       	ldd	r24, Z+2	; 0x02
    326c:	93 81       	ldd	r25, Z+3	; 0x03
    326e:	0e 94 e8 4f 	call	0x9fd0	; 0x9fd0 <__fixunssfsi>
    3272:	dc 01       	movw	r26, r24
    3274:	cb 01       	movw	r24, r22
    3276:	f8 01       	movw	r30, r16
    3278:	91 83       	std	Z+1, r25	; 0x01
    327a:	80 83       	st	Z, r24
    327c:	ce 01       	movw	r24, r28
    327e:	8f 54       	subi	r24, 0x4F	; 79
    3280:	9e 4f       	sbci	r25, 0xFE	; 254
    3282:	9e 01       	movw	r18, r28
    3284:	23 55       	subi	r18, 0x53	; 83
    3286:	3e 4f       	sbci	r19, 0xFE	; 254
    3288:	f9 01       	movw	r30, r18
    328a:	20 81       	ld	r18, Z
    328c:	31 81       	ldd	r19, Z+1	; 0x01
    328e:	fc 01       	movw	r30, r24
    3290:	31 83       	std	Z+1, r19	; 0x01
    3292:	20 83       	st	Z, r18
    3294:	ce 01       	movw	r24, r28
    3296:	8f 54       	subi	r24, 0x4F	; 79
    3298:	9e 4f       	sbci	r25, 0xFE	; 254
    329a:	fc 01       	movw	r30, r24
    329c:	80 81       	ld	r24, Z
    329e:	91 81       	ldd	r25, Z+1	; 0x01
    32a0:	01 97       	sbiw	r24, 0x01	; 1
    32a2:	f1 f7       	brne	.-4      	; 0x32a0 <__stack+0x10a1>
    32a4:	9e 01       	movw	r18, r28
    32a6:	2f 54       	subi	r18, 0x4F	; 79
    32a8:	3e 4f       	sbci	r19, 0xFE	; 254
    32aa:	f9 01       	movw	r30, r18
    32ac:	91 83       	std	Z+1, r25	; 0x01
    32ae:	80 83       	st	Z, r24
    32b0:	0e 94 96 0e 	call	0x1d2c	; 0x1d2c <left>
    32b4:	80 e0       	ldi	r24, 0x00	; 0
    32b6:	90 e8       	ldi	r25, 0x80	; 128
    32b8:	ad ee       	ldi	r26, 0xED	; 237
    32ba:	b4 e4       	ldi	r27, 0x44	; 68
    32bc:	8b a7       	std	Y+43, r24	; 0x2b
    32be:	9c a7       	std	Y+44, r25	; 0x2c
    32c0:	ad a7       	std	Y+45, r26	; 0x2d
    32c2:	be a7       	std	Y+46, r27	; 0x2e
    32c4:	8e 01       	movw	r16, r28
    32c6:	01 56       	subi	r16, 0x61	; 97
    32c8:	1e 4f       	sbci	r17, 0xFE	; 254
    32ca:	26 e6       	ldi	r18, 0x66	; 102
    32cc:	36 e6       	ldi	r19, 0x66	; 102
    32ce:	46 e6       	ldi	r20, 0x66	; 102
    32d0:	55 e4       	ldi	r21, 0x45	; 69
    32d2:	6b a5       	ldd	r22, Y+43	; 0x2b
    32d4:	7c a5       	ldd	r23, Y+44	; 0x2c
    32d6:	8d a5       	ldd	r24, Y+45	; 0x2d
    32d8:	9e a5       	ldd	r25, Y+46	; 0x2e
    32da:	0e 94 65 50 	call	0xa0ca	; 0xa0ca <__mulsf3>
    32de:	dc 01       	movw	r26, r24
    32e0:	cb 01       	movw	r24, r22
    32e2:	f8 01       	movw	r30, r16
    32e4:	80 83       	st	Z, r24
    32e6:	91 83       	std	Z+1, r25	; 0x01
    32e8:	a2 83       	std	Z+2, r26	; 0x02
    32ea:	b3 83       	std	Z+3, r27	; 0x03
    32ec:	ce 01       	movw	r24, r28
    32ee:	81 56       	subi	r24, 0x61	; 97
    32f0:	9e 4f       	sbci	r25, 0xFE	; 254
    32f2:	20 e0       	ldi	r18, 0x00	; 0
    32f4:	30 e0       	ldi	r19, 0x00	; 0
    32f6:	40 e8       	ldi	r20, 0x80	; 128
    32f8:	5f e3       	ldi	r21, 0x3F	; 63
    32fa:	fc 01       	movw	r30, r24
    32fc:	60 81       	ld	r22, Z
    32fe:	71 81       	ldd	r23, Z+1	; 0x01
    3300:	82 81       	ldd	r24, Z+2	; 0x02
    3302:	93 81       	ldd	r25, Z+3	; 0x03
    3304:	0e 94 e4 4f 	call	0x9fc8	; 0x9fc8 <__cmpsf2>
    3308:	88 23       	and	r24, r24
    330a:	4c f4       	brge	.+18     	; 0x331e <__stack+0x111f>
    330c:	ce 01       	movw	r24, r28
    330e:	8d 55       	subi	r24, 0x5D	; 93
    3310:	9e 4f       	sbci	r25, 0xFE	; 254
    3312:	21 e0       	ldi	r18, 0x01	; 1
    3314:	30 e0       	ldi	r19, 0x00	; 0
    3316:	fc 01       	movw	r30, r24
    3318:	31 83       	std	Z+1, r19	; 0x01
    331a:	20 83       	st	Z, r18
    331c:	69 c0       	rjmp	.+210    	; 0x33f0 <__stack+0x11f1>
    331e:	ce 01       	movw	r24, r28
    3320:	81 56       	subi	r24, 0x61	; 97
    3322:	9e 4f       	sbci	r25, 0xFE	; 254
    3324:	20 e0       	ldi	r18, 0x00	; 0
    3326:	3f ef       	ldi	r19, 0xFF	; 255
    3328:	4f e7       	ldi	r20, 0x7F	; 127
    332a:	57 e4       	ldi	r21, 0x47	; 71
    332c:	fc 01       	movw	r30, r24
    332e:	60 81       	ld	r22, Z
    3330:	71 81       	ldd	r23, Z+1	; 0x01
    3332:	82 81       	ldd	r24, Z+2	; 0x02
    3334:	93 81       	ldd	r25, Z+3	; 0x03
    3336:	0e 94 61 50 	call	0xa0c2	; 0xa0c2 <__gesf2>
    333a:	18 16       	cp	r1, r24
    333c:	0c f0       	brlt	.+2      	; 0x3340 <__stack+0x1141>
    333e:	46 c0       	rjmp	.+140    	; 0x33cc <__stack+0x11cd>
    3340:	20 e0       	ldi	r18, 0x00	; 0
    3342:	30 e0       	ldi	r19, 0x00	; 0
    3344:	40 e2       	ldi	r20, 0x20	; 32
    3346:	51 e4       	ldi	r21, 0x41	; 65
    3348:	6b a5       	ldd	r22, Y+43	; 0x2b
    334a:	7c a5       	ldd	r23, Y+44	; 0x2c
    334c:	8d a5       	ldd	r24, Y+45	; 0x2d
    334e:	9e a5       	ldd	r25, Y+46	; 0x2e
    3350:	0e 94 65 50 	call	0xa0ca	; 0xa0ca <__mulsf3>
    3354:	dc 01       	movw	r26, r24
    3356:	cb 01       	movw	r24, r22
    3358:	8e 01       	movw	r16, r28
    335a:	0d 55       	subi	r16, 0x5D	; 93
    335c:	1e 4f       	sbci	r17, 0xFE	; 254
    335e:	bc 01       	movw	r22, r24
    3360:	cd 01       	movw	r24, r26
    3362:	0e 94 e8 4f 	call	0x9fd0	; 0x9fd0 <__fixunssfsi>
    3366:	dc 01       	movw	r26, r24
    3368:	cb 01       	movw	r24, r22
    336a:	f8 01       	movw	r30, r16
    336c:	91 83       	std	Z+1, r25	; 0x01
    336e:	80 83       	st	Z, r24
    3370:	24 c0       	rjmp	.+72     	; 0x33ba <__stack+0x11bb>
    3372:	ce 01       	movw	r24, r28
    3374:	8b 55       	subi	r24, 0x5B	; 91
    3376:	9e 4f       	sbci	r25, 0xFE	; 254
    3378:	20 e7       	ldi	r18, 0x70	; 112
    337a:	31 e0       	ldi	r19, 0x01	; 1
    337c:	fc 01       	movw	r30, r24
    337e:	31 83       	std	Z+1, r19	; 0x01
    3380:	20 83       	st	Z, r18
    3382:	ce 01       	movw	r24, r28
    3384:	8b 55       	subi	r24, 0x5B	; 91
    3386:	9e 4f       	sbci	r25, 0xFE	; 254
    3388:	fc 01       	movw	r30, r24
    338a:	80 81       	ld	r24, Z
    338c:	91 81       	ldd	r25, Z+1	; 0x01
    338e:	01 97       	sbiw	r24, 0x01	; 1
    3390:	f1 f7       	brne	.-4      	; 0x338e <__stack+0x118f>
    3392:	9e 01       	movw	r18, r28
    3394:	2b 55       	subi	r18, 0x5B	; 91
    3396:	3e 4f       	sbci	r19, 0xFE	; 254
    3398:	f9 01       	movw	r30, r18
    339a:	91 83       	std	Z+1, r25	; 0x01
    339c:	80 83       	st	Z, r24
    339e:	ce 01       	movw	r24, r28
    33a0:	8d 55       	subi	r24, 0x5D	; 93
    33a2:	9e 4f       	sbci	r25, 0xFE	; 254
    33a4:	9e 01       	movw	r18, r28
    33a6:	2d 55       	subi	r18, 0x5D	; 93
    33a8:	3e 4f       	sbci	r19, 0xFE	; 254
    33aa:	f9 01       	movw	r30, r18
    33ac:	20 81       	ld	r18, Z
    33ae:	31 81       	ldd	r19, Z+1	; 0x01
    33b0:	21 50       	subi	r18, 0x01	; 1
    33b2:	31 09       	sbc	r19, r1
    33b4:	fc 01       	movw	r30, r24
    33b6:	31 83       	std	Z+1, r19	; 0x01
    33b8:	20 83       	st	Z, r18
    33ba:	ce 01       	movw	r24, r28
    33bc:	8d 55       	subi	r24, 0x5D	; 93
    33be:	9e 4f       	sbci	r25, 0xFE	; 254
    33c0:	fc 01       	movw	r30, r24
    33c2:	80 81       	ld	r24, Z
    33c4:	91 81       	ldd	r25, Z+1	; 0x01
    33c6:	89 2b       	or	r24, r25
    33c8:	a1 f6       	brne	.-88     	; 0x3372 <__stack+0x1173>
    33ca:	2c c0       	rjmp	.+88     	; 0x3424 <__stack+0x1225>
    33cc:	8e 01       	movw	r16, r28
    33ce:	0d 55       	subi	r16, 0x5D	; 93
    33d0:	1e 4f       	sbci	r17, 0xFE	; 254
    33d2:	ce 01       	movw	r24, r28
    33d4:	81 56       	subi	r24, 0x61	; 97
    33d6:	9e 4f       	sbci	r25, 0xFE	; 254
    33d8:	fc 01       	movw	r30, r24
    33da:	60 81       	ld	r22, Z
    33dc:	71 81       	ldd	r23, Z+1	; 0x01
    33de:	82 81       	ldd	r24, Z+2	; 0x02
    33e0:	93 81       	ldd	r25, Z+3	; 0x03
    33e2:	0e 94 e8 4f 	call	0x9fd0	; 0x9fd0 <__fixunssfsi>
    33e6:	dc 01       	movw	r26, r24
    33e8:	cb 01       	movw	r24, r22
    33ea:	f8 01       	movw	r30, r16
    33ec:	91 83       	std	Z+1, r25	; 0x01
    33ee:	80 83       	st	Z, r24
    33f0:	ce 01       	movw	r24, r28
    33f2:	89 55       	subi	r24, 0x59	; 89
    33f4:	9e 4f       	sbci	r25, 0xFE	; 254
    33f6:	9e 01       	movw	r18, r28
    33f8:	2d 55       	subi	r18, 0x5D	; 93
    33fa:	3e 4f       	sbci	r19, 0xFE	; 254
    33fc:	f9 01       	movw	r30, r18
    33fe:	20 81       	ld	r18, Z
    3400:	31 81       	ldd	r19, Z+1	; 0x01
    3402:	fc 01       	movw	r30, r24
    3404:	31 83       	std	Z+1, r19	; 0x01
    3406:	20 83       	st	Z, r18
    3408:	ce 01       	movw	r24, r28
    340a:	89 55       	subi	r24, 0x59	; 89
    340c:	9e 4f       	sbci	r25, 0xFE	; 254
    340e:	fc 01       	movw	r30, r24
    3410:	80 81       	ld	r24, Z
    3412:	91 81       	ldd	r25, Z+1	; 0x01
    3414:	01 97       	sbiw	r24, 0x01	; 1
    3416:	f1 f7       	brne	.-4      	; 0x3414 <__stack+0x1215>
    3418:	9e 01       	movw	r18, r28
    341a:	29 55       	subi	r18, 0x59	; 89
    341c:	3e 4f       	sbci	r19, 0xFE	; 254
    341e:	f9 01       	movw	r30, r18
    3420:	91 83       	std	Z+1, r25	; 0x01
    3422:	80 83       	st	Z, r24
    3424:	89 81       	ldd	r24, Y+1	; 0x01
    3426:	9a 81       	ldd	r25, Y+2	; 0x02
    3428:	84 36       	cpi	r24, 0x64	; 100
    342a:	91 05       	cpc	r25, r1
    342c:	09 f4       	brne	.+2      	; 0x3430 <__stack+0x1231>
    342e:	ce cb       	rjmp	.-2148   	; 0x2bcc <__stack+0x9cd>
    3430:	64 c5       	rjmp	.+2760   	; 0x3efa <__stack+0x1cfb>
    3432:	0e 94 0c 0d 	call	0x1a18	; 0x1a18 <buzzer_on>
    3436:	9e 01       	movw	r18, r28
    3438:	2d 5b       	subi	r18, 0xBD	; 189
    343a:	3f 4f       	sbci	r19, 0xFF	; 255
    343c:	80 e0       	ldi	r24, 0x00	; 0
    343e:	90 e0       	ldi	r25, 0x00	; 0
    3440:	a8 ec       	ldi	r26, 0xC8	; 200
    3442:	b2 e4       	ldi	r27, 0x42	; 66
    3444:	f9 01       	movw	r30, r18
    3446:	80 83       	st	Z, r24
    3448:	91 83       	std	Z+1, r25	; 0x01
    344a:	a2 83       	std	Z+2, r26	; 0x02
    344c:	b3 83       	std	Z+3, r27	; 0x03
    344e:	8e 01       	movw	r16, r28
    3450:	0d 5f       	subi	r16, 0xFD	; 253
    3452:	1d 4f       	sbci	r17, 0xFD	; 253
    3454:	ce 01       	movw	r24, r28
    3456:	8d 5b       	subi	r24, 0xBD	; 189
    3458:	9f 4f       	sbci	r25, 0xFF	; 255
    345a:	26 e6       	ldi	r18, 0x66	; 102
    345c:	36 e6       	ldi	r19, 0x66	; 102
    345e:	46 e6       	ldi	r20, 0x66	; 102
    3460:	55 e4       	ldi	r21, 0x45	; 69
    3462:	fc 01       	movw	r30, r24
    3464:	60 81       	ld	r22, Z
    3466:	71 81       	ldd	r23, Z+1	; 0x01
    3468:	82 81       	ldd	r24, Z+2	; 0x02
    346a:	93 81       	ldd	r25, Z+3	; 0x03
    346c:	0e 94 65 50 	call	0xa0ca	; 0xa0ca <__mulsf3>
    3470:	dc 01       	movw	r26, r24
    3472:	cb 01       	movw	r24, r22
    3474:	f8 01       	movw	r30, r16
    3476:	80 83       	st	Z, r24
    3478:	91 83       	std	Z+1, r25	; 0x01
    347a:	a2 83       	std	Z+2, r26	; 0x02
    347c:	b3 83       	std	Z+3, r27	; 0x03
    347e:	ce 01       	movw	r24, r28
    3480:	8d 5f       	subi	r24, 0xFD	; 253
    3482:	9d 4f       	sbci	r25, 0xFD	; 253
    3484:	20 e0       	ldi	r18, 0x00	; 0
    3486:	30 e0       	ldi	r19, 0x00	; 0
    3488:	40 e8       	ldi	r20, 0x80	; 128
    348a:	5f e3       	ldi	r21, 0x3F	; 63
    348c:	fc 01       	movw	r30, r24
    348e:	60 81       	ld	r22, Z
    3490:	71 81       	ldd	r23, Z+1	; 0x01
    3492:	82 81       	ldd	r24, Z+2	; 0x02
    3494:	93 81       	ldd	r25, Z+3	; 0x03
    3496:	0e 94 e4 4f 	call	0x9fc8	; 0x9fc8 <__cmpsf2>
    349a:	88 23       	and	r24, r24
    349c:	4c f4       	brge	.+18     	; 0x34b0 <__stack+0x12b1>
    349e:	ce 01       	movw	r24, r28
    34a0:	89 5f       	subi	r24, 0xF9	; 249
    34a2:	9d 4f       	sbci	r25, 0xFD	; 253
    34a4:	21 e0       	ldi	r18, 0x01	; 1
    34a6:	30 e0       	ldi	r19, 0x00	; 0
    34a8:	fc 01       	movw	r30, r24
    34aa:	31 83       	std	Z+1, r19	; 0x01
    34ac:	20 83       	st	Z, r18
    34ae:	6d c0       	rjmp	.+218    	; 0x358a <__stack+0x138b>
    34b0:	ce 01       	movw	r24, r28
    34b2:	8d 5f       	subi	r24, 0xFD	; 253
    34b4:	9d 4f       	sbci	r25, 0xFD	; 253
    34b6:	20 e0       	ldi	r18, 0x00	; 0
    34b8:	3f ef       	ldi	r19, 0xFF	; 255
    34ba:	4f e7       	ldi	r20, 0x7F	; 127
    34bc:	57 e4       	ldi	r21, 0x47	; 71
    34be:	fc 01       	movw	r30, r24
    34c0:	60 81       	ld	r22, Z
    34c2:	71 81       	ldd	r23, Z+1	; 0x01
    34c4:	82 81       	ldd	r24, Z+2	; 0x02
    34c6:	93 81       	ldd	r25, Z+3	; 0x03
    34c8:	0e 94 61 50 	call	0xa0c2	; 0xa0c2 <__gesf2>
    34cc:	18 16       	cp	r1, r24
    34ce:	0c f0       	brlt	.+2      	; 0x34d2 <__stack+0x12d3>
    34d0:	4a c0       	rjmp	.+148    	; 0x3566 <__stack+0x1367>
    34d2:	ce 01       	movw	r24, r28
    34d4:	8d 5b       	subi	r24, 0xBD	; 189
    34d6:	9f 4f       	sbci	r25, 0xFF	; 255
    34d8:	20 e0       	ldi	r18, 0x00	; 0
    34da:	30 e0       	ldi	r19, 0x00	; 0
    34dc:	40 e2       	ldi	r20, 0x20	; 32
    34de:	51 e4       	ldi	r21, 0x41	; 65
    34e0:	fc 01       	movw	r30, r24
    34e2:	60 81       	ld	r22, Z
    34e4:	71 81       	ldd	r23, Z+1	; 0x01
    34e6:	82 81       	ldd	r24, Z+2	; 0x02
    34e8:	93 81       	ldd	r25, Z+3	; 0x03
    34ea:	0e 94 65 50 	call	0xa0ca	; 0xa0ca <__mulsf3>
    34ee:	dc 01       	movw	r26, r24
    34f0:	cb 01       	movw	r24, r22
    34f2:	8e 01       	movw	r16, r28
    34f4:	09 5f       	subi	r16, 0xF9	; 249
    34f6:	1d 4f       	sbci	r17, 0xFD	; 253
    34f8:	bc 01       	movw	r22, r24
    34fa:	cd 01       	movw	r24, r26
    34fc:	0e 94 e8 4f 	call	0x9fd0	; 0x9fd0 <__fixunssfsi>
    3500:	dc 01       	movw	r26, r24
    3502:	cb 01       	movw	r24, r22
    3504:	f8 01       	movw	r30, r16
    3506:	91 83       	std	Z+1, r25	; 0x01
    3508:	80 83       	st	Z, r24
    350a:	24 c0       	rjmp	.+72     	; 0x3554 <__stack+0x1355>
    350c:	ce 01       	movw	r24, r28
    350e:	87 5f       	subi	r24, 0xF7	; 247
    3510:	9d 4f       	sbci	r25, 0xFD	; 253
    3512:	20 e7       	ldi	r18, 0x70	; 112
    3514:	31 e0       	ldi	r19, 0x01	; 1
    3516:	fc 01       	movw	r30, r24
    3518:	31 83       	std	Z+1, r19	; 0x01
    351a:	20 83       	st	Z, r18
    351c:	ce 01       	movw	r24, r28
    351e:	87 5f       	subi	r24, 0xF7	; 247
    3520:	9d 4f       	sbci	r25, 0xFD	; 253
    3522:	fc 01       	movw	r30, r24
    3524:	80 81       	ld	r24, Z
    3526:	91 81       	ldd	r25, Z+1	; 0x01
    3528:	01 97       	sbiw	r24, 0x01	; 1
    352a:	f1 f7       	brne	.-4      	; 0x3528 <__stack+0x1329>
    352c:	9e 01       	movw	r18, r28
    352e:	27 5f       	subi	r18, 0xF7	; 247
    3530:	3d 4f       	sbci	r19, 0xFD	; 253
    3532:	f9 01       	movw	r30, r18
    3534:	91 83       	std	Z+1, r25	; 0x01
    3536:	80 83       	st	Z, r24
    3538:	ce 01       	movw	r24, r28
    353a:	89 5f       	subi	r24, 0xF9	; 249
    353c:	9d 4f       	sbci	r25, 0xFD	; 253
    353e:	9e 01       	movw	r18, r28
    3540:	29 5f       	subi	r18, 0xF9	; 249
    3542:	3d 4f       	sbci	r19, 0xFD	; 253
    3544:	f9 01       	movw	r30, r18
    3546:	20 81       	ld	r18, Z
    3548:	31 81       	ldd	r19, Z+1	; 0x01
    354a:	21 50       	subi	r18, 0x01	; 1
    354c:	31 09       	sbc	r19, r1
    354e:	fc 01       	movw	r30, r24
    3550:	31 83       	std	Z+1, r19	; 0x01
    3552:	20 83       	st	Z, r18
    3554:	ce 01       	movw	r24, r28
    3556:	89 5f       	subi	r24, 0xF9	; 249
    3558:	9d 4f       	sbci	r25, 0xFD	; 253
    355a:	fc 01       	movw	r30, r24
    355c:	80 81       	ld	r24, Z
    355e:	91 81       	ldd	r25, Z+1	; 0x01
    3560:	89 2b       	or	r24, r25
    3562:	a1 f6       	brne	.-88     	; 0x350c <__stack+0x130d>
    3564:	2c c0       	rjmp	.+88     	; 0x35be <__stack+0x13bf>
    3566:	8e 01       	movw	r16, r28
    3568:	09 5f       	subi	r16, 0xF9	; 249
    356a:	1d 4f       	sbci	r17, 0xFD	; 253
    356c:	ce 01       	movw	r24, r28
    356e:	8d 5f       	subi	r24, 0xFD	; 253
    3570:	9d 4f       	sbci	r25, 0xFD	; 253
    3572:	fc 01       	movw	r30, r24
    3574:	60 81       	ld	r22, Z
    3576:	71 81       	ldd	r23, Z+1	; 0x01
    3578:	82 81       	ldd	r24, Z+2	; 0x02
    357a:	93 81       	ldd	r25, Z+3	; 0x03
    357c:	0e 94 e8 4f 	call	0x9fd0	; 0x9fd0 <__fixunssfsi>
    3580:	dc 01       	movw	r26, r24
    3582:	cb 01       	movw	r24, r22
    3584:	f8 01       	movw	r30, r16
    3586:	91 83       	std	Z+1, r25	; 0x01
    3588:	80 83       	st	Z, r24
    358a:	ce 01       	movw	r24, r28
    358c:	85 5f       	subi	r24, 0xF5	; 245
    358e:	9d 4f       	sbci	r25, 0xFD	; 253
    3590:	9e 01       	movw	r18, r28
    3592:	29 5f       	subi	r18, 0xF9	; 249
    3594:	3d 4f       	sbci	r19, 0xFD	; 253
    3596:	f9 01       	movw	r30, r18
    3598:	20 81       	ld	r18, Z
    359a:	31 81       	ldd	r19, Z+1	; 0x01
    359c:	fc 01       	movw	r30, r24
    359e:	31 83       	std	Z+1, r19	; 0x01
    35a0:	20 83       	st	Z, r18
    35a2:	ce 01       	movw	r24, r28
    35a4:	85 5f       	subi	r24, 0xF5	; 245
    35a6:	9d 4f       	sbci	r25, 0xFD	; 253
    35a8:	fc 01       	movw	r30, r24
    35aa:	80 81       	ld	r24, Z
    35ac:	91 81       	ldd	r25, Z+1	; 0x01
    35ae:	01 97       	sbiw	r24, 0x01	; 1
    35b0:	f1 f7       	brne	.-4      	; 0x35ae <__stack+0x13af>
    35b2:	9e 01       	movw	r18, r28
    35b4:	25 5f       	subi	r18, 0xF5	; 245
    35b6:	3d 4f       	sbci	r19, 0xFD	; 253
    35b8:	f9 01       	movw	r30, r18
    35ba:	91 83       	std	Z+1, r25	; 0x01
    35bc:	80 83       	st	Z, r24
    35be:	0e 94 1d 0d 	call	0x1a3a	; 0x1a3a <buzzer_off>
    35c2:	9e 01       	movw	r18, r28
    35c4:	29 5b       	subi	r18, 0xB9	; 185
    35c6:	3f 4f       	sbci	r19, 0xFF	; 255
    35c8:	80 e0       	ldi	r24, 0x00	; 0
    35ca:	90 e0       	ldi	r25, 0x00	; 0
    35cc:	a8 e4       	ldi	r26, 0x48	; 72
    35ce:	b2 e4       	ldi	r27, 0x42	; 66
    35d0:	f9 01       	movw	r30, r18
    35d2:	80 83       	st	Z, r24
    35d4:	91 83       	std	Z+1, r25	; 0x01
    35d6:	a2 83       	std	Z+2, r26	; 0x02
    35d8:	b3 83       	std	Z+3, r27	; 0x03
    35da:	8e 01       	movw	r16, r28
    35dc:	07 50       	subi	r16, 0x07	; 7
    35de:	1e 4f       	sbci	r17, 0xFE	; 254
    35e0:	ce 01       	movw	r24, r28
    35e2:	89 5b       	subi	r24, 0xB9	; 185
    35e4:	9f 4f       	sbci	r25, 0xFF	; 255
    35e6:	26 e6       	ldi	r18, 0x66	; 102
    35e8:	36 e6       	ldi	r19, 0x66	; 102
    35ea:	46 e6       	ldi	r20, 0x66	; 102
    35ec:	55 e4       	ldi	r21, 0x45	; 69
    35ee:	fc 01       	movw	r30, r24
    35f0:	60 81       	ld	r22, Z
    35f2:	71 81       	ldd	r23, Z+1	; 0x01
    35f4:	82 81       	ldd	r24, Z+2	; 0x02
    35f6:	93 81       	ldd	r25, Z+3	; 0x03
    35f8:	0e 94 65 50 	call	0xa0ca	; 0xa0ca <__mulsf3>
    35fc:	dc 01       	movw	r26, r24
    35fe:	cb 01       	movw	r24, r22
    3600:	f8 01       	movw	r30, r16
    3602:	80 83       	st	Z, r24
    3604:	91 83       	std	Z+1, r25	; 0x01
    3606:	a2 83       	std	Z+2, r26	; 0x02
    3608:	b3 83       	std	Z+3, r27	; 0x03
    360a:	ce 01       	movw	r24, r28
    360c:	87 50       	subi	r24, 0x07	; 7
    360e:	9e 4f       	sbci	r25, 0xFE	; 254
    3610:	20 e0       	ldi	r18, 0x00	; 0
    3612:	30 e0       	ldi	r19, 0x00	; 0
    3614:	40 e8       	ldi	r20, 0x80	; 128
    3616:	5f e3       	ldi	r21, 0x3F	; 63
    3618:	fc 01       	movw	r30, r24
    361a:	60 81       	ld	r22, Z
    361c:	71 81       	ldd	r23, Z+1	; 0x01
    361e:	82 81       	ldd	r24, Z+2	; 0x02
    3620:	93 81       	ldd	r25, Z+3	; 0x03
    3622:	0e 94 e4 4f 	call	0x9fc8	; 0x9fc8 <__cmpsf2>
    3626:	88 23       	and	r24, r24
    3628:	4c f4       	brge	.+18     	; 0x363c <__stack+0x143d>
    362a:	ce 01       	movw	r24, r28
    362c:	83 50       	subi	r24, 0x03	; 3
    362e:	9e 4f       	sbci	r25, 0xFE	; 254
    3630:	21 e0       	ldi	r18, 0x01	; 1
    3632:	30 e0       	ldi	r19, 0x00	; 0
    3634:	fc 01       	movw	r30, r24
    3636:	31 83       	std	Z+1, r19	; 0x01
    3638:	20 83       	st	Z, r18
    363a:	6d c0       	rjmp	.+218    	; 0x3716 <__stack+0x1517>
    363c:	ce 01       	movw	r24, r28
    363e:	87 50       	subi	r24, 0x07	; 7
    3640:	9e 4f       	sbci	r25, 0xFE	; 254
    3642:	20 e0       	ldi	r18, 0x00	; 0
    3644:	3f ef       	ldi	r19, 0xFF	; 255
    3646:	4f e7       	ldi	r20, 0x7F	; 127
    3648:	57 e4       	ldi	r21, 0x47	; 71
    364a:	fc 01       	movw	r30, r24
    364c:	60 81       	ld	r22, Z
    364e:	71 81       	ldd	r23, Z+1	; 0x01
    3650:	82 81       	ldd	r24, Z+2	; 0x02
    3652:	93 81       	ldd	r25, Z+3	; 0x03
    3654:	0e 94 61 50 	call	0xa0c2	; 0xa0c2 <__gesf2>
    3658:	18 16       	cp	r1, r24
    365a:	0c f0       	brlt	.+2      	; 0x365e <__stack+0x145f>
    365c:	4a c0       	rjmp	.+148    	; 0x36f2 <__stack+0x14f3>
    365e:	ce 01       	movw	r24, r28
    3660:	89 5b       	subi	r24, 0xB9	; 185
    3662:	9f 4f       	sbci	r25, 0xFF	; 255
    3664:	20 e0       	ldi	r18, 0x00	; 0
    3666:	30 e0       	ldi	r19, 0x00	; 0
    3668:	40 e2       	ldi	r20, 0x20	; 32
    366a:	51 e4       	ldi	r21, 0x41	; 65
    366c:	fc 01       	movw	r30, r24
    366e:	60 81       	ld	r22, Z
    3670:	71 81       	ldd	r23, Z+1	; 0x01
    3672:	82 81       	ldd	r24, Z+2	; 0x02
    3674:	93 81       	ldd	r25, Z+3	; 0x03
    3676:	0e 94 65 50 	call	0xa0ca	; 0xa0ca <__mulsf3>
    367a:	dc 01       	movw	r26, r24
    367c:	cb 01       	movw	r24, r22
    367e:	8e 01       	movw	r16, r28
    3680:	03 50       	subi	r16, 0x03	; 3
    3682:	1e 4f       	sbci	r17, 0xFE	; 254
    3684:	bc 01       	movw	r22, r24
    3686:	cd 01       	movw	r24, r26
    3688:	0e 94 e8 4f 	call	0x9fd0	; 0x9fd0 <__fixunssfsi>
    368c:	dc 01       	movw	r26, r24
    368e:	cb 01       	movw	r24, r22
    3690:	f8 01       	movw	r30, r16
    3692:	91 83       	std	Z+1, r25	; 0x01
    3694:	80 83       	st	Z, r24
    3696:	24 c0       	rjmp	.+72     	; 0x36e0 <__stack+0x14e1>
    3698:	ce 01       	movw	r24, r28
    369a:	81 50       	subi	r24, 0x01	; 1
    369c:	9e 4f       	sbci	r25, 0xFE	; 254
    369e:	20 e7       	ldi	r18, 0x70	; 112
    36a0:	31 e0       	ldi	r19, 0x01	; 1
    36a2:	fc 01       	movw	r30, r24
    36a4:	31 83       	std	Z+1, r19	; 0x01
    36a6:	20 83       	st	Z, r18
    36a8:	ce 01       	movw	r24, r28
    36aa:	81 50       	subi	r24, 0x01	; 1
    36ac:	9e 4f       	sbci	r25, 0xFE	; 254
    36ae:	fc 01       	movw	r30, r24
    36b0:	80 81       	ld	r24, Z
    36b2:	91 81       	ldd	r25, Z+1	; 0x01
    36b4:	01 97       	sbiw	r24, 0x01	; 1
    36b6:	f1 f7       	brne	.-4      	; 0x36b4 <__stack+0x14b5>
    36b8:	9e 01       	movw	r18, r28
    36ba:	21 50       	subi	r18, 0x01	; 1
    36bc:	3e 4f       	sbci	r19, 0xFE	; 254
    36be:	f9 01       	movw	r30, r18
    36c0:	91 83       	std	Z+1, r25	; 0x01
    36c2:	80 83       	st	Z, r24
    36c4:	ce 01       	movw	r24, r28
    36c6:	83 50       	subi	r24, 0x03	; 3
    36c8:	9e 4f       	sbci	r25, 0xFE	; 254
    36ca:	9e 01       	movw	r18, r28
    36cc:	23 50       	subi	r18, 0x03	; 3
    36ce:	3e 4f       	sbci	r19, 0xFE	; 254
    36d0:	f9 01       	movw	r30, r18
    36d2:	20 81       	ld	r18, Z
    36d4:	31 81       	ldd	r19, Z+1	; 0x01
    36d6:	21 50       	subi	r18, 0x01	; 1
    36d8:	31 09       	sbc	r19, r1
    36da:	fc 01       	movw	r30, r24
    36dc:	31 83       	std	Z+1, r19	; 0x01
    36de:	20 83       	st	Z, r18
    36e0:	ce 01       	movw	r24, r28
    36e2:	83 50       	subi	r24, 0x03	; 3
    36e4:	9e 4f       	sbci	r25, 0xFE	; 254
    36e6:	fc 01       	movw	r30, r24
    36e8:	80 81       	ld	r24, Z
    36ea:	91 81       	ldd	r25, Z+1	; 0x01
    36ec:	89 2b       	or	r24, r25
    36ee:	a1 f6       	brne	.-88     	; 0x3698 <__stack+0x1499>
    36f0:	2c c0       	rjmp	.+88     	; 0x374a <__stack+0x154b>
    36f2:	8e 01       	movw	r16, r28
    36f4:	03 50       	subi	r16, 0x03	; 3
    36f6:	1e 4f       	sbci	r17, 0xFE	; 254
    36f8:	ce 01       	movw	r24, r28
    36fa:	87 50       	subi	r24, 0x07	; 7
    36fc:	9e 4f       	sbci	r25, 0xFE	; 254
    36fe:	fc 01       	movw	r30, r24
    3700:	60 81       	ld	r22, Z
    3702:	71 81       	ldd	r23, Z+1	; 0x01
    3704:	82 81       	ldd	r24, Z+2	; 0x02
    3706:	93 81       	ldd	r25, Z+3	; 0x03
    3708:	0e 94 e8 4f 	call	0x9fd0	; 0x9fd0 <__fixunssfsi>
    370c:	dc 01       	movw	r26, r24
    370e:	cb 01       	movw	r24, r22
    3710:	f8 01       	movw	r30, r16
    3712:	91 83       	std	Z+1, r25	; 0x01
    3714:	80 83       	st	Z, r24
    3716:	ce 01       	movw	r24, r28
    3718:	8f 5f       	subi	r24, 0xFF	; 255
    371a:	9d 4f       	sbci	r25, 0xFD	; 253
    371c:	9e 01       	movw	r18, r28
    371e:	23 50       	subi	r18, 0x03	; 3
    3720:	3e 4f       	sbci	r19, 0xFE	; 254
    3722:	f9 01       	movw	r30, r18
    3724:	20 81       	ld	r18, Z
    3726:	31 81       	ldd	r19, Z+1	; 0x01
    3728:	fc 01       	movw	r30, r24
    372a:	31 83       	std	Z+1, r19	; 0x01
    372c:	20 83       	st	Z, r18
    372e:	ce 01       	movw	r24, r28
    3730:	8f 5f       	subi	r24, 0xFF	; 255
    3732:	9d 4f       	sbci	r25, 0xFD	; 253
    3734:	fc 01       	movw	r30, r24
    3736:	80 81       	ld	r24, Z
    3738:	91 81       	ldd	r25, Z+1	; 0x01
    373a:	01 97       	sbiw	r24, 0x01	; 1
    373c:	f1 f7       	brne	.-4      	; 0x373a <__stack+0x153b>
    373e:	9e 01       	movw	r18, r28
    3740:	2f 5f       	subi	r18, 0xFF	; 255
    3742:	3d 4f       	sbci	r19, 0xFD	; 253
    3744:	f9 01       	movw	r30, r18
    3746:	91 83       	std	Z+1, r25	; 0x01
    3748:	80 83       	st	Z, r24
    374a:	0e 94 0c 0d 	call	0x1a18	; 0x1a18 <buzzer_on>
    374e:	9e 01       	movw	r18, r28
    3750:	25 5b       	subi	r18, 0xB5	; 181
    3752:	3f 4f       	sbci	r19, 0xFF	; 255
    3754:	80 e0       	ldi	r24, 0x00	; 0
    3756:	90 e0       	ldi	r25, 0x00	; 0
    3758:	a8 ec       	ldi	r26, 0xC8	; 200
    375a:	b2 e4       	ldi	r27, 0x42	; 66
    375c:	f9 01       	movw	r30, r18
    375e:	80 83       	st	Z, r24
    3760:	91 83       	std	Z+1, r25	; 0x01
    3762:	a2 83       	std	Z+2, r26	; 0x02
    3764:	b3 83       	std	Z+3, r27	; 0x03
    3766:	8e 01       	movw	r16, r28
    3768:	01 51       	subi	r16, 0x11	; 17
    376a:	1e 4f       	sbci	r17, 0xFE	; 254
    376c:	ce 01       	movw	r24, r28
    376e:	85 5b       	subi	r24, 0xB5	; 181
    3770:	9f 4f       	sbci	r25, 0xFF	; 255
    3772:	26 e6       	ldi	r18, 0x66	; 102
    3774:	36 e6       	ldi	r19, 0x66	; 102
    3776:	46 e6       	ldi	r20, 0x66	; 102
    3778:	55 e4       	ldi	r21, 0x45	; 69
    377a:	fc 01       	movw	r30, r24
    377c:	60 81       	ld	r22, Z
    377e:	71 81       	ldd	r23, Z+1	; 0x01
    3780:	82 81       	ldd	r24, Z+2	; 0x02
    3782:	93 81       	ldd	r25, Z+3	; 0x03
    3784:	0e 94 65 50 	call	0xa0ca	; 0xa0ca <__mulsf3>
    3788:	dc 01       	movw	r26, r24
    378a:	cb 01       	movw	r24, r22
    378c:	f8 01       	movw	r30, r16
    378e:	80 83       	st	Z, r24
    3790:	91 83       	std	Z+1, r25	; 0x01
    3792:	a2 83       	std	Z+2, r26	; 0x02
    3794:	b3 83       	std	Z+3, r27	; 0x03
    3796:	ce 01       	movw	r24, r28
    3798:	81 51       	subi	r24, 0x11	; 17
    379a:	9e 4f       	sbci	r25, 0xFE	; 254
    379c:	20 e0       	ldi	r18, 0x00	; 0
    379e:	30 e0       	ldi	r19, 0x00	; 0
    37a0:	40 e8       	ldi	r20, 0x80	; 128
    37a2:	5f e3       	ldi	r21, 0x3F	; 63
    37a4:	fc 01       	movw	r30, r24
    37a6:	60 81       	ld	r22, Z
    37a8:	71 81       	ldd	r23, Z+1	; 0x01
    37aa:	82 81       	ldd	r24, Z+2	; 0x02
    37ac:	93 81       	ldd	r25, Z+3	; 0x03
    37ae:	0e 94 e4 4f 	call	0x9fc8	; 0x9fc8 <__cmpsf2>
    37b2:	88 23       	and	r24, r24
    37b4:	4c f4       	brge	.+18     	; 0x37c8 <__stack+0x15c9>
    37b6:	ce 01       	movw	r24, r28
    37b8:	8d 50       	subi	r24, 0x0D	; 13
    37ba:	9e 4f       	sbci	r25, 0xFE	; 254
    37bc:	21 e0       	ldi	r18, 0x01	; 1
    37be:	30 e0       	ldi	r19, 0x00	; 0
    37c0:	fc 01       	movw	r30, r24
    37c2:	31 83       	std	Z+1, r19	; 0x01
    37c4:	20 83       	st	Z, r18
    37c6:	6d c0       	rjmp	.+218    	; 0x38a2 <__stack+0x16a3>
    37c8:	ce 01       	movw	r24, r28
    37ca:	81 51       	subi	r24, 0x11	; 17
    37cc:	9e 4f       	sbci	r25, 0xFE	; 254
    37ce:	20 e0       	ldi	r18, 0x00	; 0
    37d0:	3f ef       	ldi	r19, 0xFF	; 255
    37d2:	4f e7       	ldi	r20, 0x7F	; 127
    37d4:	57 e4       	ldi	r21, 0x47	; 71
    37d6:	fc 01       	movw	r30, r24
    37d8:	60 81       	ld	r22, Z
    37da:	71 81       	ldd	r23, Z+1	; 0x01
    37dc:	82 81       	ldd	r24, Z+2	; 0x02
    37de:	93 81       	ldd	r25, Z+3	; 0x03
    37e0:	0e 94 61 50 	call	0xa0c2	; 0xa0c2 <__gesf2>
    37e4:	18 16       	cp	r1, r24
    37e6:	0c f0       	brlt	.+2      	; 0x37ea <__stack+0x15eb>
    37e8:	4a c0       	rjmp	.+148    	; 0x387e <__stack+0x167f>
    37ea:	ce 01       	movw	r24, r28
    37ec:	85 5b       	subi	r24, 0xB5	; 181
    37ee:	9f 4f       	sbci	r25, 0xFF	; 255
    37f0:	20 e0       	ldi	r18, 0x00	; 0
    37f2:	30 e0       	ldi	r19, 0x00	; 0
    37f4:	40 e2       	ldi	r20, 0x20	; 32
    37f6:	51 e4       	ldi	r21, 0x41	; 65
    37f8:	fc 01       	movw	r30, r24
    37fa:	60 81       	ld	r22, Z
    37fc:	71 81       	ldd	r23, Z+1	; 0x01
    37fe:	82 81       	ldd	r24, Z+2	; 0x02
    3800:	93 81       	ldd	r25, Z+3	; 0x03
    3802:	0e 94 65 50 	call	0xa0ca	; 0xa0ca <__mulsf3>
    3806:	dc 01       	movw	r26, r24
    3808:	cb 01       	movw	r24, r22
    380a:	8e 01       	movw	r16, r28
    380c:	0d 50       	subi	r16, 0x0D	; 13
    380e:	1e 4f       	sbci	r17, 0xFE	; 254
    3810:	bc 01       	movw	r22, r24
    3812:	cd 01       	movw	r24, r26
    3814:	0e 94 e8 4f 	call	0x9fd0	; 0x9fd0 <__fixunssfsi>
    3818:	dc 01       	movw	r26, r24
    381a:	cb 01       	movw	r24, r22
    381c:	f8 01       	movw	r30, r16
    381e:	91 83       	std	Z+1, r25	; 0x01
    3820:	80 83       	st	Z, r24
    3822:	24 c0       	rjmp	.+72     	; 0x386c <__stack+0x166d>
    3824:	ce 01       	movw	r24, r28
    3826:	8b 50       	subi	r24, 0x0B	; 11
    3828:	9e 4f       	sbci	r25, 0xFE	; 254
    382a:	20 e7       	ldi	r18, 0x70	; 112
    382c:	31 e0       	ldi	r19, 0x01	; 1
    382e:	fc 01       	movw	r30, r24
    3830:	31 83       	std	Z+1, r19	; 0x01
    3832:	20 83       	st	Z, r18
    3834:	ce 01       	movw	r24, r28
    3836:	8b 50       	subi	r24, 0x0B	; 11
    3838:	9e 4f       	sbci	r25, 0xFE	; 254
    383a:	fc 01       	movw	r30, r24
    383c:	80 81       	ld	r24, Z
    383e:	91 81       	ldd	r25, Z+1	; 0x01
    3840:	01 97       	sbiw	r24, 0x01	; 1
    3842:	f1 f7       	brne	.-4      	; 0x3840 <__stack+0x1641>
    3844:	9e 01       	movw	r18, r28
    3846:	2b 50       	subi	r18, 0x0B	; 11
    3848:	3e 4f       	sbci	r19, 0xFE	; 254
    384a:	f9 01       	movw	r30, r18
    384c:	91 83       	std	Z+1, r25	; 0x01
    384e:	80 83       	st	Z, r24
    3850:	ce 01       	movw	r24, r28
    3852:	8d 50       	subi	r24, 0x0D	; 13
    3854:	9e 4f       	sbci	r25, 0xFE	; 254
    3856:	9e 01       	movw	r18, r28
    3858:	2d 50       	subi	r18, 0x0D	; 13
    385a:	3e 4f       	sbci	r19, 0xFE	; 254
    385c:	f9 01       	movw	r30, r18
    385e:	20 81       	ld	r18, Z
    3860:	31 81       	ldd	r19, Z+1	; 0x01
    3862:	21 50       	subi	r18, 0x01	; 1
    3864:	31 09       	sbc	r19, r1
    3866:	fc 01       	movw	r30, r24
    3868:	31 83       	std	Z+1, r19	; 0x01
    386a:	20 83       	st	Z, r18
    386c:	ce 01       	movw	r24, r28
    386e:	8d 50       	subi	r24, 0x0D	; 13
    3870:	9e 4f       	sbci	r25, 0xFE	; 254
    3872:	fc 01       	movw	r30, r24
    3874:	80 81       	ld	r24, Z
    3876:	91 81       	ldd	r25, Z+1	; 0x01
    3878:	89 2b       	or	r24, r25
    387a:	a1 f6       	brne	.-88     	; 0x3824 <__stack+0x1625>
    387c:	2c c0       	rjmp	.+88     	; 0x38d6 <__stack+0x16d7>
    387e:	8e 01       	movw	r16, r28
    3880:	0d 50       	subi	r16, 0x0D	; 13
    3882:	1e 4f       	sbci	r17, 0xFE	; 254
    3884:	ce 01       	movw	r24, r28
    3886:	81 51       	subi	r24, 0x11	; 17
    3888:	9e 4f       	sbci	r25, 0xFE	; 254
    388a:	fc 01       	movw	r30, r24
    388c:	60 81       	ld	r22, Z
    388e:	71 81       	ldd	r23, Z+1	; 0x01
    3890:	82 81       	ldd	r24, Z+2	; 0x02
    3892:	93 81       	ldd	r25, Z+3	; 0x03
    3894:	0e 94 e8 4f 	call	0x9fd0	; 0x9fd0 <__fixunssfsi>
    3898:	dc 01       	movw	r26, r24
    389a:	cb 01       	movw	r24, r22
    389c:	f8 01       	movw	r30, r16
    389e:	91 83       	std	Z+1, r25	; 0x01
    38a0:	80 83       	st	Z, r24
    38a2:	ce 01       	movw	r24, r28
    38a4:	89 50       	subi	r24, 0x09	; 9
    38a6:	9e 4f       	sbci	r25, 0xFE	; 254
    38a8:	9e 01       	movw	r18, r28
    38aa:	2d 50       	subi	r18, 0x0D	; 13
    38ac:	3e 4f       	sbci	r19, 0xFE	; 254
    38ae:	f9 01       	movw	r30, r18
    38b0:	20 81       	ld	r18, Z
    38b2:	31 81       	ldd	r19, Z+1	; 0x01
    38b4:	fc 01       	movw	r30, r24
    38b6:	31 83       	std	Z+1, r19	; 0x01
    38b8:	20 83       	st	Z, r18
    38ba:	ce 01       	movw	r24, r28
    38bc:	89 50       	subi	r24, 0x09	; 9
    38be:	9e 4f       	sbci	r25, 0xFE	; 254
    38c0:	fc 01       	movw	r30, r24
    38c2:	80 81       	ld	r24, Z
    38c4:	91 81       	ldd	r25, Z+1	; 0x01
    38c6:	01 97       	sbiw	r24, 0x01	; 1
    38c8:	f1 f7       	brne	.-4      	; 0x38c6 <__stack+0x16c7>
    38ca:	9e 01       	movw	r18, r28
    38cc:	29 50       	subi	r18, 0x09	; 9
    38ce:	3e 4f       	sbci	r19, 0xFE	; 254
    38d0:	f9 01       	movw	r30, r18
    38d2:	91 83       	std	Z+1, r25	; 0x01
    38d4:	80 83       	st	Z, r24
    38d6:	0e 94 1d 0d 	call	0x1a3a	; 0x1a3a <buzzer_off>
    38da:	9e 01       	movw	r18, r28
    38dc:	21 5b       	subi	r18, 0xB1	; 177
    38de:	3f 4f       	sbci	r19, 0xFF	; 255
    38e0:	80 e0       	ldi	r24, 0x00	; 0
    38e2:	90 e0       	ldi	r25, 0x00	; 0
    38e4:	a8 e4       	ldi	r26, 0x48	; 72
    38e6:	b2 e4       	ldi	r27, 0x42	; 66
    38e8:	f9 01       	movw	r30, r18
    38ea:	80 83       	st	Z, r24
    38ec:	91 83       	std	Z+1, r25	; 0x01
    38ee:	a2 83       	std	Z+2, r26	; 0x02
    38f0:	b3 83       	std	Z+3, r27	; 0x03
    38f2:	8e 01       	movw	r16, r28
    38f4:	0b 51       	subi	r16, 0x1B	; 27
    38f6:	1e 4f       	sbci	r17, 0xFE	; 254
    38f8:	ce 01       	movw	r24, r28
    38fa:	81 5b       	subi	r24, 0xB1	; 177
    38fc:	9f 4f       	sbci	r25, 0xFF	; 255
    38fe:	26 e6       	ldi	r18, 0x66	; 102
    3900:	36 e6       	ldi	r19, 0x66	; 102
    3902:	46 e6       	ldi	r20, 0x66	; 102
    3904:	55 e4       	ldi	r21, 0x45	; 69
    3906:	fc 01       	movw	r30, r24
    3908:	60 81       	ld	r22, Z
    390a:	71 81       	ldd	r23, Z+1	; 0x01
    390c:	82 81       	ldd	r24, Z+2	; 0x02
    390e:	93 81       	ldd	r25, Z+3	; 0x03
    3910:	0e 94 65 50 	call	0xa0ca	; 0xa0ca <__mulsf3>
    3914:	dc 01       	movw	r26, r24
    3916:	cb 01       	movw	r24, r22
    3918:	f8 01       	movw	r30, r16
    391a:	80 83       	st	Z, r24
    391c:	91 83       	std	Z+1, r25	; 0x01
    391e:	a2 83       	std	Z+2, r26	; 0x02
    3920:	b3 83       	std	Z+3, r27	; 0x03
    3922:	ce 01       	movw	r24, r28
    3924:	8b 51       	subi	r24, 0x1B	; 27
    3926:	9e 4f       	sbci	r25, 0xFE	; 254
    3928:	20 e0       	ldi	r18, 0x00	; 0
    392a:	30 e0       	ldi	r19, 0x00	; 0
    392c:	40 e8       	ldi	r20, 0x80	; 128
    392e:	5f e3       	ldi	r21, 0x3F	; 63
    3930:	fc 01       	movw	r30, r24
    3932:	60 81       	ld	r22, Z
    3934:	71 81       	ldd	r23, Z+1	; 0x01
    3936:	82 81       	ldd	r24, Z+2	; 0x02
    3938:	93 81       	ldd	r25, Z+3	; 0x03
    393a:	0e 94 e4 4f 	call	0x9fc8	; 0x9fc8 <__cmpsf2>
    393e:	88 23       	and	r24, r24
    3940:	4c f4       	brge	.+18     	; 0x3954 <__stack+0x1755>
    3942:	ce 01       	movw	r24, r28
    3944:	87 51       	subi	r24, 0x17	; 23
    3946:	9e 4f       	sbci	r25, 0xFE	; 254
    3948:	21 e0       	ldi	r18, 0x01	; 1
    394a:	30 e0       	ldi	r19, 0x00	; 0
    394c:	fc 01       	movw	r30, r24
    394e:	31 83       	std	Z+1, r19	; 0x01
    3950:	20 83       	st	Z, r18
    3952:	6d c0       	rjmp	.+218    	; 0x3a2e <__stack+0x182f>
    3954:	ce 01       	movw	r24, r28
    3956:	8b 51       	subi	r24, 0x1B	; 27
    3958:	9e 4f       	sbci	r25, 0xFE	; 254
    395a:	20 e0       	ldi	r18, 0x00	; 0
    395c:	3f ef       	ldi	r19, 0xFF	; 255
    395e:	4f e7       	ldi	r20, 0x7F	; 127
    3960:	57 e4       	ldi	r21, 0x47	; 71
    3962:	fc 01       	movw	r30, r24
    3964:	60 81       	ld	r22, Z
    3966:	71 81       	ldd	r23, Z+1	; 0x01
    3968:	82 81       	ldd	r24, Z+2	; 0x02
    396a:	93 81       	ldd	r25, Z+3	; 0x03
    396c:	0e 94 61 50 	call	0xa0c2	; 0xa0c2 <__gesf2>
    3970:	18 16       	cp	r1, r24
    3972:	0c f0       	brlt	.+2      	; 0x3976 <__stack+0x1777>
    3974:	4a c0       	rjmp	.+148    	; 0x3a0a <__stack+0x180b>
    3976:	ce 01       	movw	r24, r28
    3978:	81 5b       	subi	r24, 0xB1	; 177
    397a:	9f 4f       	sbci	r25, 0xFF	; 255
    397c:	20 e0       	ldi	r18, 0x00	; 0
    397e:	30 e0       	ldi	r19, 0x00	; 0
    3980:	40 e2       	ldi	r20, 0x20	; 32
    3982:	51 e4       	ldi	r21, 0x41	; 65
    3984:	fc 01       	movw	r30, r24
    3986:	60 81       	ld	r22, Z
    3988:	71 81       	ldd	r23, Z+1	; 0x01
    398a:	82 81       	ldd	r24, Z+2	; 0x02
    398c:	93 81       	ldd	r25, Z+3	; 0x03
    398e:	0e 94 65 50 	call	0xa0ca	; 0xa0ca <__mulsf3>
    3992:	dc 01       	movw	r26, r24
    3994:	cb 01       	movw	r24, r22
    3996:	8e 01       	movw	r16, r28
    3998:	07 51       	subi	r16, 0x17	; 23
    399a:	1e 4f       	sbci	r17, 0xFE	; 254
    399c:	bc 01       	movw	r22, r24
    399e:	cd 01       	movw	r24, r26
    39a0:	0e 94 e8 4f 	call	0x9fd0	; 0x9fd0 <__fixunssfsi>
    39a4:	dc 01       	movw	r26, r24
    39a6:	cb 01       	movw	r24, r22
    39a8:	f8 01       	movw	r30, r16
    39aa:	91 83       	std	Z+1, r25	; 0x01
    39ac:	80 83       	st	Z, r24
    39ae:	24 c0       	rjmp	.+72     	; 0x39f8 <__stack+0x17f9>
    39b0:	ce 01       	movw	r24, r28
    39b2:	85 51       	subi	r24, 0x15	; 21
    39b4:	9e 4f       	sbci	r25, 0xFE	; 254
    39b6:	20 e7       	ldi	r18, 0x70	; 112
    39b8:	31 e0       	ldi	r19, 0x01	; 1
    39ba:	fc 01       	movw	r30, r24
    39bc:	31 83       	std	Z+1, r19	; 0x01
    39be:	20 83       	st	Z, r18
    39c0:	ce 01       	movw	r24, r28
    39c2:	85 51       	subi	r24, 0x15	; 21
    39c4:	9e 4f       	sbci	r25, 0xFE	; 254
    39c6:	fc 01       	movw	r30, r24
    39c8:	80 81       	ld	r24, Z
    39ca:	91 81       	ldd	r25, Z+1	; 0x01
    39cc:	01 97       	sbiw	r24, 0x01	; 1
    39ce:	f1 f7       	brne	.-4      	; 0x39cc <__stack+0x17cd>
    39d0:	9e 01       	movw	r18, r28
    39d2:	25 51       	subi	r18, 0x15	; 21
    39d4:	3e 4f       	sbci	r19, 0xFE	; 254
    39d6:	f9 01       	movw	r30, r18
    39d8:	91 83       	std	Z+1, r25	; 0x01
    39da:	80 83       	st	Z, r24
    39dc:	ce 01       	movw	r24, r28
    39de:	87 51       	subi	r24, 0x17	; 23
    39e0:	9e 4f       	sbci	r25, 0xFE	; 254
    39e2:	9e 01       	movw	r18, r28
    39e4:	27 51       	subi	r18, 0x17	; 23
    39e6:	3e 4f       	sbci	r19, 0xFE	; 254
    39e8:	f9 01       	movw	r30, r18
    39ea:	20 81       	ld	r18, Z
    39ec:	31 81       	ldd	r19, Z+1	; 0x01
    39ee:	21 50       	subi	r18, 0x01	; 1
    39f0:	31 09       	sbc	r19, r1
    39f2:	fc 01       	movw	r30, r24
    39f4:	31 83       	std	Z+1, r19	; 0x01
    39f6:	20 83       	st	Z, r18
    39f8:	ce 01       	movw	r24, r28
    39fa:	87 51       	subi	r24, 0x17	; 23
    39fc:	9e 4f       	sbci	r25, 0xFE	; 254
    39fe:	fc 01       	movw	r30, r24
    3a00:	80 81       	ld	r24, Z
    3a02:	91 81       	ldd	r25, Z+1	; 0x01
    3a04:	89 2b       	or	r24, r25
    3a06:	a1 f6       	brne	.-88     	; 0x39b0 <__stack+0x17b1>
    3a08:	2c c0       	rjmp	.+88     	; 0x3a62 <__stack+0x1863>
    3a0a:	8e 01       	movw	r16, r28
    3a0c:	07 51       	subi	r16, 0x17	; 23
    3a0e:	1e 4f       	sbci	r17, 0xFE	; 254
    3a10:	ce 01       	movw	r24, r28
    3a12:	8b 51       	subi	r24, 0x1B	; 27
    3a14:	9e 4f       	sbci	r25, 0xFE	; 254
    3a16:	fc 01       	movw	r30, r24
    3a18:	60 81       	ld	r22, Z
    3a1a:	71 81       	ldd	r23, Z+1	; 0x01
    3a1c:	82 81       	ldd	r24, Z+2	; 0x02
    3a1e:	93 81       	ldd	r25, Z+3	; 0x03
    3a20:	0e 94 e8 4f 	call	0x9fd0	; 0x9fd0 <__fixunssfsi>
    3a24:	dc 01       	movw	r26, r24
    3a26:	cb 01       	movw	r24, r22
    3a28:	f8 01       	movw	r30, r16
    3a2a:	91 83       	std	Z+1, r25	; 0x01
    3a2c:	80 83       	st	Z, r24
    3a2e:	ce 01       	movw	r24, r28
    3a30:	83 51       	subi	r24, 0x13	; 19
    3a32:	9e 4f       	sbci	r25, 0xFE	; 254
    3a34:	9e 01       	movw	r18, r28
    3a36:	27 51       	subi	r18, 0x17	; 23
    3a38:	3e 4f       	sbci	r19, 0xFE	; 254
    3a3a:	f9 01       	movw	r30, r18
    3a3c:	20 81       	ld	r18, Z
    3a3e:	31 81       	ldd	r19, Z+1	; 0x01
    3a40:	fc 01       	movw	r30, r24
    3a42:	31 83       	std	Z+1, r19	; 0x01
    3a44:	20 83       	st	Z, r18
    3a46:	ce 01       	movw	r24, r28
    3a48:	83 51       	subi	r24, 0x13	; 19
    3a4a:	9e 4f       	sbci	r25, 0xFE	; 254
    3a4c:	fc 01       	movw	r30, r24
    3a4e:	80 81       	ld	r24, Z
    3a50:	91 81       	ldd	r25, Z+1	; 0x01
    3a52:	01 97       	sbiw	r24, 0x01	; 1
    3a54:	f1 f7       	brne	.-4      	; 0x3a52 <__stack+0x1853>
    3a56:	9e 01       	movw	r18, r28
    3a58:	23 51       	subi	r18, 0x13	; 19
    3a5a:	3e 4f       	sbci	r19, 0xFE	; 254
    3a5c:	f9 01       	movw	r30, r18
    3a5e:	91 83       	std	Z+1, r25	; 0x01
    3a60:	80 83       	st	Z, r24
    3a62:	0e 94 0c 0d 	call	0x1a18	; 0x1a18 <buzzer_on>
    3a66:	9e 01       	movw	r18, r28
    3a68:	2d 5a       	subi	r18, 0xAD	; 173
    3a6a:	3f 4f       	sbci	r19, 0xFF	; 255
    3a6c:	80 e0       	ldi	r24, 0x00	; 0
    3a6e:	90 e0       	ldi	r25, 0x00	; 0
    3a70:	a8 ec       	ldi	r26, 0xC8	; 200
    3a72:	b2 e4       	ldi	r27, 0x42	; 66
    3a74:	f9 01       	movw	r30, r18
    3a76:	80 83       	st	Z, r24
    3a78:	91 83       	std	Z+1, r25	; 0x01
    3a7a:	a2 83       	std	Z+2, r26	; 0x02
    3a7c:	b3 83       	std	Z+3, r27	; 0x03
    3a7e:	8e 01       	movw	r16, r28
    3a80:	05 52       	subi	r16, 0x25	; 37
    3a82:	1e 4f       	sbci	r17, 0xFE	; 254
    3a84:	ce 01       	movw	r24, r28
    3a86:	8d 5a       	subi	r24, 0xAD	; 173
    3a88:	9f 4f       	sbci	r25, 0xFF	; 255
    3a8a:	26 e6       	ldi	r18, 0x66	; 102
    3a8c:	36 e6       	ldi	r19, 0x66	; 102
    3a8e:	46 e6       	ldi	r20, 0x66	; 102
    3a90:	55 e4       	ldi	r21, 0x45	; 69
    3a92:	fc 01       	movw	r30, r24
    3a94:	60 81       	ld	r22, Z
    3a96:	71 81       	ldd	r23, Z+1	; 0x01
    3a98:	82 81       	ldd	r24, Z+2	; 0x02
    3a9a:	93 81       	ldd	r25, Z+3	; 0x03
    3a9c:	0e 94 65 50 	call	0xa0ca	; 0xa0ca <__mulsf3>
    3aa0:	dc 01       	movw	r26, r24
    3aa2:	cb 01       	movw	r24, r22
    3aa4:	f8 01       	movw	r30, r16
    3aa6:	80 83       	st	Z, r24
    3aa8:	91 83       	std	Z+1, r25	; 0x01
    3aaa:	a2 83       	std	Z+2, r26	; 0x02
    3aac:	b3 83       	std	Z+3, r27	; 0x03
    3aae:	ce 01       	movw	r24, r28
    3ab0:	85 52       	subi	r24, 0x25	; 37
    3ab2:	9e 4f       	sbci	r25, 0xFE	; 254
    3ab4:	20 e0       	ldi	r18, 0x00	; 0
    3ab6:	30 e0       	ldi	r19, 0x00	; 0
    3ab8:	40 e8       	ldi	r20, 0x80	; 128
    3aba:	5f e3       	ldi	r21, 0x3F	; 63
    3abc:	fc 01       	movw	r30, r24
    3abe:	60 81       	ld	r22, Z
    3ac0:	71 81       	ldd	r23, Z+1	; 0x01
    3ac2:	82 81       	ldd	r24, Z+2	; 0x02
    3ac4:	93 81       	ldd	r25, Z+3	; 0x03
    3ac6:	0e 94 e4 4f 	call	0x9fc8	; 0x9fc8 <__cmpsf2>
    3aca:	88 23       	and	r24, r24
    3acc:	4c f4       	brge	.+18     	; 0x3ae0 <__stack+0x18e1>
    3ace:	ce 01       	movw	r24, r28
    3ad0:	81 52       	subi	r24, 0x21	; 33
    3ad2:	9e 4f       	sbci	r25, 0xFE	; 254
    3ad4:	21 e0       	ldi	r18, 0x01	; 1
    3ad6:	30 e0       	ldi	r19, 0x00	; 0
    3ad8:	fc 01       	movw	r30, r24
    3ada:	31 83       	std	Z+1, r19	; 0x01
    3adc:	20 83       	st	Z, r18
    3ade:	6d c0       	rjmp	.+218    	; 0x3bba <__stack+0x19bb>
    3ae0:	ce 01       	movw	r24, r28
    3ae2:	85 52       	subi	r24, 0x25	; 37
    3ae4:	9e 4f       	sbci	r25, 0xFE	; 254
    3ae6:	20 e0       	ldi	r18, 0x00	; 0
    3ae8:	3f ef       	ldi	r19, 0xFF	; 255
    3aea:	4f e7       	ldi	r20, 0x7F	; 127
    3aec:	57 e4       	ldi	r21, 0x47	; 71
    3aee:	fc 01       	movw	r30, r24
    3af0:	60 81       	ld	r22, Z
    3af2:	71 81       	ldd	r23, Z+1	; 0x01
    3af4:	82 81       	ldd	r24, Z+2	; 0x02
    3af6:	93 81       	ldd	r25, Z+3	; 0x03
    3af8:	0e 94 61 50 	call	0xa0c2	; 0xa0c2 <__gesf2>
    3afc:	18 16       	cp	r1, r24
    3afe:	0c f0       	brlt	.+2      	; 0x3b02 <__stack+0x1903>
    3b00:	4a c0       	rjmp	.+148    	; 0x3b96 <__stack+0x1997>
    3b02:	ce 01       	movw	r24, r28
    3b04:	8d 5a       	subi	r24, 0xAD	; 173
    3b06:	9f 4f       	sbci	r25, 0xFF	; 255
    3b08:	20 e0       	ldi	r18, 0x00	; 0
    3b0a:	30 e0       	ldi	r19, 0x00	; 0
    3b0c:	40 e2       	ldi	r20, 0x20	; 32
    3b0e:	51 e4       	ldi	r21, 0x41	; 65
    3b10:	fc 01       	movw	r30, r24
    3b12:	60 81       	ld	r22, Z
    3b14:	71 81       	ldd	r23, Z+1	; 0x01
    3b16:	82 81       	ldd	r24, Z+2	; 0x02
    3b18:	93 81       	ldd	r25, Z+3	; 0x03
    3b1a:	0e 94 65 50 	call	0xa0ca	; 0xa0ca <__mulsf3>
    3b1e:	dc 01       	movw	r26, r24
    3b20:	cb 01       	movw	r24, r22
    3b22:	8e 01       	movw	r16, r28
    3b24:	01 52       	subi	r16, 0x21	; 33
    3b26:	1e 4f       	sbci	r17, 0xFE	; 254
    3b28:	bc 01       	movw	r22, r24
    3b2a:	cd 01       	movw	r24, r26
    3b2c:	0e 94 e8 4f 	call	0x9fd0	; 0x9fd0 <__fixunssfsi>
    3b30:	dc 01       	movw	r26, r24
    3b32:	cb 01       	movw	r24, r22
    3b34:	f8 01       	movw	r30, r16
    3b36:	91 83       	std	Z+1, r25	; 0x01
    3b38:	80 83       	st	Z, r24
    3b3a:	24 c0       	rjmp	.+72     	; 0x3b84 <__stack+0x1985>
    3b3c:	ce 01       	movw	r24, r28
    3b3e:	8f 51       	subi	r24, 0x1F	; 31
    3b40:	9e 4f       	sbci	r25, 0xFE	; 254
    3b42:	20 e7       	ldi	r18, 0x70	; 112
    3b44:	31 e0       	ldi	r19, 0x01	; 1
    3b46:	fc 01       	movw	r30, r24
    3b48:	31 83       	std	Z+1, r19	; 0x01
    3b4a:	20 83       	st	Z, r18
    3b4c:	ce 01       	movw	r24, r28
    3b4e:	8f 51       	subi	r24, 0x1F	; 31
    3b50:	9e 4f       	sbci	r25, 0xFE	; 254
    3b52:	fc 01       	movw	r30, r24
    3b54:	80 81       	ld	r24, Z
    3b56:	91 81       	ldd	r25, Z+1	; 0x01
    3b58:	01 97       	sbiw	r24, 0x01	; 1
    3b5a:	f1 f7       	brne	.-4      	; 0x3b58 <__stack+0x1959>
    3b5c:	9e 01       	movw	r18, r28
    3b5e:	2f 51       	subi	r18, 0x1F	; 31
    3b60:	3e 4f       	sbci	r19, 0xFE	; 254
    3b62:	f9 01       	movw	r30, r18
    3b64:	91 83       	std	Z+1, r25	; 0x01
    3b66:	80 83       	st	Z, r24
    3b68:	ce 01       	movw	r24, r28
    3b6a:	81 52       	subi	r24, 0x21	; 33
    3b6c:	9e 4f       	sbci	r25, 0xFE	; 254
    3b6e:	9e 01       	movw	r18, r28
    3b70:	21 52       	subi	r18, 0x21	; 33
    3b72:	3e 4f       	sbci	r19, 0xFE	; 254
    3b74:	f9 01       	movw	r30, r18
    3b76:	20 81       	ld	r18, Z
    3b78:	31 81       	ldd	r19, Z+1	; 0x01
    3b7a:	21 50       	subi	r18, 0x01	; 1
    3b7c:	31 09       	sbc	r19, r1
    3b7e:	fc 01       	movw	r30, r24
    3b80:	31 83       	std	Z+1, r19	; 0x01
    3b82:	20 83       	st	Z, r18
    3b84:	ce 01       	movw	r24, r28
    3b86:	81 52       	subi	r24, 0x21	; 33
    3b88:	9e 4f       	sbci	r25, 0xFE	; 254
    3b8a:	fc 01       	movw	r30, r24
    3b8c:	80 81       	ld	r24, Z
    3b8e:	91 81       	ldd	r25, Z+1	; 0x01
    3b90:	89 2b       	or	r24, r25
    3b92:	a1 f6       	brne	.-88     	; 0x3b3c <__stack+0x193d>
    3b94:	2c c0       	rjmp	.+88     	; 0x3bee <__stack+0x19ef>
    3b96:	8e 01       	movw	r16, r28
    3b98:	01 52       	subi	r16, 0x21	; 33
    3b9a:	1e 4f       	sbci	r17, 0xFE	; 254
    3b9c:	ce 01       	movw	r24, r28
    3b9e:	85 52       	subi	r24, 0x25	; 37
    3ba0:	9e 4f       	sbci	r25, 0xFE	; 254
    3ba2:	fc 01       	movw	r30, r24
    3ba4:	60 81       	ld	r22, Z
    3ba6:	71 81       	ldd	r23, Z+1	; 0x01
    3ba8:	82 81       	ldd	r24, Z+2	; 0x02
    3baa:	93 81       	ldd	r25, Z+3	; 0x03
    3bac:	0e 94 e8 4f 	call	0x9fd0	; 0x9fd0 <__fixunssfsi>
    3bb0:	dc 01       	movw	r26, r24
    3bb2:	cb 01       	movw	r24, r22
    3bb4:	f8 01       	movw	r30, r16
    3bb6:	91 83       	std	Z+1, r25	; 0x01
    3bb8:	80 83       	st	Z, r24
    3bba:	ce 01       	movw	r24, r28
    3bbc:	8d 51       	subi	r24, 0x1D	; 29
    3bbe:	9e 4f       	sbci	r25, 0xFE	; 254
    3bc0:	9e 01       	movw	r18, r28
    3bc2:	21 52       	subi	r18, 0x21	; 33
    3bc4:	3e 4f       	sbci	r19, 0xFE	; 254
    3bc6:	f9 01       	movw	r30, r18
    3bc8:	20 81       	ld	r18, Z
    3bca:	31 81       	ldd	r19, Z+1	; 0x01
    3bcc:	fc 01       	movw	r30, r24
    3bce:	31 83       	std	Z+1, r19	; 0x01
    3bd0:	20 83       	st	Z, r18
    3bd2:	ce 01       	movw	r24, r28
    3bd4:	8d 51       	subi	r24, 0x1D	; 29
    3bd6:	9e 4f       	sbci	r25, 0xFE	; 254
    3bd8:	fc 01       	movw	r30, r24
    3bda:	80 81       	ld	r24, Z
    3bdc:	91 81       	ldd	r25, Z+1	; 0x01
    3bde:	01 97       	sbiw	r24, 0x01	; 1
    3be0:	f1 f7       	brne	.-4      	; 0x3bde <__stack+0x19df>
    3be2:	9e 01       	movw	r18, r28
    3be4:	2d 51       	subi	r18, 0x1D	; 29
    3be6:	3e 4f       	sbci	r19, 0xFE	; 254
    3be8:	f9 01       	movw	r30, r18
    3bea:	91 83       	std	Z+1, r25	; 0x01
    3bec:	80 83       	st	Z, r24
    3bee:	0e 94 1d 0d 	call	0x1a3a	; 0x1a3a <buzzer_off>
    3bf2:	9e 01       	movw	r18, r28
    3bf4:	29 5a       	subi	r18, 0xA9	; 169
    3bf6:	3f 4f       	sbci	r19, 0xFF	; 255
    3bf8:	80 e0       	ldi	r24, 0x00	; 0
    3bfa:	90 e0       	ldi	r25, 0x00	; 0
    3bfc:	a8 e4       	ldi	r26, 0x48	; 72
    3bfe:	b2 e4       	ldi	r27, 0x42	; 66
    3c00:	f9 01       	movw	r30, r18
    3c02:	80 83       	st	Z, r24
    3c04:	91 83       	std	Z+1, r25	; 0x01
    3c06:	a2 83       	std	Z+2, r26	; 0x02
    3c08:	b3 83       	std	Z+3, r27	; 0x03
    3c0a:	8e 01       	movw	r16, r28
    3c0c:	0f 52       	subi	r16, 0x2F	; 47
    3c0e:	1e 4f       	sbci	r17, 0xFE	; 254
    3c10:	ce 01       	movw	r24, r28
    3c12:	89 5a       	subi	r24, 0xA9	; 169
    3c14:	9f 4f       	sbci	r25, 0xFF	; 255
    3c16:	26 e6       	ldi	r18, 0x66	; 102
    3c18:	36 e6       	ldi	r19, 0x66	; 102
    3c1a:	46 e6       	ldi	r20, 0x66	; 102
    3c1c:	55 e4       	ldi	r21, 0x45	; 69
    3c1e:	fc 01       	movw	r30, r24
    3c20:	60 81       	ld	r22, Z
    3c22:	71 81       	ldd	r23, Z+1	; 0x01
    3c24:	82 81       	ldd	r24, Z+2	; 0x02
    3c26:	93 81       	ldd	r25, Z+3	; 0x03
    3c28:	0e 94 65 50 	call	0xa0ca	; 0xa0ca <__mulsf3>
    3c2c:	dc 01       	movw	r26, r24
    3c2e:	cb 01       	movw	r24, r22
    3c30:	f8 01       	movw	r30, r16
    3c32:	80 83       	st	Z, r24
    3c34:	91 83       	std	Z+1, r25	; 0x01
    3c36:	a2 83       	std	Z+2, r26	; 0x02
    3c38:	b3 83       	std	Z+3, r27	; 0x03
    3c3a:	ce 01       	movw	r24, r28
    3c3c:	8f 52       	subi	r24, 0x2F	; 47
    3c3e:	9e 4f       	sbci	r25, 0xFE	; 254
    3c40:	20 e0       	ldi	r18, 0x00	; 0
    3c42:	30 e0       	ldi	r19, 0x00	; 0
    3c44:	40 e8       	ldi	r20, 0x80	; 128
    3c46:	5f e3       	ldi	r21, 0x3F	; 63
    3c48:	fc 01       	movw	r30, r24
    3c4a:	60 81       	ld	r22, Z
    3c4c:	71 81       	ldd	r23, Z+1	; 0x01
    3c4e:	82 81       	ldd	r24, Z+2	; 0x02
    3c50:	93 81       	ldd	r25, Z+3	; 0x03
    3c52:	0e 94 e4 4f 	call	0x9fc8	; 0x9fc8 <__cmpsf2>
    3c56:	88 23       	and	r24, r24
    3c58:	4c f4       	brge	.+18     	; 0x3c6c <__stack+0x1a6d>
    3c5a:	ce 01       	movw	r24, r28
    3c5c:	8b 52       	subi	r24, 0x2B	; 43
    3c5e:	9e 4f       	sbci	r25, 0xFE	; 254
    3c60:	21 e0       	ldi	r18, 0x01	; 1
    3c62:	30 e0       	ldi	r19, 0x00	; 0
    3c64:	fc 01       	movw	r30, r24
    3c66:	31 83       	std	Z+1, r19	; 0x01
    3c68:	20 83       	st	Z, r18
    3c6a:	6d c0       	rjmp	.+218    	; 0x3d46 <__stack+0x1b47>
    3c6c:	ce 01       	movw	r24, r28
    3c6e:	8f 52       	subi	r24, 0x2F	; 47
    3c70:	9e 4f       	sbci	r25, 0xFE	; 254
    3c72:	20 e0       	ldi	r18, 0x00	; 0
    3c74:	3f ef       	ldi	r19, 0xFF	; 255
    3c76:	4f e7       	ldi	r20, 0x7F	; 127
    3c78:	57 e4       	ldi	r21, 0x47	; 71
    3c7a:	fc 01       	movw	r30, r24
    3c7c:	60 81       	ld	r22, Z
    3c7e:	71 81       	ldd	r23, Z+1	; 0x01
    3c80:	82 81       	ldd	r24, Z+2	; 0x02
    3c82:	93 81       	ldd	r25, Z+3	; 0x03
    3c84:	0e 94 61 50 	call	0xa0c2	; 0xa0c2 <__gesf2>
    3c88:	18 16       	cp	r1, r24
    3c8a:	0c f0       	brlt	.+2      	; 0x3c8e <__stack+0x1a8f>
    3c8c:	4a c0       	rjmp	.+148    	; 0x3d22 <__stack+0x1b23>
    3c8e:	ce 01       	movw	r24, r28
    3c90:	89 5a       	subi	r24, 0xA9	; 169
    3c92:	9f 4f       	sbci	r25, 0xFF	; 255
    3c94:	20 e0       	ldi	r18, 0x00	; 0
    3c96:	30 e0       	ldi	r19, 0x00	; 0
    3c98:	40 e2       	ldi	r20, 0x20	; 32
    3c9a:	51 e4       	ldi	r21, 0x41	; 65
    3c9c:	fc 01       	movw	r30, r24
    3c9e:	60 81       	ld	r22, Z
    3ca0:	71 81       	ldd	r23, Z+1	; 0x01
    3ca2:	82 81       	ldd	r24, Z+2	; 0x02
    3ca4:	93 81       	ldd	r25, Z+3	; 0x03
    3ca6:	0e 94 65 50 	call	0xa0ca	; 0xa0ca <__mulsf3>
    3caa:	dc 01       	movw	r26, r24
    3cac:	cb 01       	movw	r24, r22
    3cae:	8e 01       	movw	r16, r28
    3cb0:	0b 52       	subi	r16, 0x2B	; 43
    3cb2:	1e 4f       	sbci	r17, 0xFE	; 254
    3cb4:	bc 01       	movw	r22, r24
    3cb6:	cd 01       	movw	r24, r26
    3cb8:	0e 94 e8 4f 	call	0x9fd0	; 0x9fd0 <__fixunssfsi>
    3cbc:	dc 01       	movw	r26, r24
    3cbe:	cb 01       	movw	r24, r22
    3cc0:	f8 01       	movw	r30, r16
    3cc2:	91 83       	std	Z+1, r25	; 0x01
    3cc4:	80 83       	st	Z, r24
    3cc6:	24 c0       	rjmp	.+72     	; 0x3d10 <__stack+0x1b11>
    3cc8:	ce 01       	movw	r24, r28
    3cca:	89 52       	subi	r24, 0x29	; 41
    3ccc:	9e 4f       	sbci	r25, 0xFE	; 254
    3cce:	20 e7       	ldi	r18, 0x70	; 112
    3cd0:	31 e0       	ldi	r19, 0x01	; 1
    3cd2:	fc 01       	movw	r30, r24
    3cd4:	31 83       	std	Z+1, r19	; 0x01
    3cd6:	20 83       	st	Z, r18
    3cd8:	ce 01       	movw	r24, r28
    3cda:	89 52       	subi	r24, 0x29	; 41
    3cdc:	9e 4f       	sbci	r25, 0xFE	; 254
    3cde:	fc 01       	movw	r30, r24
    3ce0:	80 81       	ld	r24, Z
    3ce2:	91 81       	ldd	r25, Z+1	; 0x01
    3ce4:	01 97       	sbiw	r24, 0x01	; 1
    3ce6:	f1 f7       	brne	.-4      	; 0x3ce4 <__stack+0x1ae5>
    3ce8:	9e 01       	movw	r18, r28
    3cea:	29 52       	subi	r18, 0x29	; 41
    3cec:	3e 4f       	sbci	r19, 0xFE	; 254
    3cee:	f9 01       	movw	r30, r18
    3cf0:	91 83       	std	Z+1, r25	; 0x01
    3cf2:	80 83       	st	Z, r24
    3cf4:	ce 01       	movw	r24, r28
    3cf6:	8b 52       	subi	r24, 0x2B	; 43
    3cf8:	9e 4f       	sbci	r25, 0xFE	; 254
    3cfa:	9e 01       	movw	r18, r28
    3cfc:	2b 52       	subi	r18, 0x2B	; 43
    3cfe:	3e 4f       	sbci	r19, 0xFE	; 254
    3d00:	f9 01       	movw	r30, r18
    3d02:	20 81       	ld	r18, Z
    3d04:	31 81       	ldd	r19, Z+1	; 0x01
    3d06:	21 50       	subi	r18, 0x01	; 1
    3d08:	31 09       	sbc	r19, r1
    3d0a:	fc 01       	movw	r30, r24
    3d0c:	31 83       	std	Z+1, r19	; 0x01
    3d0e:	20 83       	st	Z, r18
    3d10:	ce 01       	movw	r24, r28
    3d12:	8b 52       	subi	r24, 0x2B	; 43
    3d14:	9e 4f       	sbci	r25, 0xFE	; 254
    3d16:	fc 01       	movw	r30, r24
    3d18:	80 81       	ld	r24, Z
    3d1a:	91 81       	ldd	r25, Z+1	; 0x01
    3d1c:	89 2b       	or	r24, r25
    3d1e:	a1 f6       	brne	.-88     	; 0x3cc8 <__stack+0x1ac9>
    3d20:	2c c0       	rjmp	.+88     	; 0x3d7a <__stack+0x1b7b>
    3d22:	8e 01       	movw	r16, r28
    3d24:	0b 52       	subi	r16, 0x2B	; 43
    3d26:	1e 4f       	sbci	r17, 0xFE	; 254
    3d28:	ce 01       	movw	r24, r28
    3d2a:	8f 52       	subi	r24, 0x2F	; 47
    3d2c:	9e 4f       	sbci	r25, 0xFE	; 254
    3d2e:	fc 01       	movw	r30, r24
    3d30:	60 81       	ld	r22, Z
    3d32:	71 81       	ldd	r23, Z+1	; 0x01
    3d34:	82 81       	ldd	r24, Z+2	; 0x02
    3d36:	93 81       	ldd	r25, Z+3	; 0x03
    3d38:	0e 94 e8 4f 	call	0x9fd0	; 0x9fd0 <__fixunssfsi>
    3d3c:	dc 01       	movw	r26, r24
    3d3e:	cb 01       	movw	r24, r22
    3d40:	f8 01       	movw	r30, r16
    3d42:	91 83       	std	Z+1, r25	; 0x01
    3d44:	80 83       	st	Z, r24
    3d46:	ce 01       	movw	r24, r28
    3d48:	87 52       	subi	r24, 0x27	; 39
    3d4a:	9e 4f       	sbci	r25, 0xFE	; 254
    3d4c:	9e 01       	movw	r18, r28
    3d4e:	2b 52       	subi	r18, 0x2B	; 43
    3d50:	3e 4f       	sbci	r19, 0xFE	; 254
    3d52:	f9 01       	movw	r30, r18
    3d54:	20 81       	ld	r18, Z
    3d56:	31 81       	ldd	r19, Z+1	; 0x01
    3d58:	fc 01       	movw	r30, r24
    3d5a:	31 83       	std	Z+1, r19	; 0x01
    3d5c:	20 83       	st	Z, r18
    3d5e:	ce 01       	movw	r24, r28
    3d60:	87 52       	subi	r24, 0x27	; 39
    3d62:	9e 4f       	sbci	r25, 0xFE	; 254
    3d64:	fc 01       	movw	r30, r24
    3d66:	80 81       	ld	r24, Z
    3d68:	91 81       	ldd	r25, Z+1	; 0x01
    3d6a:	01 97       	sbiw	r24, 0x01	; 1
    3d6c:	f1 f7       	brne	.-4      	; 0x3d6a <__stack+0x1b6b>
    3d6e:	9e 01       	movw	r18, r28
    3d70:	27 52       	subi	r18, 0x27	; 39
    3d72:	3e 4f       	sbci	r19, 0xFE	; 254
    3d74:	f9 01       	movw	r30, r18
    3d76:	91 83       	std	Z+1, r25	; 0x01
    3d78:	80 83       	st	Z, r24
    3d7a:	0e 94 96 0e 	call	0x1d2c	; 0x1d2c <left>
    3d7e:	80 e0       	ldi	r24, 0x00	; 0
    3d80:	90 e8       	ldi	r25, 0x80	; 128
    3d82:	ab eb       	ldi	r26, 0xBB	; 187
    3d84:	b4 e4       	ldi	r27, 0x44	; 68
    3d86:	8f a7       	std	Y+47, r24	; 0x2f
    3d88:	98 ab       	std	Y+48, r25	; 0x30
    3d8a:	a9 ab       	std	Y+49, r26	; 0x31
    3d8c:	ba ab       	std	Y+50, r27	; 0x32
    3d8e:	8e 01       	movw	r16, r28
    3d90:	09 53       	subi	r16, 0x39	; 57
    3d92:	1e 4f       	sbci	r17, 0xFE	; 254
    3d94:	26 e6       	ldi	r18, 0x66	; 102
    3d96:	36 e6       	ldi	r19, 0x66	; 102
    3d98:	46 e6       	ldi	r20, 0x66	; 102
    3d9a:	55 e4       	ldi	r21, 0x45	; 69
    3d9c:	6f a5       	ldd	r22, Y+47	; 0x2f
    3d9e:	78 a9       	ldd	r23, Y+48	; 0x30
    3da0:	89 a9       	ldd	r24, Y+49	; 0x31
    3da2:	9a a9       	ldd	r25, Y+50	; 0x32
    3da4:	0e 94 65 50 	call	0xa0ca	; 0xa0ca <__mulsf3>
    3da8:	dc 01       	movw	r26, r24
    3daa:	cb 01       	movw	r24, r22
    3dac:	f8 01       	movw	r30, r16
    3dae:	80 83       	st	Z, r24
    3db0:	91 83       	std	Z+1, r25	; 0x01
    3db2:	a2 83       	std	Z+2, r26	; 0x02
    3db4:	b3 83       	std	Z+3, r27	; 0x03
    3db6:	ce 01       	movw	r24, r28
    3db8:	89 53       	subi	r24, 0x39	; 57
    3dba:	9e 4f       	sbci	r25, 0xFE	; 254
    3dbc:	20 e0       	ldi	r18, 0x00	; 0
    3dbe:	30 e0       	ldi	r19, 0x00	; 0
    3dc0:	40 e8       	ldi	r20, 0x80	; 128
    3dc2:	5f e3       	ldi	r21, 0x3F	; 63
    3dc4:	fc 01       	movw	r30, r24
    3dc6:	60 81       	ld	r22, Z
    3dc8:	71 81       	ldd	r23, Z+1	; 0x01
    3dca:	82 81       	ldd	r24, Z+2	; 0x02
    3dcc:	93 81       	ldd	r25, Z+3	; 0x03
    3dce:	0e 94 e4 4f 	call	0x9fc8	; 0x9fc8 <__cmpsf2>
    3dd2:	88 23       	and	r24, r24
    3dd4:	4c f4       	brge	.+18     	; 0x3de8 <__stack+0x1be9>
    3dd6:	ce 01       	movw	r24, r28
    3dd8:	85 53       	subi	r24, 0x35	; 53
    3dda:	9e 4f       	sbci	r25, 0xFE	; 254
    3ddc:	21 e0       	ldi	r18, 0x01	; 1
    3dde:	30 e0       	ldi	r19, 0x00	; 0
    3de0:	fc 01       	movw	r30, r24
    3de2:	31 83       	std	Z+1, r19	; 0x01
    3de4:	20 83       	st	Z, r18
    3de6:	69 c0       	rjmp	.+210    	; 0x3eba <__stack+0x1cbb>
    3de8:	ce 01       	movw	r24, r28
    3dea:	89 53       	subi	r24, 0x39	; 57
    3dec:	9e 4f       	sbci	r25, 0xFE	; 254
    3dee:	20 e0       	ldi	r18, 0x00	; 0
    3df0:	3f ef       	ldi	r19, 0xFF	; 255
    3df2:	4f e7       	ldi	r20, 0x7F	; 127
    3df4:	57 e4       	ldi	r21, 0x47	; 71
    3df6:	fc 01       	movw	r30, r24
    3df8:	60 81       	ld	r22, Z
    3dfa:	71 81       	ldd	r23, Z+1	; 0x01
    3dfc:	82 81       	ldd	r24, Z+2	; 0x02
    3dfe:	93 81       	ldd	r25, Z+3	; 0x03
    3e00:	0e 94 61 50 	call	0xa0c2	; 0xa0c2 <__gesf2>
    3e04:	18 16       	cp	r1, r24
    3e06:	0c f0       	brlt	.+2      	; 0x3e0a <__stack+0x1c0b>
    3e08:	46 c0       	rjmp	.+140    	; 0x3e96 <__stack+0x1c97>
    3e0a:	20 e0       	ldi	r18, 0x00	; 0
    3e0c:	30 e0       	ldi	r19, 0x00	; 0
    3e0e:	40 e2       	ldi	r20, 0x20	; 32
    3e10:	51 e4       	ldi	r21, 0x41	; 65
    3e12:	6f a5       	ldd	r22, Y+47	; 0x2f
    3e14:	78 a9       	ldd	r23, Y+48	; 0x30
    3e16:	89 a9       	ldd	r24, Y+49	; 0x31
    3e18:	9a a9       	ldd	r25, Y+50	; 0x32
    3e1a:	0e 94 65 50 	call	0xa0ca	; 0xa0ca <__mulsf3>
    3e1e:	dc 01       	movw	r26, r24
    3e20:	cb 01       	movw	r24, r22
    3e22:	8e 01       	movw	r16, r28
    3e24:	05 53       	subi	r16, 0x35	; 53
    3e26:	1e 4f       	sbci	r17, 0xFE	; 254
    3e28:	bc 01       	movw	r22, r24
    3e2a:	cd 01       	movw	r24, r26
    3e2c:	0e 94 e8 4f 	call	0x9fd0	; 0x9fd0 <__fixunssfsi>
    3e30:	dc 01       	movw	r26, r24
    3e32:	cb 01       	movw	r24, r22
    3e34:	f8 01       	movw	r30, r16
    3e36:	91 83       	std	Z+1, r25	; 0x01
    3e38:	80 83       	st	Z, r24
    3e3a:	24 c0       	rjmp	.+72     	; 0x3e84 <__stack+0x1c85>
    3e3c:	ce 01       	movw	r24, r28
    3e3e:	83 53       	subi	r24, 0x33	; 51
    3e40:	9e 4f       	sbci	r25, 0xFE	; 254
    3e42:	20 e7       	ldi	r18, 0x70	; 112
    3e44:	31 e0       	ldi	r19, 0x01	; 1
    3e46:	fc 01       	movw	r30, r24
    3e48:	31 83       	std	Z+1, r19	; 0x01
    3e4a:	20 83       	st	Z, r18
    3e4c:	ce 01       	movw	r24, r28
    3e4e:	83 53       	subi	r24, 0x33	; 51
    3e50:	9e 4f       	sbci	r25, 0xFE	; 254
    3e52:	fc 01       	movw	r30, r24
    3e54:	80 81       	ld	r24, Z
    3e56:	91 81       	ldd	r25, Z+1	; 0x01
    3e58:	01 97       	sbiw	r24, 0x01	; 1
    3e5a:	f1 f7       	brne	.-4      	; 0x3e58 <__stack+0x1c59>
    3e5c:	9e 01       	movw	r18, r28
    3e5e:	23 53       	subi	r18, 0x33	; 51
    3e60:	3e 4f       	sbci	r19, 0xFE	; 254
    3e62:	f9 01       	movw	r30, r18
    3e64:	91 83       	std	Z+1, r25	; 0x01
    3e66:	80 83       	st	Z, r24
    3e68:	ce 01       	movw	r24, r28
    3e6a:	85 53       	subi	r24, 0x35	; 53
    3e6c:	9e 4f       	sbci	r25, 0xFE	; 254
    3e6e:	9e 01       	movw	r18, r28
    3e70:	25 53       	subi	r18, 0x35	; 53
    3e72:	3e 4f       	sbci	r19, 0xFE	; 254
    3e74:	f9 01       	movw	r30, r18
    3e76:	20 81       	ld	r18, Z
    3e78:	31 81       	ldd	r19, Z+1	; 0x01
    3e7a:	21 50       	subi	r18, 0x01	; 1
    3e7c:	31 09       	sbc	r19, r1
    3e7e:	fc 01       	movw	r30, r24
    3e80:	31 83       	std	Z+1, r19	; 0x01
    3e82:	20 83       	st	Z, r18
    3e84:	ce 01       	movw	r24, r28
    3e86:	85 53       	subi	r24, 0x35	; 53
    3e88:	9e 4f       	sbci	r25, 0xFE	; 254
    3e8a:	fc 01       	movw	r30, r24
    3e8c:	80 81       	ld	r24, Z
    3e8e:	91 81       	ldd	r25, Z+1	; 0x01
    3e90:	89 2b       	or	r24, r25
    3e92:	a1 f6       	brne	.-88     	; 0x3e3c <__stack+0x1c3d>
    3e94:	2c c0       	rjmp	.+88     	; 0x3eee <__stack+0x1cef>
    3e96:	8e 01       	movw	r16, r28
    3e98:	05 53       	subi	r16, 0x35	; 53
    3e9a:	1e 4f       	sbci	r17, 0xFE	; 254
    3e9c:	ce 01       	movw	r24, r28
    3e9e:	89 53       	subi	r24, 0x39	; 57
    3ea0:	9e 4f       	sbci	r25, 0xFE	; 254
    3ea2:	fc 01       	movw	r30, r24
    3ea4:	60 81       	ld	r22, Z
    3ea6:	71 81       	ldd	r23, Z+1	; 0x01
    3ea8:	82 81       	ldd	r24, Z+2	; 0x02
    3eaa:	93 81       	ldd	r25, Z+3	; 0x03
    3eac:	0e 94 e8 4f 	call	0x9fd0	; 0x9fd0 <__fixunssfsi>
    3eb0:	dc 01       	movw	r26, r24
    3eb2:	cb 01       	movw	r24, r22
    3eb4:	f8 01       	movw	r30, r16
    3eb6:	91 83       	std	Z+1, r25	; 0x01
    3eb8:	80 83       	st	Z, r24
    3eba:	ce 01       	movw	r24, r28
    3ebc:	81 53       	subi	r24, 0x31	; 49
    3ebe:	9e 4f       	sbci	r25, 0xFE	; 254
    3ec0:	9e 01       	movw	r18, r28
    3ec2:	25 53       	subi	r18, 0x35	; 53
    3ec4:	3e 4f       	sbci	r19, 0xFE	; 254
    3ec6:	f9 01       	movw	r30, r18
    3ec8:	20 81       	ld	r18, Z
    3eca:	31 81       	ldd	r19, Z+1	; 0x01
    3ecc:	fc 01       	movw	r30, r24
    3ece:	31 83       	std	Z+1, r19	; 0x01
    3ed0:	20 83       	st	Z, r18
    3ed2:	ce 01       	movw	r24, r28
    3ed4:	81 53       	subi	r24, 0x31	; 49
    3ed6:	9e 4f       	sbci	r25, 0xFE	; 254
    3ed8:	fc 01       	movw	r30, r24
    3eda:	80 81       	ld	r24, Z
    3edc:	91 81       	ldd	r25, Z+1	; 0x01
    3ede:	01 97       	sbiw	r24, 0x01	; 1
    3ee0:	f1 f7       	brne	.-4      	; 0x3ede <__stack+0x1cdf>
    3ee2:	9e 01       	movw	r18, r28
    3ee4:	21 53       	subi	r18, 0x31	; 49
    3ee6:	3e 4f       	sbci	r19, 0xFE	; 254
    3ee8:	f9 01       	movw	r30, r18
    3eea:	91 83       	std	Z+1, r25	; 0x01
    3eec:	80 83       	st	Z, r24
    3eee:	0e 94 aa 0e 	call	0x1d54	; 0x1d54 <stop>
    3ef2:	85 e6       	ldi	r24, 0x65	; 101
    3ef4:	90 e0       	ldi	r25, 0x00	; 0
    3ef6:	9a 83       	std	Y+2, r25	; 0x02
    3ef8:	89 83       	std	Y+1, r24	; 0x01
    3efa:	89 81       	ldd	r24, Y+1	; 0x01
    3efc:	9a 81       	ldd	r25, Y+2	; 0x02
    3efe:	40 97       	sbiw	r24, 0x10	; 16
    3f00:	09 f0       	breq	.+2      	; 0x3f04 <__stack+0x1d05>
    3f02:	b3 c3       	rjmp	.+1894   	; 0x466a <__stack+0x246b>
    3f04:	8b 81       	ldd	r24, Y+3	; 0x03
    3f06:	9c 81       	ldd	r25, Y+4	; 0x04
    3f08:	40 97       	sbiw	r24, 0x10	; 16
    3f0a:	09 f4       	brne	.+2      	; 0x3f0e <__stack+0x1d0f>
    3f0c:	92 ca       	rjmp	.-2780   	; 0x3432 <__stack+0x1233>
    3f0e:	ad c3       	rjmp	.+1882   	; 0x466a <__stack+0x246b>
    3f10:	83 e0       	ldi	r24, 0x03	; 3
    3f12:	0e 94 f1 0d 	call	0x1be2	; 0x1be2 <ADC_Conversion>
    3f16:	80 93 33 02 	sts	0x0233, r24	; 0x800233 <Left_white_line>
    3f1a:	82 e0       	ldi	r24, 0x02	; 2
    3f1c:	0e 94 f1 0d 	call	0x1be2	; 0x1be2 <ADC_Conversion>
    3f20:	80 93 34 02 	sts	0x0234, r24	; 0x800234 <Center_white_line>
    3f24:	81 e0       	ldi	r24, 0x01	; 1
    3f26:	0e 94 f1 0d 	call	0x1be2	; 0x1be2 <ADC_Conversion>
    3f2a:	80 93 35 02 	sts	0x0235, r24	; 0x800235 <Right_white_line>
    3f2e:	10 92 32 02 	sts	0x0232, r1	; 0x800232 <__data_end>
    3f32:	43 e0       	ldi	r20, 0x03	; 3
    3f34:	61 e0       	ldi	r22, 0x01	; 1
    3f36:	81 e0       	ldi	r24, 0x01	; 1
    3f38:	0e 94 35 0e 	call	0x1c6a	; 0x1c6a <print_sensor>
    3f3c:	42 e0       	ldi	r20, 0x02	; 2
    3f3e:	65 e0       	ldi	r22, 0x05	; 5
    3f40:	81 e0       	ldi	r24, 0x01	; 1
    3f42:	0e 94 35 0e 	call	0x1c6a	; 0x1c6a <print_sensor>
    3f46:	41 e0       	ldi	r20, 0x01	; 1
    3f48:	69 e0       	ldi	r22, 0x09	; 9
    3f4a:	81 e0       	ldi	r24, 0x01	; 1
    3f4c:	0e 94 35 0e 	call	0x1c6a	; 0x1c6a <print_sensor>
    3f50:	89 81       	ldd	r24, Y+1	; 0x01
    3f52:	9a 81       	ldd	r25, Y+2	; 0x02
    3f54:	22 e0       	ldi	r18, 0x02	; 2
    3f56:	30 e0       	ldi	r19, 0x00	; 0
    3f58:	ac 01       	movw	r20, r24
    3f5a:	67 e0       	ldi	r22, 0x07	; 7
    3f5c:	82 e0       	ldi	r24, 0x02	; 2
    3f5e:	0e 94 f7 09 	call	0x13ee	; 0x13ee <lcd_print>
    3f62:	80 91 34 02 	lds	r24, 0x0234	; 0x800234 <Center_white_line>
    3f66:	88 30       	cpi	r24, 0x08	; 8
    3f68:	48 f0       	brcs	.+18     	; 0x3f7c <__stack+0x1d7d>
    3f6a:	81 e0       	ldi	r24, 0x01	; 1
    3f6c:	80 93 32 02 	sts	0x0232, r24	; 0x800232 <__data_end>
    3f70:	0e 94 8c 0e 	call	0x1d18	; 0x1d18 <forward>
    3f74:	60 ea       	ldi	r22, 0xA0	; 160
    3f76:	80 ea       	ldi	r24, 0xA0	; 160
    3f78:	0e 94 52 0e 	call	0x1ca4	; 0x1ca4 <velocity>
    3f7c:	80 91 33 02 	lds	r24, 0x0233	; 0x800233 <Left_white_line>
    3f80:	87 30       	cpi	r24, 0x07	; 7
    3f82:	68 f4       	brcc	.+26     	; 0x3f9e <__stack+0x1d9f>
    3f84:	80 91 32 02 	lds	r24, 0x0232	; 0x800232 <__data_end>
    3f88:	88 23       	and	r24, r24
    3f8a:	49 f4       	brne	.+18     	; 0x3f9e <__stack+0x1d9f>
    3f8c:	81 e0       	ldi	r24, 0x01	; 1
    3f8e:	80 93 32 02 	sts	0x0232, r24	; 0x800232 <__data_end>
    3f92:	0e 94 8c 0e 	call	0x1d18	; 0x1d18 <forward>
    3f96:	62 e3       	ldi	r22, 0x32	; 50
    3f98:	82 e8       	ldi	r24, 0x82	; 130
    3f9a:	0e 94 52 0e 	call	0x1ca4	; 0x1ca4 <velocity>
    3f9e:	80 91 35 02 	lds	r24, 0x0235	; 0x800235 <Right_white_line>
    3fa2:	88 30       	cpi	r24, 0x08	; 8
    3fa4:	68 f4       	brcc	.+26     	; 0x3fc0 <__stack+0x1dc1>
    3fa6:	80 91 32 02 	lds	r24, 0x0232	; 0x800232 <__data_end>
    3faa:	88 23       	and	r24, r24
    3fac:	49 f4       	brne	.+18     	; 0x3fc0 <__stack+0x1dc1>
    3fae:	81 e0       	ldi	r24, 0x01	; 1
    3fb0:	80 93 32 02 	sts	0x0232, r24	; 0x800232 <__data_end>
    3fb4:	0e 94 8c 0e 	call	0x1d18	; 0x1d18 <forward>
    3fb8:	62 e8       	ldi	r22, 0x82	; 130
    3fba:	82 e3       	ldi	r24, 0x32	; 50
    3fbc:	0e 94 52 0e 	call	0x1ca4	; 0x1ca4 <velocity>
    3fc0:	80 91 34 02 	lds	r24, 0x0234	; 0x800234 <Center_white_line>
    3fc4:	87 30       	cpi	r24, 0x07	; 7
    3fc6:	70 f4       	brcc	.+28     	; 0x3fe4 <__stack+0x1de5>
    3fc8:	80 91 33 02 	lds	r24, 0x0233	; 0x800233 <Left_white_line>
    3fcc:	87 30       	cpi	r24, 0x07	; 7
    3fce:	50 f4       	brcc	.+20     	; 0x3fe4 <__stack+0x1de5>
    3fd0:	80 91 35 02 	lds	r24, 0x0235	; 0x800235 <Right_white_line>
    3fd4:	87 30       	cpi	r24, 0x07	; 7
    3fd6:	30 f4       	brcc	.+12     	; 0x3fe4 <__stack+0x1de5>
    3fd8:	0e 94 8c 0e 	call	0x1d18	; 0x1d18 <forward>
    3fdc:	60 ea       	ldi	r22, 0xA0	; 160
    3fde:	80 ea       	ldi	r24, 0xA0	; 160
    3fe0:	0e 94 52 0e 	call	0x1ca4	; 0x1ca4 <velocity>
    3fe4:	80 91 34 02 	lds	r24, 0x0234	; 0x800234 <Center_white_line>
    3fe8:	88 30       	cpi	r24, 0x08	; 8
    3fea:	08 f4       	brcc	.+2      	; 0x3fee <__stack+0x1def>
    3fec:	3e c3       	rjmp	.+1660   	; 0x466a <__stack+0x246b>
    3fee:	80 91 33 02 	lds	r24, 0x0233	; 0x800233 <Left_white_line>
    3ff2:	88 30       	cpi	r24, 0x08	; 8
    3ff4:	08 f4       	brcc	.+2      	; 0x3ff8 <__stack+0x1df9>
    3ff6:	39 c3       	rjmp	.+1650   	; 0x466a <__stack+0x246b>
    3ff8:	80 91 35 02 	lds	r24, 0x0235	; 0x800235 <Right_white_line>
    3ffc:	88 30       	cpi	r24, 0x08	; 8
    3ffe:	08 f4       	brcc	.+2      	; 0x4002 <__stack+0x1e03>
    4000:	34 c3       	rjmp	.+1640   	; 0x466a <__stack+0x246b>
    4002:	84 e0       	ldi	r24, 0x04	; 4
    4004:	90 e0       	ldi	r25, 0x00	; 0
    4006:	9a 83       	std	Y+2, r25	; 0x02
    4008:	89 83       	std	Y+1, r24	; 0x01
    400a:	89 81       	ldd	r24, Y+1	; 0x01
    400c:	9a 81       	ldd	r25, Y+2	; 0x02
    400e:	22 e0       	ldi	r18, 0x02	; 2
    4010:	30 e0       	ldi	r19, 0x00	; 0
    4012:	ac 01       	movw	r20, r24
    4014:	67 e0       	ldi	r22, 0x07	; 7
    4016:	82 e0       	ldi	r24, 0x02	; 2
    4018:	0e 94 f7 09 	call	0x13ee	; 0x13ee <lcd_print>
    401c:	84 e0       	ldi	r24, 0x04	; 4
    401e:	90 e0       	ldi	r25, 0x00	; 0
    4020:	9c 83       	std	Y+4, r25	; 0x04
    4022:	8b 83       	std	Y+3, r24	; 0x03
    4024:	8b 81       	ldd	r24, Y+3	; 0x03
    4026:	9c 81       	ldd	r25, Y+4	; 0x04
    4028:	22 e0       	ldi	r18, 0x02	; 2
    402a:	30 e0       	ldi	r19, 0x00	; 0
    402c:	ac 01       	movw	r20, r24
    402e:	61 e0       	ldi	r22, 0x01	; 1
    4030:	82 e0       	ldi	r24, 0x02	; 2
    4032:	0e 94 f7 09 	call	0x13ee	; 0x13ee <lcd_print>
    4036:	0e 94 0c 0d 	call	0x1a18	; 0x1a18 <buzzer_on>
    403a:	9e 01       	movw	r18, r28
    403c:	21 5a       	subi	r18, 0xA1	; 161
    403e:	3f 4f       	sbci	r19, 0xFF	; 255
    4040:	80 e0       	ldi	r24, 0x00	; 0
    4042:	90 e0       	ldi	r25, 0x00	; 0
    4044:	a8 ec       	ldi	r26, 0xC8	; 200
    4046:	b2 e4       	ldi	r27, 0x42	; 66
    4048:	f9 01       	movw	r30, r18
    404a:	80 83       	st	Z, r24
    404c:	91 83       	std	Z+1, r25	; 0x01
    404e:	a2 83       	std	Z+2, r26	; 0x02
    4050:	b3 83       	std	Z+3, r27	; 0x03
    4052:	8e 01       	movw	r16, r28
    4054:	05 5d       	subi	r16, 0xD5	; 213
    4056:	1d 4f       	sbci	r17, 0xFD	; 253
    4058:	ce 01       	movw	r24, r28
    405a:	81 5a       	subi	r24, 0xA1	; 161
    405c:	9f 4f       	sbci	r25, 0xFF	; 255
    405e:	26 e6       	ldi	r18, 0x66	; 102
    4060:	36 e6       	ldi	r19, 0x66	; 102
    4062:	46 e6       	ldi	r20, 0x66	; 102
    4064:	55 e4       	ldi	r21, 0x45	; 69
    4066:	fc 01       	movw	r30, r24
    4068:	60 81       	ld	r22, Z
    406a:	71 81       	ldd	r23, Z+1	; 0x01
    406c:	82 81       	ldd	r24, Z+2	; 0x02
    406e:	93 81       	ldd	r25, Z+3	; 0x03
    4070:	0e 94 65 50 	call	0xa0ca	; 0xa0ca <__mulsf3>
    4074:	dc 01       	movw	r26, r24
    4076:	cb 01       	movw	r24, r22
    4078:	f8 01       	movw	r30, r16
    407a:	80 83       	st	Z, r24
    407c:	91 83       	std	Z+1, r25	; 0x01
    407e:	a2 83       	std	Z+2, r26	; 0x02
    4080:	b3 83       	std	Z+3, r27	; 0x03
    4082:	ce 01       	movw	r24, r28
    4084:	85 5d       	subi	r24, 0xD5	; 213
    4086:	9d 4f       	sbci	r25, 0xFD	; 253
    4088:	20 e0       	ldi	r18, 0x00	; 0
    408a:	30 e0       	ldi	r19, 0x00	; 0
    408c:	40 e8       	ldi	r20, 0x80	; 128
    408e:	5f e3       	ldi	r21, 0x3F	; 63
    4090:	fc 01       	movw	r30, r24
    4092:	60 81       	ld	r22, Z
    4094:	71 81       	ldd	r23, Z+1	; 0x01
    4096:	82 81       	ldd	r24, Z+2	; 0x02
    4098:	93 81       	ldd	r25, Z+3	; 0x03
    409a:	0e 94 e4 4f 	call	0x9fc8	; 0x9fc8 <__cmpsf2>
    409e:	88 23       	and	r24, r24
    40a0:	4c f4       	brge	.+18     	; 0x40b4 <__stack+0x1eb5>
    40a2:	ce 01       	movw	r24, r28
    40a4:	81 5d       	subi	r24, 0xD1	; 209
    40a6:	9d 4f       	sbci	r25, 0xFD	; 253
    40a8:	21 e0       	ldi	r18, 0x01	; 1
    40aa:	30 e0       	ldi	r19, 0x00	; 0
    40ac:	fc 01       	movw	r30, r24
    40ae:	31 83       	std	Z+1, r19	; 0x01
    40b0:	20 83       	st	Z, r18
    40b2:	6d c0       	rjmp	.+218    	; 0x418e <__stack+0x1f8f>
    40b4:	ce 01       	movw	r24, r28
    40b6:	85 5d       	subi	r24, 0xD5	; 213
    40b8:	9d 4f       	sbci	r25, 0xFD	; 253
    40ba:	20 e0       	ldi	r18, 0x00	; 0
    40bc:	3f ef       	ldi	r19, 0xFF	; 255
    40be:	4f e7       	ldi	r20, 0x7F	; 127
    40c0:	57 e4       	ldi	r21, 0x47	; 71
    40c2:	fc 01       	movw	r30, r24
    40c4:	60 81       	ld	r22, Z
    40c6:	71 81       	ldd	r23, Z+1	; 0x01
    40c8:	82 81       	ldd	r24, Z+2	; 0x02
    40ca:	93 81       	ldd	r25, Z+3	; 0x03
    40cc:	0e 94 61 50 	call	0xa0c2	; 0xa0c2 <__gesf2>
    40d0:	18 16       	cp	r1, r24
    40d2:	0c f0       	brlt	.+2      	; 0x40d6 <__stack+0x1ed7>
    40d4:	4a c0       	rjmp	.+148    	; 0x416a <__stack+0x1f6b>
    40d6:	ce 01       	movw	r24, r28
    40d8:	81 5a       	subi	r24, 0xA1	; 161
    40da:	9f 4f       	sbci	r25, 0xFF	; 255
    40dc:	20 e0       	ldi	r18, 0x00	; 0
    40de:	30 e0       	ldi	r19, 0x00	; 0
    40e0:	40 e2       	ldi	r20, 0x20	; 32
    40e2:	51 e4       	ldi	r21, 0x41	; 65
    40e4:	fc 01       	movw	r30, r24
    40e6:	60 81       	ld	r22, Z
    40e8:	71 81       	ldd	r23, Z+1	; 0x01
    40ea:	82 81       	ldd	r24, Z+2	; 0x02
    40ec:	93 81       	ldd	r25, Z+3	; 0x03
    40ee:	0e 94 65 50 	call	0xa0ca	; 0xa0ca <__mulsf3>
    40f2:	dc 01       	movw	r26, r24
    40f4:	cb 01       	movw	r24, r22
    40f6:	8e 01       	movw	r16, r28
    40f8:	01 5d       	subi	r16, 0xD1	; 209
    40fa:	1d 4f       	sbci	r17, 0xFD	; 253
    40fc:	bc 01       	movw	r22, r24
    40fe:	cd 01       	movw	r24, r26
    4100:	0e 94 e8 4f 	call	0x9fd0	; 0x9fd0 <__fixunssfsi>
    4104:	dc 01       	movw	r26, r24
    4106:	cb 01       	movw	r24, r22
    4108:	f8 01       	movw	r30, r16
    410a:	91 83       	std	Z+1, r25	; 0x01
    410c:	80 83       	st	Z, r24
    410e:	24 c0       	rjmp	.+72     	; 0x4158 <__stack+0x1f59>
    4110:	ce 01       	movw	r24, r28
    4112:	8f 5c       	subi	r24, 0xCF	; 207
    4114:	9d 4f       	sbci	r25, 0xFD	; 253
    4116:	20 e7       	ldi	r18, 0x70	; 112
    4118:	31 e0       	ldi	r19, 0x01	; 1
    411a:	fc 01       	movw	r30, r24
    411c:	31 83       	std	Z+1, r19	; 0x01
    411e:	20 83       	st	Z, r18
    4120:	ce 01       	movw	r24, r28
    4122:	8f 5c       	subi	r24, 0xCF	; 207
    4124:	9d 4f       	sbci	r25, 0xFD	; 253
    4126:	fc 01       	movw	r30, r24
    4128:	80 81       	ld	r24, Z
    412a:	91 81       	ldd	r25, Z+1	; 0x01
    412c:	01 97       	sbiw	r24, 0x01	; 1
    412e:	f1 f7       	brne	.-4      	; 0x412c <__stack+0x1f2d>
    4130:	9e 01       	movw	r18, r28
    4132:	2f 5c       	subi	r18, 0xCF	; 207
    4134:	3d 4f       	sbci	r19, 0xFD	; 253
    4136:	f9 01       	movw	r30, r18
    4138:	91 83       	std	Z+1, r25	; 0x01
    413a:	80 83       	st	Z, r24
    413c:	ce 01       	movw	r24, r28
    413e:	81 5d       	subi	r24, 0xD1	; 209
    4140:	9d 4f       	sbci	r25, 0xFD	; 253
    4142:	9e 01       	movw	r18, r28
    4144:	21 5d       	subi	r18, 0xD1	; 209
    4146:	3d 4f       	sbci	r19, 0xFD	; 253
    4148:	f9 01       	movw	r30, r18
    414a:	20 81       	ld	r18, Z
    414c:	31 81       	ldd	r19, Z+1	; 0x01
    414e:	21 50       	subi	r18, 0x01	; 1
    4150:	31 09       	sbc	r19, r1
    4152:	fc 01       	movw	r30, r24
    4154:	31 83       	std	Z+1, r19	; 0x01
    4156:	20 83       	st	Z, r18
    4158:	ce 01       	movw	r24, r28
    415a:	81 5d       	subi	r24, 0xD1	; 209
    415c:	9d 4f       	sbci	r25, 0xFD	; 253
    415e:	fc 01       	movw	r30, r24
    4160:	80 81       	ld	r24, Z
    4162:	91 81       	ldd	r25, Z+1	; 0x01
    4164:	89 2b       	or	r24, r25
    4166:	a1 f6       	brne	.-88     	; 0x4110 <__stack+0x1f11>
    4168:	2c c0       	rjmp	.+88     	; 0x41c2 <__stack+0x1fc3>
    416a:	8e 01       	movw	r16, r28
    416c:	01 5d       	subi	r16, 0xD1	; 209
    416e:	1d 4f       	sbci	r17, 0xFD	; 253
    4170:	ce 01       	movw	r24, r28
    4172:	85 5d       	subi	r24, 0xD5	; 213
    4174:	9d 4f       	sbci	r25, 0xFD	; 253
    4176:	fc 01       	movw	r30, r24
    4178:	60 81       	ld	r22, Z
    417a:	71 81       	ldd	r23, Z+1	; 0x01
    417c:	82 81       	ldd	r24, Z+2	; 0x02
    417e:	93 81       	ldd	r25, Z+3	; 0x03
    4180:	0e 94 e8 4f 	call	0x9fd0	; 0x9fd0 <__fixunssfsi>
    4184:	dc 01       	movw	r26, r24
    4186:	cb 01       	movw	r24, r22
    4188:	f8 01       	movw	r30, r16
    418a:	91 83       	std	Z+1, r25	; 0x01
    418c:	80 83       	st	Z, r24
    418e:	ce 01       	movw	r24, r28
    4190:	8d 5c       	subi	r24, 0xCD	; 205
    4192:	9d 4f       	sbci	r25, 0xFD	; 253
    4194:	9e 01       	movw	r18, r28
    4196:	21 5d       	subi	r18, 0xD1	; 209
    4198:	3d 4f       	sbci	r19, 0xFD	; 253
    419a:	f9 01       	movw	r30, r18
    419c:	20 81       	ld	r18, Z
    419e:	31 81       	ldd	r19, Z+1	; 0x01
    41a0:	fc 01       	movw	r30, r24
    41a2:	31 83       	std	Z+1, r19	; 0x01
    41a4:	20 83       	st	Z, r18
    41a6:	ce 01       	movw	r24, r28
    41a8:	8d 5c       	subi	r24, 0xCD	; 205
    41aa:	9d 4f       	sbci	r25, 0xFD	; 253
    41ac:	fc 01       	movw	r30, r24
    41ae:	80 81       	ld	r24, Z
    41b0:	91 81       	ldd	r25, Z+1	; 0x01
    41b2:	01 97       	sbiw	r24, 0x01	; 1
    41b4:	f1 f7       	brne	.-4      	; 0x41b2 <__stack+0x1fb3>
    41b6:	9e 01       	movw	r18, r28
    41b8:	2d 5c       	subi	r18, 0xCD	; 205
    41ba:	3d 4f       	sbci	r19, 0xFD	; 253
    41bc:	f9 01       	movw	r30, r18
    41be:	91 83       	std	Z+1, r25	; 0x01
    41c0:	80 83       	st	Z, r24
    41c2:	0e 94 1d 0d 	call	0x1a3a	; 0x1a3a <buzzer_off>
    41c6:	9e 01       	movw	r18, r28
    41c8:	2d 59       	subi	r18, 0x9D	; 157
    41ca:	3f 4f       	sbci	r19, 0xFF	; 255
    41cc:	80 e0       	ldi	r24, 0x00	; 0
    41ce:	90 e0       	ldi	r25, 0x00	; 0
    41d0:	a8 e4       	ldi	r26, 0x48	; 72
    41d2:	b2 e4       	ldi	r27, 0x42	; 66
    41d4:	f9 01       	movw	r30, r18
    41d6:	80 83       	st	Z, r24
    41d8:	91 83       	std	Z+1, r25	; 0x01
    41da:	a2 83       	std	Z+2, r26	; 0x02
    41dc:	b3 83       	std	Z+3, r27	; 0x03
    41de:	8e 01       	movw	r16, r28
    41e0:	0f 5d       	subi	r16, 0xDF	; 223
    41e2:	1d 4f       	sbci	r17, 0xFD	; 253
    41e4:	ce 01       	movw	r24, r28
    41e6:	8d 59       	subi	r24, 0x9D	; 157
    41e8:	9f 4f       	sbci	r25, 0xFF	; 255
    41ea:	26 e6       	ldi	r18, 0x66	; 102
    41ec:	36 e6       	ldi	r19, 0x66	; 102
    41ee:	46 e6       	ldi	r20, 0x66	; 102
    41f0:	55 e4       	ldi	r21, 0x45	; 69
    41f2:	fc 01       	movw	r30, r24
    41f4:	60 81       	ld	r22, Z
    41f6:	71 81       	ldd	r23, Z+1	; 0x01
    41f8:	82 81       	ldd	r24, Z+2	; 0x02
    41fa:	93 81       	ldd	r25, Z+3	; 0x03
    41fc:	0e 94 65 50 	call	0xa0ca	; 0xa0ca <__mulsf3>
    4200:	dc 01       	movw	r26, r24
    4202:	cb 01       	movw	r24, r22
    4204:	f8 01       	movw	r30, r16
    4206:	80 83       	st	Z, r24
    4208:	91 83       	std	Z+1, r25	; 0x01
    420a:	a2 83       	std	Z+2, r26	; 0x02
    420c:	b3 83       	std	Z+3, r27	; 0x03
    420e:	ce 01       	movw	r24, r28
    4210:	8f 5d       	subi	r24, 0xDF	; 223
    4212:	9d 4f       	sbci	r25, 0xFD	; 253
    4214:	20 e0       	ldi	r18, 0x00	; 0
    4216:	30 e0       	ldi	r19, 0x00	; 0
    4218:	40 e8       	ldi	r20, 0x80	; 128
    421a:	5f e3       	ldi	r21, 0x3F	; 63
    421c:	fc 01       	movw	r30, r24
    421e:	60 81       	ld	r22, Z
    4220:	71 81       	ldd	r23, Z+1	; 0x01
    4222:	82 81       	ldd	r24, Z+2	; 0x02
    4224:	93 81       	ldd	r25, Z+3	; 0x03
    4226:	0e 94 e4 4f 	call	0x9fc8	; 0x9fc8 <__cmpsf2>
    422a:	88 23       	and	r24, r24
    422c:	4c f4       	brge	.+18     	; 0x4240 <__stack+0x2041>
    422e:	ce 01       	movw	r24, r28
    4230:	8b 5d       	subi	r24, 0xDB	; 219
    4232:	9d 4f       	sbci	r25, 0xFD	; 253
    4234:	21 e0       	ldi	r18, 0x01	; 1
    4236:	30 e0       	ldi	r19, 0x00	; 0
    4238:	fc 01       	movw	r30, r24
    423a:	31 83       	std	Z+1, r19	; 0x01
    423c:	20 83       	st	Z, r18
    423e:	6d c0       	rjmp	.+218    	; 0x431a <__stack+0x211b>
    4240:	ce 01       	movw	r24, r28
    4242:	8f 5d       	subi	r24, 0xDF	; 223
    4244:	9d 4f       	sbci	r25, 0xFD	; 253
    4246:	20 e0       	ldi	r18, 0x00	; 0
    4248:	3f ef       	ldi	r19, 0xFF	; 255
    424a:	4f e7       	ldi	r20, 0x7F	; 127
    424c:	57 e4       	ldi	r21, 0x47	; 71
    424e:	fc 01       	movw	r30, r24
    4250:	60 81       	ld	r22, Z
    4252:	71 81       	ldd	r23, Z+1	; 0x01
    4254:	82 81       	ldd	r24, Z+2	; 0x02
    4256:	93 81       	ldd	r25, Z+3	; 0x03
    4258:	0e 94 61 50 	call	0xa0c2	; 0xa0c2 <__gesf2>
    425c:	18 16       	cp	r1, r24
    425e:	0c f0       	brlt	.+2      	; 0x4262 <__stack+0x2063>
    4260:	4a c0       	rjmp	.+148    	; 0x42f6 <__stack+0x20f7>
    4262:	ce 01       	movw	r24, r28
    4264:	8d 59       	subi	r24, 0x9D	; 157
    4266:	9f 4f       	sbci	r25, 0xFF	; 255
    4268:	20 e0       	ldi	r18, 0x00	; 0
    426a:	30 e0       	ldi	r19, 0x00	; 0
    426c:	40 e2       	ldi	r20, 0x20	; 32
    426e:	51 e4       	ldi	r21, 0x41	; 65
    4270:	fc 01       	movw	r30, r24
    4272:	60 81       	ld	r22, Z
    4274:	71 81       	ldd	r23, Z+1	; 0x01
    4276:	82 81       	ldd	r24, Z+2	; 0x02
    4278:	93 81       	ldd	r25, Z+3	; 0x03
    427a:	0e 94 65 50 	call	0xa0ca	; 0xa0ca <__mulsf3>
    427e:	dc 01       	movw	r26, r24
    4280:	cb 01       	movw	r24, r22
    4282:	8e 01       	movw	r16, r28
    4284:	0b 5d       	subi	r16, 0xDB	; 219
    4286:	1d 4f       	sbci	r17, 0xFD	; 253
    4288:	bc 01       	movw	r22, r24
    428a:	cd 01       	movw	r24, r26
    428c:	0e 94 e8 4f 	call	0x9fd0	; 0x9fd0 <__fixunssfsi>
    4290:	dc 01       	movw	r26, r24
    4292:	cb 01       	movw	r24, r22
    4294:	f8 01       	movw	r30, r16
    4296:	91 83       	std	Z+1, r25	; 0x01
    4298:	80 83       	st	Z, r24
    429a:	24 c0       	rjmp	.+72     	; 0x42e4 <__stack+0x20e5>
    429c:	ce 01       	movw	r24, r28
    429e:	89 5d       	subi	r24, 0xD9	; 217
    42a0:	9d 4f       	sbci	r25, 0xFD	; 253
    42a2:	20 e7       	ldi	r18, 0x70	; 112
    42a4:	31 e0       	ldi	r19, 0x01	; 1
    42a6:	fc 01       	movw	r30, r24
    42a8:	31 83       	std	Z+1, r19	; 0x01
    42aa:	20 83       	st	Z, r18
    42ac:	ce 01       	movw	r24, r28
    42ae:	89 5d       	subi	r24, 0xD9	; 217
    42b0:	9d 4f       	sbci	r25, 0xFD	; 253
    42b2:	fc 01       	movw	r30, r24
    42b4:	80 81       	ld	r24, Z
    42b6:	91 81       	ldd	r25, Z+1	; 0x01
    42b8:	01 97       	sbiw	r24, 0x01	; 1
    42ba:	f1 f7       	brne	.-4      	; 0x42b8 <__stack+0x20b9>
    42bc:	9e 01       	movw	r18, r28
    42be:	29 5d       	subi	r18, 0xD9	; 217
    42c0:	3d 4f       	sbci	r19, 0xFD	; 253
    42c2:	f9 01       	movw	r30, r18
    42c4:	91 83       	std	Z+1, r25	; 0x01
    42c6:	80 83       	st	Z, r24
    42c8:	ce 01       	movw	r24, r28
    42ca:	8b 5d       	subi	r24, 0xDB	; 219
    42cc:	9d 4f       	sbci	r25, 0xFD	; 253
    42ce:	9e 01       	movw	r18, r28
    42d0:	2b 5d       	subi	r18, 0xDB	; 219
    42d2:	3d 4f       	sbci	r19, 0xFD	; 253
    42d4:	f9 01       	movw	r30, r18
    42d6:	20 81       	ld	r18, Z
    42d8:	31 81       	ldd	r19, Z+1	; 0x01
    42da:	21 50       	subi	r18, 0x01	; 1
    42dc:	31 09       	sbc	r19, r1
    42de:	fc 01       	movw	r30, r24
    42e0:	31 83       	std	Z+1, r19	; 0x01
    42e2:	20 83       	st	Z, r18
    42e4:	ce 01       	movw	r24, r28
    42e6:	8b 5d       	subi	r24, 0xDB	; 219
    42e8:	9d 4f       	sbci	r25, 0xFD	; 253
    42ea:	fc 01       	movw	r30, r24
    42ec:	80 81       	ld	r24, Z
    42ee:	91 81       	ldd	r25, Z+1	; 0x01
    42f0:	89 2b       	or	r24, r25
    42f2:	a1 f6       	brne	.-88     	; 0x429c <__stack+0x209d>
    42f4:	2c c0       	rjmp	.+88     	; 0x434e <__stack+0x214f>
    42f6:	8e 01       	movw	r16, r28
    42f8:	0b 5d       	subi	r16, 0xDB	; 219
    42fa:	1d 4f       	sbci	r17, 0xFD	; 253
    42fc:	ce 01       	movw	r24, r28
    42fe:	8f 5d       	subi	r24, 0xDF	; 223
    4300:	9d 4f       	sbci	r25, 0xFD	; 253
    4302:	fc 01       	movw	r30, r24
    4304:	60 81       	ld	r22, Z
    4306:	71 81       	ldd	r23, Z+1	; 0x01
    4308:	82 81       	ldd	r24, Z+2	; 0x02
    430a:	93 81       	ldd	r25, Z+3	; 0x03
    430c:	0e 94 e8 4f 	call	0x9fd0	; 0x9fd0 <__fixunssfsi>
    4310:	dc 01       	movw	r26, r24
    4312:	cb 01       	movw	r24, r22
    4314:	f8 01       	movw	r30, r16
    4316:	91 83       	std	Z+1, r25	; 0x01
    4318:	80 83       	st	Z, r24
    431a:	ce 01       	movw	r24, r28
    431c:	87 5d       	subi	r24, 0xD7	; 215
    431e:	9d 4f       	sbci	r25, 0xFD	; 253
    4320:	9e 01       	movw	r18, r28
    4322:	2b 5d       	subi	r18, 0xDB	; 219
    4324:	3d 4f       	sbci	r19, 0xFD	; 253
    4326:	f9 01       	movw	r30, r18
    4328:	20 81       	ld	r18, Z
    432a:	31 81       	ldd	r19, Z+1	; 0x01
    432c:	fc 01       	movw	r30, r24
    432e:	31 83       	std	Z+1, r19	; 0x01
    4330:	20 83       	st	Z, r18
    4332:	ce 01       	movw	r24, r28
    4334:	87 5d       	subi	r24, 0xD7	; 215
    4336:	9d 4f       	sbci	r25, 0xFD	; 253
    4338:	fc 01       	movw	r30, r24
    433a:	80 81       	ld	r24, Z
    433c:	91 81       	ldd	r25, Z+1	; 0x01
    433e:	01 97       	sbiw	r24, 0x01	; 1
    4340:	f1 f7       	brne	.-4      	; 0x433e <__stack+0x213f>
    4342:	9e 01       	movw	r18, r28
    4344:	27 5d       	subi	r18, 0xD7	; 215
    4346:	3d 4f       	sbci	r19, 0xFD	; 253
    4348:	f9 01       	movw	r30, r18
    434a:	91 83       	std	Z+1, r25	; 0x01
    434c:	80 83       	st	Z, r24
    434e:	0e 94 8c 0e 	call	0x1d18	; 0x1d18 <forward>
    4352:	66 e9       	ldi	r22, 0x96	; 150
    4354:	86 e9       	ldi	r24, 0x96	; 150
    4356:	0e 94 52 0e 	call	0x1ca4	; 0x1ca4 <velocity>
    435a:	9e 01       	movw	r18, r28
    435c:	29 59       	subi	r18, 0x99	; 153
    435e:	3f 4f       	sbci	r19, 0xFF	; 255
    4360:	80 e0       	ldi	r24, 0x00	; 0
    4362:	90 e0       	ldi	r25, 0x00	; 0
    4364:	af e2       	ldi	r26, 0x2F	; 47
    4366:	b4 e4       	ldi	r27, 0x44	; 68
    4368:	f9 01       	movw	r30, r18
    436a:	80 83       	st	Z, r24
    436c:	91 83       	std	Z+1, r25	; 0x01
    436e:	a2 83       	std	Z+2, r26	; 0x02
    4370:	b3 83       	std	Z+3, r27	; 0x03
    4372:	8e 01       	movw	r16, r28
    4374:	09 5e       	subi	r16, 0xE9	; 233
    4376:	1d 4f       	sbci	r17, 0xFD	; 253
    4378:	ce 01       	movw	r24, r28
    437a:	89 59       	subi	r24, 0x99	; 153
    437c:	9f 4f       	sbci	r25, 0xFF	; 255
    437e:	26 e6       	ldi	r18, 0x66	; 102
    4380:	36 e6       	ldi	r19, 0x66	; 102
    4382:	46 e6       	ldi	r20, 0x66	; 102
    4384:	55 e4       	ldi	r21, 0x45	; 69
    4386:	fc 01       	movw	r30, r24
    4388:	60 81       	ld	r22, Z
    438a:	71 81       	ldd	r23, Z+1	; 0x01
    438c:	82 81       	ldd	r24, Z+2	; 0x02
    438e:	93 81       	ldd	r25, Z+3	; 0x03
    4390:	0e 94 65 50 	call	0xa0ca	; 0xa0ca <__mulsf3>
    4394:	dc 01       	movw	r26, r24
    4396:	cb 01       	movw	r24, r22
    4398:	f8 01       	movw	r30, r16
    439a:	80 83       	st	Z, r24
    439c:	91 83       	std	Z+1, r25	; 0x01
    439e:	a2 83       	std	Z+2, r26	; 0x02
    43a0:	b3 83       	std	Z+3, r27	; 0x03
    43a2:	ce 01       	movw	r24, r28
    43a4:	89 5e       	subi	r24, 0xE9	; 233
    43a6:	9d 4f       	sbci	r25, 0xFD	; 253
    43a8:	20 e0       	ldi	r18, 0x00	; 0
    43aa:	30 e0       	ldi	r19, 0x00	; 0
    43ac:	40 e8       	ldi	r20, 0x80	; 128
    43ae:	5f e3       	ldi	r21, 0x3F	; 63
    43b0:	fc 01       	movw	r30, r24
    43b2:	60 81       	ld	r22, Z
    43b4:	71 81       	ldd	r23, Z+1	; 0x01
    43b6:	82 81       	ldd	r24, Z+2	; 0x02
    43b8:	93 81       	ldd	r25, Z+3	; 0x03
    43ba:	0e 94 e4 4f 	call	0x9fc8	; 0x9fc8 <__cmpsf2>
    43be:	88 23       	and	r24, r24
    43c0:	4c f4       	brge	.+18     	; 0x43d4 <__stack+0x21d5>
    43c2:	ce 01       	movw	r24, r28
    43c4:	85 5e       	subi	r24, 0xE5	; 229
    43c6:	9d 4f       	sbci	r25, 0xFD	; 253
    43c8:	21 e0       	ldi	r18, 0x01	; 1
    43ca:	30 e0       	ldi	r19, 0x00	; 0
    43cc:	fc 01       	movw	r30, r24
    43ce:	31 83       	std	Z+1, r19	; 0x01
    43d0:	20 83       	st	Z, r18
    43d2:	6d c0       	rjmp	.+218    	; 0x44ae <__stack+0x22af>
    43d4:	ce 01       	movw	r24, r28
    43d6:	89 5e       	subi	r24, 0xE9	; 233
    43d8:	9d 4f       	sbci	r25, 0xFD	; 253
    43da:	20 e0       	ldi	r18, 0x00	; 0
    43dc:	3f ef       	ldi	r19, 0xFF	; 255
    43de:	4f e7       	ldi	r20, 0x7F	; 127
    43e0:	57 e4       	ldi	r21, 0x47	; 71
    43e2:	fc 01       	movw	r30, r24
    43e4:	60 81       	ld	r22, Z
    43e6:	71 81       	ldd	r23, Z+1	; 0x01
    43e8:	82 81       	ldd	r24, Z+2	; 0x02
    43ea:	93 81       	ldd	r25, Z+3	; 0x03
    43ec:	0e 94 61 50 	call	0xa0c2	; 0xa0c2 <__gesf2>
    43f0:	18 16       	cp	r1, r24
    43f2:	0c f0       	brlt	.+2      	; 0x43f6 <__stack+0x21f7>
    43f4:	4a c0       	rjmp	.+148    	; 0x448a <__stack+0x228b>
    43f6:	ce 01       	movw	r24, r28
    43f8:	89 59       	subi	r24, 0x99	; 153
    43fa:	9f 4f       	sbci	r25, 0xFF	; 255
    43fc:	20 e0       	ldi	r18, 0x00	; 0
    43fe:	30 e0       	ldi	r19, 0x00	; 0
    4400:	40 e2       	ldi	r20, 0x20	; 32
    4402:	51 e4       	ldi	r21, 0x41	; 65
    4404:	fc 01       	movw	r30, r24
    4406:	60 81       	ld	r22, Z
    4408:	71 81       	ldd	r23, Z+1	; 0x01
    440a:	82 81       	ldd	r24, Z+2	; 0x02
    440c:	93 81       	ldd	r25, Z+3	; 0x03
    440e:	0e 94 65 50 	call	0xa0ca	; 0xa0ca <__mulsf3>
    4412:	dc 01       	movw	r26, r24
    4414:	cb 01       	movw	r24, r22
    4416:	8e 01       	movw	r16, r28
    4418:	05 5e       	subi	r16, 0xE5	; 229
    441a:	1d 4f       	sbci	r17, 0xFD	; 253
    441c:	bc 01       	movw	r22, r24
    441e:	cd 01       	movw	r24, r26
    4420:	0e 94 e8 4f 	call	0x9fd0	; 0x9fd0 <__fixunssfsi>
    4424:	dc 01       	movw	r26, r24
    4426:	cb 01       	movw	r24, r22
    4428:	f8 01       	movw	r30, r16
    442a:	91 83       	std	Z+1, r25	; 0x01
    442c:	80 83       	st	Z, r24
    442e:	24 c0       	rjmp	.+72     	; 0x4478 <__stack+0x2279>
    4430:	ce 01       	movw	r24, r28
    4432:	83 5e       	subi	r24, 0xE3	; 227
    4434:	9d 4f       	sbci	r25, 0xFD	; 253
    4436:	20 e7       	ldi	r18, 0x70	; 112
    4438:	31 e0       	ldi	r19, 0x01	; 1
    443a:	fc 01       	movw	r30, r24
    443c:	31 83       	std	Z+1, r19	; 0x01
    443e:	20 83       	st	Z, r18
    4440:	ce 01       	movw	r24, r28
    4442:	83 5e       	subi	r24, 0xE3	; 227
    4444:	9d 4f       	sbci	r25, 0xFD	; 253
    4446:	fc 01       	movw	r30, r24
    4448:	80 81       	ld	r24, Z
    444a:	91 81       	ldd	r25, Z+1	; 0x01
    444c:	01 97       	sbiw	r24, 0x01	; 1
    444e:	f1 f7       	brne	.-4      	; 0x444c <__stack+0x224d>
    4450:	9e 01       	movw	r18, r28
    4452:	23 5e       	subi	r18, 0xE3	; 227
    4454:	3d 4f       	sbci	r19, 0xFD	; 253
    4456:	f9 01       	movw	r30, r18
    4458:	91 83       	std	Z+1, r25	; 0x01
    445a:	80 83       	st	Z, r24
    445c:	ce 01       	movw	r24, r28
    445e:	85 5e       	subi	r24, 0xE5	; 229
    4460:	9d 4f       	sbci	r25, 0xFD	; 253
    4462:	9e 01       	movw	r18, r28
    4464:	25 5e       	subi	r18, 0xE5	; 229
    4466:	3d 4f       	sbci	r19, 0xFD	; 253
    4468:	f9 01       	movw	r30, r18
    446a:	20 81       	ld	r18, Z
    446c:	31 81       	ldd	r19, Z+1	; 0x01
    446e:	21 50       	subi	r18, 0x01	; 1
    4470:	31 09       	sbc	r19, r1
    4472:	fc 01       	movw	r30, r24
    4474:	31 83       	std	Z+1, r19	; 0x01
    4476:	20 83       	st	Z, r18
    4478:	ce 01       	movw	r24, r28
    447a:	85 5e       	subi	r24, 0xE5	; 229
    447c:	9d 4f       	sbci	r25, 0xFD	; 253
    447e:	fc 01       	movw	r30, r24
    4480:	80 81       	ld	r24, Z
    4482:	91 81       	ldd	r25, Z+1	; 0x01
    4484:	89 2b       	or	r24, r25
    4486:	a1 f6       	brne	.-88     	; 0x4430 <__stack+0x2231>
    4488:	2c c0       	rjmp	.+88     	; 0x44e2 <__stack+0x22e3>
    448a:	8e 01       	movw	r16, r28
    448c:	05 5e       	subi	r16, 0xE5	; 229
    448e:	1d 4f       	sbci	r17, 0xFD	; 253
    4490:	ce 01       	movw	r24, r28
    4492:	89 5e       	subi	r24, 0xE9	; 233
    4494:	9d 4f       	sbci	r25, 0xFD	; 253
    4496:	fc 01       	movw	r30, r24
    4498:	60 81       	ld	r22, Z
    449a:	71 81       	ldd	r23, Z+1	; 0x01
    449c:	82 81       	ldd	r24, Z+2	; 0x02
    449e:	93 81       	ldd	r25, Z+3	; 0x03
    44a0:	0e 94 e8 4f 	call	0x9fd0	; 0x9fd0 <__fixunssfsi>
    44a4:	dc 01       	movw	r26, r24
    44a6:	cb 01       	movw	r24, r22
    44a8:	f8 01       	movw	r30, r16
    44aa:	91 83       	std	Z+1, r25	; 0x01
    44ac:	80 83       	st	Z, r24
    44ae:	ce 01       	movw	r24, r28
    44b0:	81 5e       	subi	r24, 0xE1	; 225
    44b2:	9d 4f       	sbci	r25, 0xFD	; 253
    44b4:	9e 01       	movw	r18, r28
    44b6:	25 5e       	subi	r18, 0xE5	; 229
    44b8:	3d 4f       	sbci	r19, 0xFD	; 253
    44ba:	f9 01       	movw	r30, r18
    44bc:	20 81       	ld	r18, Z
    44be:	31 81       	ldd	r19, Z+1	; 0x01
    44c0:	fc 01       	movw	r30, r24
    44c2:	31 83       	std	Z+1, r19	; 0x01
    44c4:	20 83       	st	Z, r18
    44c6:	ce 01       	movw	r24, r28
    44c8:	81 5e       	subi	r24, 0xE1	; 225
    44ca:	9d 4f       	sbci	r25, 0xFD	; 253
    44cc:	fc 01       	movw	r30, r24
    44ce:	80 81       	ld	r24, Z
    44d0:	91 81       	ldd	r25, Z+1	; 0x01
    44d2:	01 97       	sbiw	r24, 0x01	; 1
    44d4:	f1 f7       	brne	.-4      	; 0x44d2 <__stack+0x22d3>
    44d6:	9e 01       	movw	r18, r28
    44d8:	21 5e       	subi	r18, 0xE1	; 225
    44da:	3d 4f       	sbci	r19, 0xFD	; 253
    44dc:	f9 01       	movw	r30, r18
    44de:	91 83       	std	Z+1, r25	; 0x01
    44e0:	80 83       	st	Z, r24
    44e2:	0e 94 96 0e 	call	0x1d2c	; 0x1d2c <left>
    44e6:	9e 01       	movw	r18, r28
    44e8:	21 5c       	subi	r18, 0xC1	; 193
    44ea:	3f 4f       	sbci	r19, 0xFF	; 255
    44ec:	80 e0       	ldi	r24, 0x00	; 0
    44ee:	90 e8       	ldi	r25, 0x80	; 128
    44f0:	ad ee       	ldi	r26, 0xED	; 237
    44f2:	b4 e4       	ldi	r27, 0x44	; 68
    44f4:	f9 01       	movw	r30, r18
    44f6:	80 83       	st	Z, r24
    44f8:	91 83       	std	Z+1, r25	; 0x01
    44fa:	a2 83       	std	Z+2, r26	; 0x02
    44fc:	b3 83       	std	Z+3, r27	; 0x03
    44fe:	8e 01       	movw	r16, r28
    4500:	03 5f       	subi	r16, 0xF3	; 243
    4502:	1d 4f       	sbci	r17, 0xFD	; 253
    4504:	ce 01       	movw	r24, r28
    4506:	cf 96       	adiw	r24, 0x3f	; 63
    4508:	26 e6       	ldi	r18, 0x66	; 102
    450a:	36 e6       	ldi	r19, 0x66	; 102
    450c:	46 e6       	ldi	r20, 0x66	; 102
    450e:	55 e4       	ldi	r21, 0x45	; 69
    4510:	fc 01       	movw	r30, r24
    4512:	60 81       	ld	r22, Z
    4514:	71 81       	ldd	r23, Z+1	; 0x01
    4516:	82 81       	ldd	r24, Z+2	; 0x02
    4518:	93 81       	ldd	r25, Z+3	; 0x03
    451a:	0e 94 65 50 	call	0xa0ca	; 0xa0ca <__mulsf3>
    451e:	dc 01       	movw	r26, r24
    4520:	cb 01       	movw	r24, r22
    4522:	f8 01       	movw	r30, r16
    4524:	80 83       	st	Z, r24
    4526:	91 83       	std	Z+1, r25	; 0x01
    4528:	a2 83       	std	Z+2, r26	; 0x02
    452a:	b3 83       	std	Z+3, r27	; 0x03
    452c:	ce 01       	movw	r24, r28
    452e:	83 5f       	subi	r24, 0xF3	; 243
    4530:	9d 4f       	sbci	r25, 0xFD	; 253
    4532:	20 e0       	ldi	r18, 0x00	; 0
    4534:	30 e0       	ldi	r19, 0x00	; 0
    4536:	40 e8       	ldi	r20, 0x80	; 128
    4538:	5f e3       	ldi	r21, 0x3F	; 63
    453a:	fc 01       	movw	r30, r24
    453c:	60 81       	ld	r22, Z
    453e:	71 81       	ldd	r23, Z+1	; 0x01
    4540:	82 81       	ldd	r24, Z+2	; 0x02
    4542:	93 81       	ldd	r25, Z+3	; 0x03
    4544:	0e 94 e4 4f 	call	0x9fc8	; 0x9fc8 <__cmpsf2>
    4548:	88 23       	and	r24, r24
    454a:	4c f4       	brge	.+18     	; 0x455e <__stack+0x235f>
    454c:	ce 01       	movw	r24, r28
    454e:	8f 5e       	subi	r24, 0xEF	; 239
    4550:	9d 4f       	sbci	r25, 0xFD	; 253
    4552:	21 e0       	ldi	r18, 0x01	; 1
    4554:	30 e0       	ldi	r19, 0x00	; 0
    4556:	fc 01       	movw	r30, r24
    4558:	31 83       	std	Z+1, r19	; 0x01
    455a:	20 83       	st	Z, r18
    455c:	6c c0       	rjmp	.+216    	; 0x4636 <__stack+0x2437>
    455e:	ce 01       	movw	r24, r28
    4560:	83 5f       	subi	r24, 0xF3	; 243
    4562:	9d 4f       	sbci	r25, 0xFD	; 253
    4564:	20 e0       	ldi	r18, 0x00	; 0
    4566:	3f ef       	ldi	r19, 0xFF	; 255
    4568:	4f e7       	ldi	r20, 0x7F	; 127
    456a:	57 e4       	ldi	r21, 0x47	; 71
    456c:	fc 01       	movw	r30, r24
    456e:	60 81       	ld	r22, Z
    4570:	71 81       	ldd	r23, Z+1	; 0x01
    4572:	82 81       	ldd	r24, Z+2	; 0x02
    4574:	93 81       	ldd	r25, Z+3	; 0x03
    4576:	0e 94 61 50 	call	0xa0c2	; 0xa0c2 <__gesf2>
    457a:	18 16       	cp	r1, r24
    457c:	0c f0       	brlt	.+2      	; 0x4580 <__stack+0x2381>
    457e:	49 c0       	rjmp	.+146    	; 0x4612 <__stack+0x2413>
    4580:	ce 01       	movw	r24, r28
    4582:	cf 96       	adiw	r24, 0x3f	; 63
    4584:	20 e0       	ldi	r18, 0x00	; 0
    4586:	30 e0       	ldi	r19, 0x00	; 0
    4588:	40 e2       	ldi	r20, 0x20	; 32
    458a:	51 e4       	ldi	r21, 0x41	; 65
    458c:	fc 01       	movw	r30, r24
    458e:	60 81       	ld	r22, Z
    4590:	71 81       	ldd	r23, Z+1	; 0x01
    4592:	82 81       	ldd	r24, Z+2	; 0x02
    4594:	93 81       	ldd	r25, Z+3	; 0x03
    4596:	0e 94 65 50 	call	0xa0ca	; 0xa0ca <__mulsf3>
    459a:	dc 01       	movw	r26, r24
    459c:	cb 01       	movw	r24, r22
    459e:	8e 01       	movw	r16, r28
    45a0:	0f 5e       	subi	r16, 0xEF	; 239
    45a2:	1d 4f       	sbci	r17, 0xFD	; 253
    45a4:	bc 01       	movw	r22, r24
    45a6:	cd 01       	movw	r24, r26
    45a8:	0e 94 e8 4f 	call	0x9fd0	; 0x9fd0 <__fixunssfsi>
    45ac:	dc 01       	movw	r26, r24
    45ae:	cb 01       	movw	r24, r22
    45b0:	f8 01       	movw	r30, r16
    45b2:	91 83       	std	Z+1, r25	; 0x01
    45b4:	80 83       	st	Z, r24
    45b6:	24 c0       	rjmp	.+72     	; 0x4600 <__stack+0x2401>
    45b8:	ce 01       	movw	r24, r28
    45ba:	8d 5e       	subi	r24, 0xED	; 237
    45bc:	9d 4f       	sbci	r25, 0xFD	; 253
    45be:	20 e7       	ldi	r18, 0x70	; 112
    45c0:	31 e0       	ldi	r19, 0x01	; 1
    45c2:	fc 01       	movw	r30, r24
    45c4:	31 83       	std	Z+1, r19	; 0x01
    45c6:	20 83       	st	Z, r18
    45c8:	ce 01       	movw	r24, r28
    45ca:	8d 5e       	subi	r24, 0xED	; 237
    45cc:	9d 4f       	sbci	r25, 0xFD	; 253
    45ce:	fc 01       	movw	r30, r24
    45d0:	80 81       	ld	r24, Z
    45d2:	91 81       	ldd	r25, Z+1	; 0x01
    45d4:	01 97       	sbiw	r24, 0x01	; 1
    45d6:	f1 f7       	brne	.-4      	; 0x45d4 <__stack+0x23d5>
    45d8:	9e 01       	movw	r18, r28
    45da:	2d 5e       	subi	r18, 0xED	; 237
    45dc:	3d 4f       	sbci	r19, 0xFD	; 253
    45de:	f9 01       	movw	r30, r18
    45e0:	91 83       	std	Z+1, r25	; 0x01
    45e2:	80 83       	st	Z, r24
    45e4:	ce 01       	movw	r24, r28
    45e6:	8f 5e       	subi	r24, 0xEF	; 239
    45e8:	9d 4f       	sbci	r25, 0xFD	; 253
    45ea:	9e 01       	movw	r18, r28
    45ec:	2f 5e       	subi	r18, 0xEF	; 239
    45ee:	3d 4f       	sbci	r19, 0xFD	; 253
    45f0:	f9 01       	movw	r30, r18
    45f2:	20 81       	ld	r18, Z
    45f4:	31 81       	ldd	r19, Z+1	; 0x01
    45f6:	21 50       	subi	r18, 0x01	; 1
    45f8:	31 09       	sbc	r19, r1
    45fa:	fc 01       	movw	r30, r24
    45fc:	31 83       	std	Z+1, r19	; 0x01
    45fe:	20 83       	st	Z, r18
    4600:	ce 01       	movw	r24, r28
    4602:	8f 5e       	subi	r24, 0xEF	; 239
    4604:	9d 4f       	sbci	r25, 0xFD	; 253
    4606:	fc 01       	movw	r30, r24
    4608:	80 81       	ld	r24, Z
    460a:	91 81       	ldd	r25, Z+1	; 0x01
    460c:	89 2b       	or	r24, r25
    460e:	a1 f6       	brne	.-88     	; 0x45b8 <__stack+0x23b9>
    4610:	2c c0       	rjmp	.+88     	; 0x466a <__stack+0x246b>
    4612:	8e 01       	movw	r16, r28
    4614:	0f 5e       	subi	r16, 0xEF	; 239
    4616:	1d 4f       	sbci	r17, 0xFD	; 253
    4618:	ce 01       	movw	r24, r28
    461a:	83 5f       	subi	r24, 0xF3	; 243
    461c:	9d 4f       	sbci	r25, 0xFD	; 253
    461e:	fc 01       	movw	r30, r24
    4620:	60 81       	ld	r22, Z
    4622:	71 81       	ldd	r23, Z+1	; 0x01
    4624:	82 81       	ldd	r24, Z+2	; 0x02
    4626:	93 81       	ldd	r25, Z+3	; 0x03
    4628:	0e 94 e8 4f 	call	0x9fd0	; 0x9fd0 <__fixunssfsi>
    462c:	dc 01       	movw	r26, r24
    462e:	cb 01       	movw	r24, r22
    4630:	f8 01       	movw	r30, r16
    4632:	91 83       	std	Z+1, r25	; 0x01
    4634:	80 83       	st	Z, r24
    4636:	ce 01       	movw	r24, r28
    4638:	8b 5e       	subi	r24, 0xEB	; 235
    463a:	9d 4f       	sbci	r25, 0xFD	; 253
    463c:	9e 01       	movw	r18, r28
    463e:	2f 5e       	subi	r18, 0xEF	; 239
    4640:	3d 4f       	sbci	r19, 0xFD	; 253
    4642:	f9 01       	movw	r30, r18
    4644:	20 81       	ld	r18, Z
    4646:	31 81       	ldd	r19, Z+1	; 0x01
    4648:	fc 01       	movw	r30, r24
    464a:	31 83       	std	Z+1, r19	; 0x01
    464c:	20 83       	st	Z, r18
    464e:	ce 01       	movw	r24, r28
    4650:	8b 5e       	subi	r24, 0xEB	; 235
    4652:	9d 4f       	sbci	r25, 0xFD	; 253
    4654:	fc 01       	movw	r30, r24
    4656:	80 81       	ld	r24, Z
    4658:	91 81       	ldd	r25, Z+1	; 0x01
    465a:	01 97       	sbiw	r24, 0x01	; 1
    465c:	f1 f7       	brne	.-4      	; 0x465a <__stack+0x245b>
    465e:	9e 01       	movw	r18, r28
    4660:	2b 5e       	subi	r18, 0xEB	; 235
    4662:	3d 4f       	sbci	r19, 0xFD	; 253
    4664:	f9 01       	movw	r30, r18
    4666:	91 83       	std	Z+1, r25	; 0x01
    4668:	80 83       	st	Z, r24
    466a:	89 81       	ldd	r24, Y+1	; 0x01
    466c:	9a 81       	ldd	r25, Y+2	; 0x02
    466e:	85 36       	cpi	r24, 0x65	; 101
    4670:	91 05       	cpc	r25, r1
    4672:	09 f4       	brne	.+2      	; 0x4676 <__stack+0x2477>
    4674:	4d cc       	rjmp	.-1894   	; 0x3f10 <__stack+0x1d11>
    4676:	36 c6       	rjmp	.+3180   	; 0x52e4 <__stack+0x30e5>
    4678:	0e 94 0c 0d 	call	0x1a18	; 0x1a18 <buzzer_on>
    467c:	9e 01       	movw	r18, r28
    467e:	21 59       	subi	r18, 0x91	; 145
    4680:	3f 4f       	sbci	r19, 0xFF	; 255
    4682:	80 e0       	ldi	r24, 0x00	; 0
    4684:	90 e0       	ldi	r25, 0x00	; 0
    4686:	a8 ec       	ldi	r26, 0xC8	; 200
    4688:	b2 e4       	ldi	r27, 0x42	; 66
    468a:	f9 01       	movw	r30, r18
    468c:	80 83       	st	Z, r24
    468e:	91 83       	std	Z+1, r25	; 0x01
    4690:	a2 83       	std	Z+2, r26	; 0x02
    4692:	b3 83       	std	Z+3, r27	; 0x03
    4694:	8e 01       	movw	r16, r28
    4696:	05 58       	subi	r16, 0x85	; 133
    4698:	1d 4f       	sbci	r17, 0xFD	; 253
    469a:	ce 01       	movw	r24, r28
    469c:	81 59       	subi	r24, 0x91	; 145
    469e:	9f 4f       	sbci	r25, 0xFF	; 255
    46a0:	26 e6       	ldi	r18, 0x66	; 102
    46a2:	36 e6       	ldi	r19, 0x66	; 102
    46a4:	46 e6       	ldi	r20, 0x66	; 102
    46a6:	55 e4       	ldi	r21, 0x45	; 69
    46a8:	fc 01       	movw	r30, r24
    46aa:	60 81       	ld	r22, Z
    46ac:	71 81       	ldd	r23, Z+1	; 0x01
    46ae:	82 81       	ldd	r24, Z+2	; 0x02
    46b0:	93 81       	ldd	r25, Z+3	; 0x03
    46b2:	0e 94 65 50 	call	0xa0ca	; 0xa0ca <__mulsf3>
    46b6:	dc 01       	movw	r26, r24
    46b8:	cb 01       	movw	r24, r22
    46ba:	f8 01       	movw	r30, r16
    46bc:	80 83       	st	Z, r24
    46be:	91 83       	std	Z+1, r25	; 0x01
    46c0:	a2 83       	std	Z+2, r26	; 0x02
    46c2:	b3 83       	std	Z+3, r27	; 0x03
    46c4:	ce 01       	movw	r24, r28
    46c6:	85 58       	subi	r24, 0x85	; 133
    46c8:	9d 4f       	sbci	r25, 0xFD	; 253
    46ca:	20 e0       	ldi	r18, 0x00	; 0
    46cc:	30 e0       	ldi	r19, 0x00	; 0
    46ce:	40 e8       	ldi	r20, 0x80	; 128
    46d0:	5f e3       	ldi	r21, 0x3F	; 63
    46d2:	fc 01       	movw	r30, r24
    46d4:	60 81       	ld	r22, Z
    46d6:	71 81       	ldd	r23, Z+1	; 0x01
    46d8:	82 81       	ldd	r24, Z+2	; 0x02
    46da:	93 81       	ldd	r25, Z+3	; 0x03
    46dc:	0e 94 e4 4f 	call	0x9fc8	; 0x9fc8 <__cmpsf2>
    46e0:	88 23       	and	r24, r24
    46e2:	4c f4       	brge	.+18     	; 0x46f6 <__stack+0x24f7>
    46e4:	ce 01       	movw	r24, r28
    46e6:	81 58       	subi	r24, 0x81	; 129
    46e8:	9d 4f       	sbci	r25, 0xFD	; 253
    46ea:	21 e0       	ldi	r18, 0x01	; 1
    46ec:	30 e0       	ldi	r19, 0x00	; 0
    46ee:	fc 01       	movw	r30, r24
    46f0:	31 83       	std	Z+1, r19	; 0x01
    46f2:	20 83       	st	Z, r18
    46f4:	6d c0       	rjmp	.+218    	; 0x47d0 <__stack+0x25d1>
    46f6:	ce 01       	movw	r24, r28
    46f8:	85 58       	subi	r24, 0x85	; 133
    46fa:	9d 4f       	sbci	r25, 0xFD	; 253
    46fc:	20 e0       	ldi	r18, 0x00	; 0
    46fe:	3f ef       	ldi	r19, 0xFF	; 255
    4700:	4f e7       	ldi	r20, 0x7F	; 127
    4702:	57 e4       	ldi	r21, 0x47	; 71
    4704:	fc 01       	movw	r30, r24
    4706:	60 81       	ld	r22, Z
    4708:	71 81       	ldd	r23, Z+1	; 0x01
    470a:	82 81       	ldd	r24, Z+2	; 0x02
    470c:	93 81       	ldd	r25, Z+3	; 0x03
    470e:	0e 94 61 50 	call	0xa0c2	; 0xa0c2 <__gesf2>
    4712:	18 16       	cp	r1, r24
    4714:	0c f0       	brlt	.+2      	; 0x4718 <__stack+0x2519>
    4716:	4a c0       	rjmp	.+148    	; 0x47ac <__stack+0x25ad>
    4718:	ce 01       	movw	r24, r28
    471a:	81 59       	subi	r24, 0x91	; 145
    471c:	9f 4f       	sbci	r25, 0xFF	; 255
    471e:	20 e0       	ldi	r18, 0x00	; 0
    4720:	30 e0       	ldi	r19, 0x00	; 0
    4722:	40 e2       	ldi	r20, 0x20	; 32
    4724:	51 e4       	ldi	r21, 0x41	; 65
    4726:	fc 01       	movw	r30, r24
    4728:	60 81       	ld	r22, Z
    472a:	71 81       	ldd	r23, Z+1	; 0x01
    472c:	82 81       	ldd	r24, Z+2	; 0x02
    472e:	93 81       	ldd	r25, Z+3	; 0x03
    4730:	0e 94 65 50 	call	0xa0ca	; 0xa0ca <__mulsf3>
    4734:	dc 01       	movw	r26, r24
    4736:	cb 01       	movw	r24, r22
    4738:	8e 01       	movw	r16, r28
    473a:	01 58       	subi	r16, 0x81	; 129
    473c:	1d 4f       	sbci	r17, 0xFD	; 253
    473e:	bc 01       	movw	r22, r24
    4740:	cd 01       	movw	r24, r26
    4742:	0e 94 e8 4f 	call	0x9fd0	; 0x9fd0 <__fixunssfsi>
    4746:	dc 01       	movw	r26, r24
    4748:	cb 01       	movw	r24, r22
    474a:	f8 01       	movw	r30, r16
    474c:	91 83       	std	Z+1, r25	; 0x01
    474e:	80 83       	st	Z, r24
    4750:	24 c0       	rjmp	.+72     	; 0x479a <__stack+0x259b>
    4752:	ce 01       	movw	r24, r28
    4754:	8f 57       	subi	r24, 0x7F	; 127
    4756:	9d 4f       	sbci	r25, 0xFD	; 253
    4758:	20 e7       	ldi	r18, 0x70	; 112
    475a:	31 e0       	ldi	r19, 0x01	; 1
    475c:	fc 01       	movw	r30, r24
    475e:	31 83       	std	Z+1, r19	; 0x01
    4760:	20 83       	st	Z, r18
    4762:	ce 01       	movw	r24, r28
    4764:	8f 57       	subi	r24, 0x7F	; 127
    4766:	9d 4f       	sbci	r25, 0xFD	; 253
    4768:	fc 01       	movw	r30, r24
    476a:	80 81       	ld	r24, Z
    476c:	91 81       	ldd	r25, Z+1	; 0x01
    476e:	01 97       	sbiw	r24, 0x01	; 1
    4770:	f1 f7       	brne	.-4      	; 0x476e <__stack+0x256f>
    4772:	9e 01       	movw	r18, r28
    4774:	2f 57       	subi	r18, 0x7F	; 127
    4776:	3d 4f       	sbci	r19, 0xFD	; 253
    4778:	f9 01       	movw	r30, r18
    477a:	91 83       	std	Z+1, r25	; 0x01
    477c:	80 83       	st	Z, r24
    477e:	ce 01       	movw	r24, r28
    4780:	81 58       	subi	r24, 0x81	; 129
    4782:	9d 4f       	sbci	r25, 0xFD	; 253
    4784:	9e 01       	movw	r18, r28
    4786:	21 58       	subi	r18, 0x81	; 129
    4788:	3d 4f       	sbci	r19, 0xFD	; 253
    478a:	f9 01       	movw	r30, r18
    478c:	20 81       	ld	r18, Z
    478e:	31 81       	ldd	r19, Z+1	; 0x01
    4790:	21 50       	subi	r18, 0x01	; 1
    4792:	31 09       	sbc	r19, r1
    4794:	fc 01       	movw	r30, r24
    4796:	31 83       	std	Z+1, r19	; 0x01
    4798:	20 83       	st	Z, r18
    479a:	ce 01       	movw	r24, r28
    479c:	81 58       	subi	r24, 0x81	; 129
    479e:	9d 4f       	sbci	r25, 0xFD	; 253
    47a0:	fc 01       	movw	r30, r24
    47a2:	80 81       	ld	r24, Z
    47a4:	91 81       	ldd	r25, Z+1	; 0x01
    47a6:	89 2b       	or	r24, r25
    47a8:	a1 f6       	brne	.-88     	; 0x4752 <__stack+0x2553>
    47aa:	2c c0       	rjmp	.+88     	; 0x4804 <__stack+0x2605>
    47ac:	8e 01       	movw	r16, r28
    47ae:	01 58       	subi	r16, 0x81	; 129
    47b0:	1d 4f       	sbci	r17, 0xFD	; 253
    47b2:	ce 01       	movw	r24, r28
    47b4:	85 58       	subi	r24, 0x85	; 133
    47b6:	9d 4f       	sbci	r25, 0xFD	; 253
    47b8:	fc 01       	movw	r30, r24
    47ba:	60 81       	ld	r22, Z
    47bc:	71 81       	ldd	r23, Z+1	; 0x01
    47be:	82 81       	ldd	r24, Z+2	; 0x02
    47c0:	93 81       	ldd	r25, Z+3	; 0x03
    47c2:	0e 94 e8 4f 	call	0x9fd0	; 0x9fd0 <__fixunssfsi>
    47c6:	dc 01       	movw	r26, r24
    47c8:	cb 01       	movw	r24, r22
    47ca:	f8 01       	movw	r30, r16
    47cc:	91 83       	std	Z+1, r25	; 0x01
    47ce:	80 83       	st	Z, r24
    47d0:	ce 01       	movw	r24, r28
    47d2:	8d 57       	subi	r24, 0x7D	; 125
    47d4:	9d 4f       	sbci	r25, 0xFD	; 253
    47d6:	9e 01       	movw	r18, r28
    47d8:	21 58       	subi	r18, 0x81	; 129
    47da:	3d 4f       	sbci	r19, 0xFD	; 253
    47dc:	f9 01       	movw	r30, r18
    47de:	20 81       	ld	r18, Z
    47e0:	31 81       	ldd	r19, Z+1	; 0x01
    47e2:	fc 01       	movw	r30, r24
    47e4:	31 83       	std	Z+1, r19	; 0x01
    47e6:	20 83       	st	Z, r18
    47e8:	ce 01       	movw	r24, r28
    47ea:	8d 57       	subi	r24, 0x7D	; 125
    47ec:	9d 4f       	sbci	r25, 0xFD	; 253
    47ee:	fc 01       	movw	r30, r24
    47f0:	80 81       	ld	r24, Z
    47f2:	91 81       	ldd	r25, Z+1	; 0x01
    47f4:	01 97       	sbiw	r24, 0x01	; 1
    47f6:	f1 f7       	brne	.-4      	; 0x47f4 <__stack+0x25f5>
    47f8:	9e 01       	movw	r18, r28
    47fa:	2d 57       	subi	r18, 0x7D	; 125
    47fc:	3d 4f       	sbci	r19, 0xFD	; 253
    47fe:	f9 01       	movw	r30, r18
    4800:	91 83       	std	Z+1, r25	; 0x01
    4802:	80 83       	st	Z, r24
    4804:	0e 94 1d 0d 	call	0x1a3a	; 0x1a3a <buzzer_off>
    4808:	9e 01       	movw	r18, r28
    480a:	2d 58       	subi	r18, 0x8D	; 141
    480c:	3f 4f       	sbci	r19, 0xFF	; 255
    480e:	80 e0       	ldi	r24, 0x00	; 0
    4810:	90 e0       	ldi	r25, 0x00	; 0
    4812:	a8 e4       	ldi	r26, 0x48	; 72
    4814:	b2 e4       	ldi	r27, 0x42	; 66
    4816:	f9 01       	movw	r30, r18
    4818:	80 83       	st	Z, r24
    481a:	91 83       	std	Z+1, r25	; 0x01
    481c:	a2 83       	std	Z+2, r26	; 0x02
    481e:	b3 83       	std	Z+3, r27	; 0x03
    4820:	8e 01       	movw	r16, r28
    4822:	0f 58       	subi	r16, 0x8F	; 143
    4824:	1d 4f       	sbci	r17, 0xFD	; 253
    4826:	ce 01       	movw	r24, r28
    4828:	8d 58       	subi	r24, 0x8D	; 141
    482a:	9f 4f       	sbci	r25, 0xFF	; 255
    482c:	26 e6       	ldi	r18, 0x66	; 102
    482e:	36 e6       	ldi	r19, 0x66	; 102
    4830:	46 e6       	ldi	r20, 0x66	; 102
    4832:	55 e4       	ldi	r21, 0x45	; 69
    4834:	fc 01       	movw	r30, r24
    4836:	60 81       	ld	r22, Z
    4838:	71 81       	ldd	r23, Z+1	; 0x01
    483a:	82 81       	ldd	r24, Z+2	; 0x02
    483c:	93 81       	ldd	r25, Z+3	; 0x03
    483e:	0e 94 65 50 	call	0xa0ca	; 0xa0ca <__mulsf3>
    4842:	dc 01       	movw	r26, r24
    4844:	cb 01       	movw	r24, r22
    4846:	f8 01       	movw	r30, r16
    4848:	80 83       	st	Z, r24
    484a:	91 83       	std	Z+1, r25	; 0x01
    484c:	a2 83       	std	Z+2, r26	; 0x02
    484e:	b3 83       	std	Z+3, r27	; 0x03
    4850:	ce 01       	movw	r24, r28
    4852:	8f 58       	subi	r24, 0x8F	; 143
    4854:	9d 4f       	sbci	r25, 0xFD	; 253
    4856:	20 e0       	ldi	r18, 0x00	; 0
    4858:	30 e0       	ldi	r19, 0x00	; 0
    485a:	40 e8       	ldi	r20, 0x80	; 128
    485c:	5f e3       	ldi	r21, 0x3F	; 63
    485e:	fc 01       	movw	r30, r24
    4860:	60 81       	ld	r22, Z
    4862:	71 81       	ldd	r23, Z+1	; 0x01
    4864:	82 81       	ldd	r24, Z+2	; 0x02
    4866:	93 81       	ldd	r25, Z+3	; 0x03
    4868:	0e 94 e4 4f 	call	0x9fc8	; 0x9fc8 <__cmpsf2>
    486c:	88 23       	and	r24, r24
    486e:	4c f4       	brge	.+18     	; 0x4882 <__stack+0x2683>
    4870:	ce 01       	movw	r24, r28
    4872:	8b 58       	subi	r24, 0x8B	; 139
    4874:	9d 4f       	sbci	r25, 0xFD	; 253
    4876:	21 e0       	ldi	r18, 0x01	; 1
    4878:	30 e0       	ldi	r19, 0x00	; 0
    487a:	fc 01       	movw	r30, r24
    487c:	31 83       	std	Z+1, r19	; 0x01
    487e:	20 83       	st	Z, r18
    4880:	6d c0       	rjmp	.+218    	; 0x495c <__stack+0x275d>
    4882:	ce 01       	movw	r24, r28
    4884:	8f 58       	subi	r24, 0x8F	; 143
    4886:	9d 4f       	sbci	r25, 0xFD	; 253
    4888:	20 e0       	ldi	r18, 0x00	; 0
    488a:	3f ef       	ldi	r19, 0xFF	; 255
    488c:	4f e7       	ldi	r20, 0x7F	; 127
    488e:	57 e4       	ldi	r21, 0x47	; 71
    4890:	fc 01       	movw	r30, r24
    4892:	60 81       	ld	r22, Z
    4894:	71 81       	ldd	r23, Z+1	; 0x01
    4896:	82 81       	ldd	r24, Z+2	; 0x02
    4898:	93 81       	ldd	r25, Z+3	; 0x03
    489a:	0e 94 61 50 	call	0xa0c2	; 0xa0c2 <__gesf2>
    489e:	18 16       	cp	r1, r24
    48a0:	0c f0       	brlt	.+2      	; 0x48a4 <__stack+0x26a5>
    48a2:	4a c0       	rjmp	.+148    	; 0x4938 <__stack+0x2739>
    48a4:	ce 01       	movw	r24, r28
    48a6:	8d 58       	subi	r24, 0x8D	; 141
    48a8:	9f 4f       	sbci	r25, 0xFF	; 255
    48aa:	20 e0       	ldi	r18, 0x00	; 0
    48ac:	30 e0       	ldi	r19, 0x00	; 0
    48ae:	40 e2       	ldi	r20, 0x20	; 32
    48b0:	51 e4       	ldi	r21, 0x41	; 65
    48b2:	fc 01       	movw	r30, r24
    48b4:	60 81       	ld	r22, Z
    48b6:	71 81       	ldd	r23, Z+1	; 0x01
    48b8:	82 81       	ldd	r24, Z+2	; 0x02
    48ba:	93 81       	ldd	r25, Z+3	; 0x03
    48bc:	0e 94 65 50 	call	0xa0ca	; 0xa0ca <__mulsf3>
    48c0:	dc 01       	movw	r26, r24
    48c2:	cb 01       	movw	r24, r22
    48c4:	8e 01       	movw	r16, r28
    48c6:	0b 58       	subi	r16, 0x8B	; 139
    48c8:	1d 4f       	sbci	r17, 0xFD	; 253
    48ca:	bc 01       	movw	r22, r24
    48cc:	cd 01       	movw	r24, r26
    48ce:	0e 94 e8 4f 	call	0x9fd0	; 0x9fd0 <__fixunssfsi>
    48d2:	dc 01       	movw	r26, r24
    48d4:	cb 01       	movw	r24, r22
    48d6:	f8 01       	movw	r30, r16
    48d8:	91 83       	std	Z+1, r25	; 0x01
    48da:	80 83       	st	Z, r24
    48dc:	24 c0       	rjmp	.+72     	; 0x4926 <__stack+0x2727>
    48de:	ce 01       	movw	r24, r28
    48e0:	89 58       	subi	r24, 0x89	; 137
    48e2:	9d 4f       	sbci	r25, 0xFD	; 253
    48e4:	20 e7       	ldi	r18, 0x70	; 112
    48e6:	31 e0       	ldi	r19, 0x01	; 1
    48e8:	fc 01       	movw	r30, r24
    48ea:	31 83       	std	Z+1, r19	; 0x01
    48ec:	20 83       	st	Z, r18
    48ee:	ce 01       	movw	r24, r28
    48f0:	89 58       	subi	r24, 0x89	; 137
    48f2:	9d 4f       	sbci	r25, 0xFD	; 253
    48f4:	fc 01       	movw	r30, r24
    48f6:	80 81       	ld	r24, Z
    48f8:	91 81       	ldd	r25, Z+1	; 0x01
    48fa:	01 97       	sbiw	r24, 0x01	; 1
    48fc:	f1 f7       	brne	.-4      	; 0x48fa <__stack+0x26fb>
    48fe:	9e 01       	movw	r18, r28
    4900:	29 58       	subi	r18, 0x89	; 137
    4902:	3d 4f       	sbci	r19, 0xFD	; 253
    4904:	f9 01       	movw	r30, r18
    4906:	91 83       	std	Z+1, r25	; 0x01
    4908:	80 83       	st	Z, r24
    490a:	ce 01       	movw	r24, r28
    490c:	8b 58       	subi	r24, 0x8B	; 139
    490e:	9d 4f       	sbci	r25, 0xFD	; 253
    4910:	9e 01       	movw	r18, r28
    4912:	2b 58       	subi	r18, 0x8B	; 139
    4914:	3d 4f       	sbci	r19, 0xFD	; 253
    4916:	f9 01       	movw	r30, r18
    4918:	20 81       	ld	r18, Z
    491a:	31 81       	ldd	r19, Z+1	; 0x01
    491c:	21 50       	subi	r18, 0x01	; 1
    491e:	31 09       	sbc	r19, r1
    4920:	fc 01       	movw	r30, r24
    4922:	31 83       	std	Z+1, r19	; 0x01
    4924:	20 83       	st	Z, r18
    4926:	ce 01       	movw	r24, r28
    4928:	8b 58       	subi	r24, 0x8B	; 139
    492a:	9d 4f       	sbci	r25, 0xFD	; 253
    492c:	fc 01       	movw	r30, r24
    492e:	80 81       	ld	r24, Z
    4930:	91 81       	ldd	r25, Z+1	; 0x01
    4932:	89 2b       	or	r24, r25
    4934:	a1 f6       	brne	.-88     	; 0x48de <__stack+0x26df>
    4936:	2c c0       	rjmp	.+88     	; 0x4990 <__stack+0x2791>
    4938:	8e 01       	movw	r16, r28
    493a:	0b 58       	subi	r16, 0x8B	; 139
    493c:	1d 4f       	sbci	r17, 0xFD	; 253
    493e:	ce 01       	movw	r24, r28
    4940:	8f 58       	subi	r24, 0x8F	; 143
    4942:	9d 4f       	sbci	r25, 0xFD	; 253
    4944:	fc 01       	movw	r30, r24
    4946:	60 81       	ld	r22, Z
    4948:	71 81       	ldd	r23, Z+1	; 0x01
    494a:	82 81       	ldd	r24, Z+2	; 0x02
    494c:	93 81       	ldd	r25, Z+3	; 0x03
    494e:	0e 94 e8 4f 	call	0x9fd0	; 0x9fd0 <__fixunssfsi>
    4952:	dc 01       	movw	r26, r24
    4954:	cb 01       	movw	r24, r22
    4956:	f8 01       	movw	r30, r16
    4958:	91 83       	std	Z+1, r25	; 0x01
    495a:	80 83       	st	Z, r24
    495c:	ce 01       	movw	r24, r28
    495e:	87 58       	subi	r24, 0x87	; 135
    4960:	9d 4f       	sbci	r25, 0xFD	; 253
    4962:	9e 01       	movw	r18, r28
    4964:	2b 58       	subi	r18, 0x8B	; 139
    4966:	3d 4f       	sbci	r19, 0xFD	; 253
    4968:	f9 01       	movw	r30, r18
    496a:	20 81       	ld	r18, Z
    496c:	31 81       	ldd	r19, Z+1	; 0x01
    496e:	fc 01       	movw	r30, r24
    4970:	31 83       	std	Z+1, r19	; 0x01
    4972:	20 83       	st	Z, r18
    4974:	ce 01       	movw	r24, r28
    4976:	87 58       	subi	r24, 0x87	; 135
    4978:	9d 4f       	sbci	r25, 0xFD	; 253
    497a:	fc 01       	movw	r30, r24
    497c:	80 81       	ld	r24, Z
    497e:	91 81       	ldd	r25, Z+1	; 0x01
    4980:	01 97       	sbiw	r24, 0x01	; 1
    4982:	f1 f7       	brne	.-4      	; 0x4980 <__stack+0x2781>
    4984:	9e 01       	movw	r18, r28
    4986:	27 58       	subi	r18, 0x87	; 135
    4988:	3d 4f       	sbci	r19, 0xFD	; 253
    498a:	f9 01       	movw	r30, r18
    498c:	91 83       	std	Z+1, r25	; 0x01
    498e:	80 83       	st	Z, r24
    4990:	0e 94 0c 0d 	call	0x1a18	; 0x1a18 <buzzer_on>
    4994:	9e 01       	movw	r18, r28
    4996:	29 58       	subi	r18, 0x89	; 137
    4998:	3f 4f       	sbci	r19, 0xFF	; 255
    499a:	80 e0       	ldi	r24, 0x00	; 0
    499c:	90 e0       	ldi	r25, 0x00	; 0
    499e:	a8 ec       	ldi	r26, 0xC8	; 200
    49a0:	b2 e4       	ldi	r27, 0x42	; 66
    49a2:	f9 01       	movw	r30, r18
    49a4:	80 83       	st	Z, r24
    49a6:	91 83       	std	Z+1, r25	; 0x01
    49a8:	a2 83       	std	Z+2, r26	; 0x02
    49aa:	b3 83       	std	Z+3, r27	; 0x03
    49ac:	8e 01       	movw	r16, r28
    49ae:	09 59       	subi	r16, 0x99	; 153
    49b0:	1d 4f       	sbci	r17, 0xFD	; 253
    49b2:	ce 01       	movw	r24, r28
    49b4:	89 58       	subi	r24, 0x89	; 137
    49b6:	9f 4f       	sbci	r25, 0xFF	; 255
    49b8:	26 e6       	ldi	r18, 0x66	; 102
    49ba:	36 e6       	ldi	r19, 0x66	; 102
    49bc:	46 e6       	ldi	r20, 0x66	; 102
    49be:	55 e4       	ldi	r21, 0x45	; 69
    49c0:	fc 01       	movw	r30, r24
    49c2:	60 81       	ld	r22, Z
    49c4:	71 81       	ldd	r23, Z+1	; 0x01
    49c6:	82 81       	ldd	r24, Z+2	; 0x02
    49c8:	93 81       	ldd	r25, Z+3	; 0x03
    49ca:	0e 94 65 50 	call	0xa0ca	; 0xa0ca <__mulsf3>
    49ce:	dc 01       	movw	r26, r24
    49d0:	cb 01       	movw	r24, r22
    49d2:	f8 01       	movw	r30, r16
    49d4:	80 83       	st	Z, r24
    49d6:	91 83       	std	Z+1, r25	; 0x01
    49d8:	a2 83       	std	Z+2, r26	; 0x02
    49da:	b3 83       	std	Z+3, r27	; 0x03
    49dc:	ce 01       	movw	r24, r28
    49de:	89 59       	subi	r24, 0x99	; 153
    49e0:	9d 4f       	sbci	r25, 0xFD	; 253
    49e2:	20 e0       	ldi	r18, 0x00	; 0
    49e4:	30 e0       	ldi	r19, 0x00	; 0
    49e6:	40 e8       	ldi	r20, 0x80	; 128
    49e8:	5f e3       	ldi	r21, 0x3F	; 63
    49ea:	fc 01       	movw	r30, r24
    49ec:	60 81       	ld	r22, Z
    49ee:	71 81       	ldd	r23, Z+1	; 0x01
    49f0:	82 81       	ldd	r24, Z+2	; 0x02
    49f2:	93 81       	ldd	r25, Z+3	; 0x03
    49f4:	0e 94 e4 4f 	call	0x9fc8	; 0x9fc8 <__cmpsf2>
    49f8:	88 23       	and	r24, r24
    49fa:	4c f4       	brge	.+18     	; 0x4a0e <__stack+0x280f>
    49fc:	ce 01       	movw	r24, r28
    49fe:	85 59       	subi	r24, 0x95	; 149
    4a00:	9d 4f       	sbci	r25, 0xFD	; 253
    4a02:	21 e0       	ldi	r18, 0x01	; 1
    4a04:	30 e0       	ldi	r19, 0x00	; 0
    4a06:	fc 01       	movw	r30, r24
    4a08:	31 83       	std	Z+1, r19	; 0x01
    4a0a:	20 83       	st	Z, r18
    4a0c:	6d c0       	rjmp	.+218    	; 0x4ae8 <__stack+0x28e9>
    4a0e:	ce 01       	movw	r24, r28
    4a10:	89 59       	subi	r24, 0x99	; 153
    4a12:	9d 4f       	sbci	r25, 0xFD	; 253
    4a14:	20 e0       	ldi	r18, 0x00	; 0
    4a16:	3f ef       	ldi	r19, 0xFF	; 255
    4a18:	4f e7       	ldi	r20, 0x7F	; 127
    4a1a:	57 e4       	ldi	r21, 0x47	; 71
    4a1c:	fc 01       	movw	r30, r24
    4a1e:	60 81       	ld	r22, Z
    4a20:	71 81       	ldd	r23, Z+1	; 0x01
    4a22:	82 81       	ldd	r24, Z+2	; 0x02
    4a24:	93 81       	ldd	r25, Z+3	; 0x03
    4a26:	0e 94 61 50 	call	0xa0c2	; 0xa0c2 <__gesf2>
    4a2a:	18 16       	cp	r1, r24
    4a2c:	0c f0       	brlt	.+2      	; 0x4a30 <__stack+0x2831>
    4a2e:	4a c0       	rjmp	.+148    	; 0x4ac4 <__stack+0x28c5>
    4a30:	ce 01       	movw	r24, r28
    4a32:	89 58       	subi	r24, 0x89	; 137
    4a34:	9f 4f       	sbci	r25, 0xFF	; 255
    4a36:	20 e0       	ldi	r18, 0x00	; 0
    4a38:	30 e0       	ldi	r19, 0x00	; 0
    4a3a:	40 e2       	ldi	r20, 0x20	; 32
    4a3c:	51 e4       	ldi	r21, 0x41	; 65
    4a3e:	fc 01       	movw	r30, r24
    4a40:	60 81       	ld	r22, Z
    4a42:	71 81       	ldd	r23, Z+1	; 0x01
    4a44:	82 81       	ldd	r24, Z+2	; 0x02
    4a46:	93 81       	ldd	r25, Z+3	; 0x03
    4a48:	0e 94 65 50 	call	0xa0ca	; 0xa0ca <__mulsf3>
    4a4c:	dc 01       	movw	r26, r24
    4a4e:	cb 01       	movw	r24, r22
    4a50:	8e 01       	movw	r16, r28
    4a52:	05 59       	subi	r16, 0x95	; 149
    4a54:	1d 4f       	sbci	r17, 0xFD	; 253
    4a56:	bc 01       	movw	r22, r24
    4a58:	cd 01       	movw	r24, r26
    4a5a:	0e 94 e8 4f 	call	0x9fd0	; 0x9fd0 <__fixunssfsi>
    4a5e:	dc 01       	movw	r26, r24
    4a60:	cb 01       	movw	r24, r22
    4a62:	f8 01       	movw	r30, r16
    4a64:	91 83       	std	Z+1, r25	; 0x01
    4a66:	80 83       	st	Z, r24
    4a68:	24 c0       	rjmp	.+72     	; 0x4ab2 <__stack+0x28b3>
    4a6a:	ce 01       	movw	r24, r28
    4a6c:	83 59       	subi	r24, 0x93	; 147
    4a6e:	9d 4f       	sbci	r25, 0xFD	; 253
    4a70:	20 e7       	ldi	r18, 0x70	; 112
    4a72:	31 e0       	ldi	r19, 0x01	; 1
    4a74:	fc 01       	movw	r30, r24
    4a76:	31 83       	std	Z+1, r19	; 0x01
    4a78:	20 83       	st	Z, r18
    4a7a:	ce 01       	movw	r24, r28
    4a7c:	83 59       	subi	r24, 0x93	; 147
    4a7e:	9d 4f       	sbci	r25, 0xFD	; 253
    4a80:	fc 01       	movw	r30, r24
    4a82:	80 81       	ld	r24, Z
    4a84:	91 81       	ldd	r25, Z+1	; 0x01
    4a86:	01 97       	sbiw	r24, 0x01	; 1
    4a88:	f1 f7       	brne	.-4      	; 0x4a86 <__stack+0x2887>
    4a8a:	9e 01       	movw	r18, r28
    4a8c:	23 59       	subi	r18, 0x93	; 147
    4a8e:	3d 4f       	sbci	r19, 0xFD	; 253
    4a90:	f9 01       	movw	r30, r18
    4a92:	91 83       	std	Z+1, r25	; 0x01
    4a94:	80 83       	st	Z, r24
    4a96:	ce 01       	movw	r24, r28
    4a98:	85 59       	subi	r24, 0x95	; 149
    4a9a:	9d 4f       	sbci	r25, 0xFD	; 253
    4a9c:	9e 01       	movw	r18, r28
    4a9e:	25 59       	subi	r18, 0x95	; 149
    4aa0:	3d 4f       	sbci	r19, 0xFD	; 253
    4aa2:	f9 01       	movw	r30, r18
    4aa4:	20 81       	ld	r18, Z
    4aa6:	31 81       	ldd	r19, Z+1	; 0x01
    4aa8:	21 50       	subi	r18, 0x01	; 1
    4aaa:	31 09       	sbc	r19, r1
    4aac:	fc 01       	movw	r30, r24
    4aae:	31 83       	std	Z+1, r19	; 0x01
    4ab0:	20 83       	st	Z, r18
    4ab2:	ce 01       	movw	r24, r28
    4ab4:	85 59       	subi	r24, 0x95	; 149
    4ab6:	9d 4f       	sbci	r25, 0xFD	; 253
    4ab8:	fc 01       	movw	r30, r24
    4aba:	80 81       	ld	r24, Z
    4abc:	91 81       	ldd	r25, Z+1	; 0x01
    4abe:	89 2b       	or	r24, r25
    4ac0:	a1 f6       	brne	.-88     	; 0x4a6a <__stack+0x286b>
    4ac2:	2c c0       	rjmp	.+88     	; 0x4b1c <__stack+0x291d>
    4ac4:	8e 01       	movw	r16, r28
    4ac6:	05 59       	subi	r16, 0x95	; 149
    4ac8:	1d 4f       	sbci	r17, 0xFD	; 253
    4aca:	ce 01       	movw	r24, r28
    4acc:	89 59       	subi	r24, 0x99	; 153
    4ace:	9d 4f       	sbci	r25, 0xFD	; 253
    4ad0:	fc 01       	movw	r30, r24
    4ad2:	60 81       	ld	r22, Z
    4ad4:	71 81       	ldd	r23, Z+1	; 0x01
    4ad6:	82 81       	ldd	r24, Z+2	; 0x02
    4ad8:	93 81       	ldd	r25, Z+3	; 0x03
    4ada:	0e 94 e8 4f 	call	0x9fd0	; 0x9fd0 <__fixunssfsi>
    4ade:	dc 01       	movw	r26, r24
    4ae0:	cb 01       	movw	r24, r22
    4ae2:	f8 01       	movw	r30, r16
    4ae4:	91 83       	std	Z+1, r25	; 0x01
    4ae6:	80 83       	st	Z, r24
    4ae8:	ce 01       	movw	r24, r28
    4aea:	81 59       	subi	r24, 0x91	; 145
    4aec:	9d 4f       	sbci	r25, 0xFD	; 253
    4aee:	9e 01       	movw	r18, r28
    4af0:	25 59       	subi	r18, 0x95	; 149
    4af2:	3d 4f       	sbci	r19, 0xFD	; 253
    4af4:	f9 01       	movw	r30, r18
    4af6:	20 81       	ld	r18, Z
    4af8:	31 81       	ldd	r19, Z+1	; 0x01
    4afa:	fc 01       	movw	r30, r24
    4afc:	31 83       	std	Z+1, r19	; 0x01
    4afe:	20 83       	st	Z, r18
    4b00:	ce 01       	movw	r24, r28
    4b02:	81 59       	subi	r24, 0x91	; 145
    4b04:	9d 4f       	sbci	r25, 0xFD	; 253
    4b06:	fc 01       	movw	r30, r24
    4b08:	80 81       	ld	r24, Z
    4b0a:	91 81       	ldd	r25, Z+1	; 0x01
    4b0c:	01 97       	sbiw	r24, 0x01	; 1
    4b0e:	f1 f7       	brne	.-4      	; 0x4b0c <__stack+0x290d>
    4b10:	9e 01       	movw	r18, r28
    4b12:	21 59       	subi	r18, 0x91	; 145
    4b14:	3d 4f       	sbci	r19, 0xFD	; 253
    4b16:	f9 01       	movw	r30, r18
    4b18:	91 83       	std	Z+1, r25	; 0x01
    4b1a:	80 83       	st	Z, r24
    4b1c:	0e 94 1d 0d 	call	0x1a3a	; 0x1a3a <buzzer_off>
    4b20:	9e 01       	movw	r18, r28
    4b22:	25 58       	subi	r18, 0x85	; 133
    4b24:	3f 4f       	sbci	r19, 0xFF	; 255
    4b26:	80 e0       	ldi	r24, 0x00	; 0
    4b28:	90 e0       	ldi	r25, 0x00	; 0
    4b2a:	a8 e4       	ldi	r26, 0x48	; 72
    4b2c:	b2 e4       	ldi	r27, 0x42	; 66
    4b2e:	f9 01       	movw	r30, r18
    4b30:	80 83       	st	Z, r24
    4b32:	91 83       	std	Z+1, r25	; 0x01
    4b34:	a2 83       	std	Z+2, r26	; 0x02
    4b36:	b3 83       	std	Z+3, r27	; 0x03
    4b38:	8e 01       	movw	r16, r28
    4b3a:	03 5a       	subi	r16, 0xA3	; 163
    4b3c:	1d 4f       	sbci	r17, 0xFD	; 253
    4b3e:	ce 01       	movw	r24, r28
    4b40:	85 58       	subi	r24, 0x85	; 133
    4b42:	9f 4f       	sbci	r25, 0xFF	; 255
    4b44:	26 e6       	ldi	r18, 0x66	; 102
    4b46:	36 e6       	ldi	r19, 0x66	; 102
    4b48:	46 e6       	ldi	r20, 0x66	; 102
    4b4a:	55 e4       	ldi	r21, 0x45	; 69
    4b4c:	fc 01       	movw	r30, r24
    4b4e:	60 81       	ld	r22, Z
    4b50:	71 81       	ldd	r23, Z+1	; 0x01
    4b52:	82 81       	ldd	r24, Z+2	; 0x02
    4b54:	93 81       	ldd	r25, Z+3	; 0x03
    4b56:	0e 94 65 50 	call	0xa0ca	; 0xa0ca <__mulsf3>
    4b5a:	dc 01       	movw	r26, r24
    4b5c:	cb 01       	movw	r24, r22
    4b5e:	f8 01       	movw	r30, r16
    4b60:	80 83       	st	Z, r24
    4b62:	91 83       	std	Z+1, r25	; 0x01
    4b64:	a2 83       	std	Z+2, r26	; 0x02
    4b66:	b3 83       	std	Z+3, r27	; 0x03
    4b68:	ce 01       	movw	r24, r28
    4b6a:	83 5a       	subi	r24, 0xA3	; 163
    4b6c:	9d 4f       	sbci	r25, 0xFD	; 253
    4b6e:	20 e0       	ldi	r18, 0x00	; 0
    4b70:	30 e0       	ldi	r19, 0x00	; 0
    4b72:	40 e8       	ldi	r20, 0x80	; 128
    4b74:	5f e3       	ldi	r21, 0x3F	; 63
    4b76:	fc 01       	movw	r30, r24
    4b78:	60 81       	ld	r22, Z
    4b7a:	71 81       	ldd	r23, Z+1	; 0x01
    4b7c:	82 81       	ldd	r24, Z+2	; 0x02
    4b7e:	93 81       	ldd	r25, Z+3	; 0x03
    4b80:	0e 94 e4 4f 	call	0x9fc8	; 0x9fc8 <__cmpsf2>
    4b84:	88 23       	and	r24, r24
    4b86:	4c f4       	brge	.+18     	; 0x4b9a <__stack+0x299b>
    4b88:	ce 01       	movw	r24, r28
    4b8a:	8f 59       	subi	r24, 0x9F	; 159
    4b8c:	9d 4f       	sbci	r25, 0xFD	; 253
    4b8e:	21 e0       	ldi	r18, 0x01	; 1
    4b90:	30 e0       	ldi	r19, 0x00	; 0
    4b92:	fc 01       	movw	r30, r24
    4b94:	31 83       	std	Z+1, r19	; 0x01
    4b96:	20 83       	st	Z, r18
    4b98:	6d c0       	rjmp	.+218    	; 0x4c74 <__stack+0x2a75>
    4b9a:	ce 01       	movw	r24, r28
    4b9c:	83 5a       	subi	r24, 0xA3	; 163
    4b9e:	9d 4f       	sbci	r25, 0xFD	; 253
    4ba0:	20 e0       	ldi	r18, 0x00	; 0
    4ba2:	3f ef       	ldi	r19, 0xFF	; 255
    4ba4:	4f e7       	ldi	r20, 0x7F	; 127
    4ba6:	57 e4       	ldi	r21, 0x47	; 71
    4ba8:	fc 01       	movw	r30, r24
    4baa:	60 81       	ld	r22, Z
    4bac:	71 81       	ldd	r23, Z+1	; 0x01
    4bae:	82 81       	ldd	r24, Z+2	; 0x02
    4bb0:	93 81       	ldd	r25, Z+3	; 0x03
    4bb2:	0e 94 61 50 	call	0xa0c2	; 0xa0c2 <__gesf2>
    4bb6:	18 16       	cp	r1, r24
    4bb8:	0c f0       	brlt	.+2      	; 0x4bbc <__stack+0x29bd>
    4bba:	4a c0       	rjmp	.+148    	; 0x4c50 <__stack+0x2a51>
    4bbc:	ce 01       	movw	r24, r28
    4bbe:	85 58       	subi	r24, 0x85	; 133
    4bc0:	9f 4f       	sbci	r25, 0xFF	; 255
    4bc2:	20 e0       	ldi	r18, 0x00	; 0
    4bc4:	30 e0       	ldi	r19, 0x00	; 0
    4bc6:	40 e2       	ldi	r20, 0x20	; 32
    4bc8:	51 e4       	ldi	r21, 0x41	; 65
    4bca:	fc 01       	movw	r30, r24
    4bcc:	60 81       	ld	r22, Z
    4bce:	71 81       	ldd	r23, Z+1	; 0x01
    4bd0:	82 81       	ldd	r24, Z+2	; 0x02
    4bd2:	93 81       	ldd	r25, Z+3	; 0x03
    4bd4:	0e 94 65 50 	call	0xa0ca	; 0xa0ca <__mulsf3>
    4bd8:	dc 01       	movw	r26, r24
    4bda:	cb 01       	movw	r24, r22
    4bdc:	8e 01       	movw	r16, r28
    4bde:	0f 59       	subi	r16, 0x9F	; 159
    4be0:	1d 4f       	sbci	r17, 0xFD	; 253
    4be2:	bc 01       	movw	r22, r24
    4be4:	cd 01       	movw	r24, r26
    4be6:	0e 94 e8 4f 	call	0x9fd0	; 0x9fd0 <__fixunssfsi>
    4bea:	dc 01       	movw	r26, r24
    4bec:	cb 01       	movw	r24, r22
    4bee:	f8 01       	movw	r30, r16
    4bf0:	91 83       	std	Z+1, r25	; 0x01
    4bf2:	80 83       	st	Z, r24
    4bf4:	24 c0       	rjmp	.+72     	; 0x4c3e <__stack+0x2a3f>
    4bf6:	ce 01       	movw	r24, r28
    4bf8:	8d 59       	subi	r24, 0x9D	; 157
    4bfa:	9d 4f       	sbci	r25, 0xFD	; 253
    4bfc:	20 e7       	ldi	r18, 0x70	; 112
    4bfe:	31 e0       	ldi	r19, 0x01	; 1
    4c00:	fc 01       	movw	r30, r24
    4c02:	31 83       	std	Z+1, r19	; 0x01
    4c04:	20 83       	st	Z, r18
    4c06:	ce 01       	movw	r24, r28
    4c08:	8d 59       	subi	r24, 0x9D	; 157
    4c0a:	9d 4f       	sbci	r25, 0xFD	; 253
    4c0c:	fc 01       	movw	r30, r24
    4c0e:	80 81       	ld	r24, Z
    4c10:	91 81       	ldd	r25, Z+1	; 0x01
    4c12:	01 97       	sbiw	r24, 0x01	; 1
    4c14:	f1 f7       	brne	.-4      	; 0x4c12 <__stack+0x2a13>
    4c16:	9e 01       	movw	r18, r28
    4c18:	2d 59       	subi	r18, 0x9D	; 157
    4c1a:	3d 4f       	sbci	r19, 0xFD	; 253
    4c1c:	f9 01       	movw	r30, r18
    4c1e:	91 83       	std	Z+1, r25	; 0x01
    4c20:	80 83       	st	Z, r24
    4c22:	ce 01       	movw	r24, r28
    4c24:	8f 59       	subi	r24, 0x9F	; 159
    4c26:	9d 4f       	sbci	r25, 0xFD	; 253
    4c28:	9e 01       	movw	r18, r28
    4c2a:	2f 59       	subi	r18, 0x9F	; 159
    4c2c:	3d 4f       	sbci	r19, 0xFD	; 253
    4c2e:	f9 01       	movw	r30, r18
    4c30:	20 81       	ld	r18, Z
    4c32:	31 81       	ldd	r19, Z+1	; 0x01
    4c34:	21 50       	subi	r18, 0x01	; 1
    4c36:	31 09       	sbc	r19, r1
    4c38:	fc 01       	movw	r30, r24
    4c3a:	31 83       	std	Z+1, r19	; 0x01
    4c3c:	20 83       	st	Z, r18
    4c3e:	ce 01       	movw	r24, r28
    4c40:	8f 59       	subi	r24, 0x9F	; 159
    4c42:	9d 4f       	sbci	r25, 0xFD	; 253
    4c44:	fc 01       	movw	r30, r24
    4c46:	80 81       	ld	r24, Z
    4c48:	91 81       	ldd	r25, Z+1	; 0x01
    4c4a:	89 2b       	or	r24, r25
    4c4c:	a1 f6       	brne	.-88     	; 0x4bf6 <__stack+0x29f7>
    4c4e:	2c c0       	rjmp	.+88     	; 0x4ca8 <__stack+0x2aa9>
    4c50:	8e 01       	movw	r16, r28
    4c52:	0f 59       	subi	r16, 0x9F	; 159
    4c54:	1d 4f       	sbci	r17, 0xFD	; 253
    4c56:	ce 01       	movw	r24, r28
    4c58:	83 5a       	subi	r24, 0xA3	; 163
    4c5a:	9d 4f       	sbci	r25, 0xFD	; 253
    4c5c:	fc 01       	movw	r30, r24
    4c5e:	60 81       	ld	r22, Z
    4c60:	71 81       	ldd	r23, Z+1	; 0x01
    4c62:	82 81       	ldd	r24, Z+2	; 0x02
    4c64:	93 81       	ldd	r25, Z+3	; 0x03
    4c66:	0e 94 e8 4f 	call	0x9fd0	; 0x9fd0 <__fixunssfsi>
    4c6a:	dc 01       	movw	r26, r24
    4c6c:	cb 01       	movw	r24, r22
    4c6e:	f8 01       	movw	r30, r16
    4c70:	91 83       	std	Z+1, r25	; 0x01
    4c72:	80 83       	st	Z, r24
    4c74:	ce 01       	movw	r24, r28
    4c76:	8b 59       	subi	r24, 0x9B	; 155
    4c78:	9d 4f       	sbci	r25, 0xFD	; 253
    4c7a:	9e 01       	movw	r18, r28
    4c7c:	2f 59       	subi	r18, 0x9F	; 159
    4c7e:	3d 4f       	sbci	r19, 0xFD	; 253
    4c80:	f9 01       	movw	r30, r18
    4c82:	20 81       	ld	r18, Z
    4c84:	31 81       	ldd	r19, Z+1	; 0x01
    4c86:	fc 01       	movw	r30, r24
    4c88:	31 83       	std	Z+1, r19	; 0x01
    4c8a:	20 83       	st	Z, r18
    4c8c:	ce 01       	movw	r24, r28
    4c8e:	8b 59       	subi	r24, 0x9B	; 155
    4c90:	9d 4f       	sbci	r25, 0xFD	; 253
    4c92:	fc 01       	movw	r30, r24
    4c94:	80 81       	ld	r24, Z
    4c96:	91 81       	ldd	r25, Z+1	; 0x01
    4c98:	01 97       	sbiw	r24, 0x01	; 1
    4c9a:	f1 f7       	brne	.-4      	; 0x4c98 <__stack+0x2a99>
    4c9c:	9e 01       	movw	r18, r28
    4c9e:	2b 59       	subi	r18, 0x9B	; 155
    4ca0:	3d 4f       	sbci	r19, 0xFD	; 253
    4ca2:	f9 01       	movw	r30, r18
    4ca4:	91 83       	std	Z+1, r25	; 0x01
    4ca6:	80 83       	st	Z, r24
    4ca8:	0e 94 0c 0d 	call	0x1a18	; 0x1a18 <buzzer_on>
    4cac:	9e 01       	movw	r18, r28
    4cae:	21 58       	subi	r18, 0x81	; 129
    4cb0:	3f 4f       	sbci	r19, 0xFF	; 255
    4cb2:	80 e0       	ldi	r24, 0x00	; 0
    4cb4:	90 e0       	ldi	r25, 0x00	; 0
    4cb6:	a8 ec       	ldi	r26, 0xC8	; 200
    4cb8:	b2 e4       	ldi	r27, 0x42	; 66
    4cba:	f9 01       	movw	r30, r18
    4cbc:	80 83       	st	Z, r24
    4cbe:	91 83       	std	Z+1, r25	; 0x01
    4cc0:	a2 83       	std	Z+2, r26	; 0x02
    4cc2:	b3 83       	std	Z+3, r27	; 0x03
    4cc4:	8e 01       	movw	r16, r28
    4cc6:	0d 5a       	subi	r16, 0xAD	; 173
    4cc8:	1d 4f       	sbci	r17, 0xFD	; 253
    4cca:	ce 01       	movw	r24, r28
    4ccc:	81 58       	subi	r24, 0x81	; 129
    4cce:	9f 4f       	sbci	r25, 0xFF	; 255
    4cd0:	26 e6       	ldi	r18, 0x66	; 102
    4cd2:	36 e6       	ldi	r19, 0x66	; 102
    4cd4:	46 e6       	ldi	r20, 0x66	; 102
    4cd6:	55 e4       	ldi	r21, 0x45	; 69
    4cd8:	fc 01       	movw	r30, r24
    4cda:	60 81       	ld	r22, Z
    4cdc:	71 81       	ldd	r23, Z+1	; 0x01
    4cde:	82 81       	ldd	r24, Z+2	; 0x02
    4ce0:	93 81       	ldd	r25, Z+3	; 0x03
    4ce2:	0e 94 65 50 	call	0xa0ca	; 0xa0ca <__mulsf3>
    4ce6:	dc 01       	movw	r26, r24
    4ce8:	cb 01       	movw	r24, r22
    4cea:	f8 01       	movw	r30, r16
    4cec:	80 83       	st	Z, r24
    4cee:	91 83       	std	Z+1, r25	; 0x01
    4cf0:	a2 83       	std	Z+2, r26	; 0x02
    4cf2:	b3 83       	std	Z+3, r27	; 0x03
    4cf4:	ce 01       	movw	r24, r28
    4cf6:	8d 5a       	subi	r24, 0xAD	; 173
    4cf8:	9d 4f       	sbci	r25, 0xFD	; 253
    4cfa:	20 e0       	ldi	r18, 0x00	; 0
    4cfc:	30 e0       	ldi	r19, 0x00	; 0
    4cfe:	40 e8       	ldi	r20, 0x80	; 128
    4d00:	5f e3       	ldi	r21, 0x3F	; 63
    4d02:	fc 01       	movw	r30, r24
    4d04:	60 81       	ld	r22, Z
    4d06:	71 81       	ldd	r23, Z+1	; 0x01
    4d08:	82 81       	ldd	r24, Z+2	; 0x02
    4d0a:	93 81       	ldd	r25, Z+3	; 0x03
    4d0c:	0e 94 e4 4f 	call	0x9fc8	; 0x9fc8 <__cmpsf2>
    4d10:	88 23       	and	r24, r24
    4d12:	4c f4       	brge	.+18     	; 0x4d26 <__stack+0x2b27>
    4d14:	ce 01       	movw	r24, r28
    4d16:	89 5a       	subi	r24, 0xA9	; 169
    4d18:	9d 4f       	sbci	r25, 0xFD	; 253
    4d1a:	21 e0       	ldi	r18, 0x01	; 1
    4d1c:	30 e0       	ldi	r19, 0x00	; 0
    4d1e:	fc 01       	movw	r30, r24
    4d20:	31 83       	std	Z+1, r19	; 0x01
    4d22:	20 83       	st	Z, r18
    4d24:	6d c0       	rjmp	.+218    	; 0x4e00 <__stack+0x2c01>
    4d26:	ce 01       	movw	r24, r28
    4d28:	8d 5a       	subi	r24, 0xAD	; 173
    4d2a:	9d 4f       	sbci	r25, 0xFD	; 253
    4d2c:	20 e0       	ldi	r18, 0x00	; 0
    4d2e:	3f ef       	ldi	r19, 0xFF	; 255
    4d30:	4f e7       	ldi	r20, 0x7F	; 127
    4d32:	57 e4       	ldi	r21, 0x47	; 71
    4d34:	fc 01       	movw	r30, r24
    4d36:	60 81       	ld	r22, Z
    4d38:	71 81       	ldd	r23, Z+1	; 0x01
    4d3a:	82 81       	ldd	r24, Z+2	; 0x02
    4d3c:	93 81       	ldd	r25, Z+3	; 0x03
    4d3e:	0e 94 61 50 	call	0xa0c2	; 0xa0c2 <__gesf2>
    4d42:	18 16       	cp	r1, r24
    4d44:	0c f0       	brlt	.+2      	; 0x4d48 <__stack+0x2b49>
    4d46:	4a c0       	rjmp	.+148    	; 0x4ddc <__stack+0x2bdd>
    4d48:	ce 01       	movw	r24, r28
    4d4a:	81 58       	subi	r24, 0x81	; 129
    4d4c:	9f 4f       	sbci	r25, 0xFF	; 255
    4d4e:	20 e0       	ldi	r18, 0x00	; 0
    4d50:	30 e0       	ldi	r19, 0x00	; 0
    4d52:	40 e2       	ldi	r20, 0x20	; 32
    4d54:	51 e4       	ldi	r21, 0x41	; 65
    4d56:	fc 01       	movw	r30, r24
    4d58:	60 81       	ld	r22, Z
    4d5a:	71 81       	ldd	r23, Z+1	; 0x01
    4d5c:	82 81       	ldd	r24, Z+2	; 0x02
    4d5e:	93 81       	ldd	r25, Z+3	; 0x03
    4d60:	0e 94 65 50 	call	0xa0ca	; 0xa0ca <__mulsf3>
    4d64:	dc 01       	movw	r26, r24
    4d66:	cb 01       	movw	r24, r22
    4d68:	8e 01       	movw	r16, r28
    4d6a:	09 5a       	subi	r16, 0xA9	; 169
    4d6c:	1d 4f       	sbci	r17, 0xFD	; 253
    4d6e:	bc 01       	movw	r22, r24
    4d70:	cd 01       	movw	r24, r26
    4d72:	0e 94 e8 4f 	call	0x9fd0	; 0x9fd0 <__fixunssfsi>
    4d76:	dc 01       	movw	r26, r24
    4d78:	cb 01       	movw	r24, r22
    4d7a:	f8 01       	movw	r30, r16
    4d7c:	91 83       	std	Z+1, r25	; 0x01
    4d7e:	80 83       	st	Z, r24
    4d80:	24 c0       	rjmp	.+72     	; 0x4dca <__stack+0x2bcb>
    4d82:	ce 01       	movw	r24, r28
    4d84:	87 5a       	subi	r24, 0xA7	; 167
    4d86:	9d 4f       	sbci	r25, 0xFD	; 253
    4d88:	20 e7       	ldi	r18, 0x70	; 112
    4d8a:	31 e0       	ldi	r19, 0x01	; 1
    4d8c:	fc 01       	movw	r30, r24
    4d8e:	31 83       	std	Z+1, r19	; 0x01
    4d90:	20 83       	st	Z, r18
    4d92:	ce 01       	movw	r24, r28
    4d94:	87 5a       	subi	r24, 0xA7	; 167
    4d96:	9d 4f       	sbci	r25, 0xFD	; 253
    4d98:	fc 01       	movw	r30, r24
    4d9a:	80 81       	ld	r24, Z
    4d9c:	91 81       	ldd	r25, Z+1	; 0x01
    4d9e:	01 97       	sbiw	r24, 0x01	; 1
    4da0:	f1 f7       	brne	.-4      	; 0x4d9e <__stack+0x2b9f>
    4da2:	9e 01       	movw	r18, r28
    4da4:	27 5a       	subi	r18, 0xA7	; 167
    4da6:	3d 4f       	sbci	r19, 0xFD	; 253
    4da8:	f9 01       	movw	r30, r18
    4daa:	91 83       	std	Z+1, r25	; 0x01
    4dac:	80 83       	st	Z, r24
    4dae:	ce 01       	movw	r24, r28
    4db0:	89 5a       	subi	r24, 0xA9	; 169
    4db2:	9d 4f       	sbci	r25, 0xFD	; 253
    4db4:	9e 01       	movw	r18, r28
    4db6:	29 5a       	subi	r18, 0xA9	; 169
    4db8:	3d 4f       	sbci	r19, 0xFD	; 253
    4dba:	f9 01       	movw	r30, r18
    4dbc:	20 81       	ld	r18, Z
    4dbe:	31 81       	ldd	r19, Z+1	; 0x01
    4dc0:	21 50       	subi	r18, 0x01	; 1
    4dc2:	31 09       	sbc	r19, r1
    4dc4:	fc 01       	movw	r30, r24
    4dc6:	31 83       	std	Z+1, r19	; 0x01
    4dc8:	20 83       	st	Z, r18
    4dca:	ce 01       	movw	r24, r28
    4dcc:	89 5a       	subi	r24, 0xA9	; 169
    4dce:	9d 4f       	sbci	r25, 0xFD	; 253
    4dd0:	fc 01       	movw	r30, r24
    4dd2:	80 81       	ld	r24, Z
    4dd4:	91 81       	ldd	r25, Z+1	; 0x01
    4dd6:	89 2b       	or	r24, r25
    4dd8:	a1 f6       	brne	.-88     	; 0x4d82 <__stack+0x2b83>
    4dda:	2c c0       	rjmp	.+88     	; 0x4e34 <__stack+0x2c35>
    4ddc:	8e 01       	movw	r16, r28
    4dde:	09 5a       	subi	r16, 0xA9	; 169
    4de0:	1d 4f       	sbci	r17, 0xFD	; 253
    4de2:	ce 01       	movw	r24, r28
    4de4:	8d 5a       	subi	r24, 0xAD	; 173
    4de6:	9d 4f       	sbci	r25, 0xFD	; 253
    4de8:	fc 01       	movw	r30, r24
    4dea:	60 81       	ld	r22, Z
    4dec:	71 81       	ldd	r23, Z+1	; 0x01
    4dee:	82 81       	ldd	r24, Z+2	; 0x02
    4df0:	93 81       	ldd	r25, Z+3	; 0x03
    4df2:	0e 94 e8 4f 	call	0x9fd0	; 0x9fd0 <__fixunssfsi>
    4df6:	dc 01       	movw	r26, r24
    4df8:	cb 01       	movw	r24, r22
    4dfa:	f8 01       	movw	r30, r16
    4dfc:	91 83       	std	Z+1, r25	; 0x01
    4dfe:	80 83       	st	Z, r24
    4e00:	ce 01       	movw	r24, r28
    4e02:	85 5a       	subi	r24, 0xA5	; 165
    4e04:	9d 4f       	sbci	r25, 0xFD	; 253
    4e06:	9e 01       	movw	r18, r28
    4e08:	29 5a       	subi	r18, 0xA9	; 169
    4e0a:	3d 4f       	sbci	r19, 0xFD	; 253
    4e0c:	f9 01       	movw	r30, r18
    4e0e:	20 81       	ld	r18, Z
    4e10:	31 81       	ldd	r19, Z+1	; 0x01
    4e12:	fc 01       	movw	r30, r24
    4e14:	31 83       	std	Z+1, r19	; 0x01
    4e16:	20 83       	st	Z, r18
    4e18:	ce 01       	movw	r24, r28
    4e1a:	85 5a       	subi	r24, 0xA5	; 165
    4e1c:	9d 4f       	sbci	r25, 0xFD	; 253
    4e1e:	fc 01       	movw	r30, r24
    4e20:	80 81       	ld	r24, Z
    4e22:	91 81       	ldd	r25, Z+1	; 0x01
    4e24:	01 97       	sbiw	r24, 0x01	; 1
    4e26:	f1 f7       	brne	.-4      	; 0x4e24 <__stack+0x2c25>
    4e28:	9e 01       	movw	r18, r28
    4e2a:	25 5a       	subi	r18, 0xA5	; 165
    4e2c:	3d 4f       	sbci	r19, 0xFD	; 253
    4e2e:	f9 01       	movw	r30, r18
    4e30:	91 83       	std	Z+1, r25	; 0x01
    4e32:	80 83       	st	Z, r24
    4e34:	0e 94 1d 0d 	call	0x1a3a	; 0x1a3a <buzzer_off>
    4e38:	9e 01       	movw	r18, r28
    4e3a:	2d 57       	subi	r18, 0x7D	; 125
    4e3c:	3f 4f       	sbci	r19, 0xFF	; 255
    4e3e:	80 e0       	ldi	r24, 0x00	; 0
    4e40:	90 e0       	ldi	r25, 0x00	; 0
    4e42:	a8 e4       	ldi	r26, 0x48	; 72
    4e44:	b2 e4       	ldi	r27, 0x42	; 66
    4e46:	f9 01       	movw	r30, r18
    4e48:	80 83       	st	Z, r24
    4e4a:	91 83       	std	Z+1, r25	; 0x01
    4e4c:	a2 83       	std	Z+2, r26	; 0x02
    4e4e:	b3 83       	std	Z+3, r27	; 0x03
    4e50:	8e 01       	movw	r16, r28
    4e52:	07 5b       	subi	r16, 0xB7	; 183
    4e54:	1d 4f       	sbci	r17, 0xFD	; 253
    4e56:	ce 01       	movw	r24, r28
    4e58:	8d 57       	subi	r24, 0x7D	; 125
    4e5a:	9f 4f       	sbci	r25, 0xFF	; 255
    4e5c:	26 e6       	ldi	r18, 0x66	; 102
    4e5e:	36 e6       	ldi	r19, 0x66	; 102
    4e60:	46 e6       	ldi	r20, 0x66	; 102
    4e62:	55 e4       	ldi	r21, 0x45	; 69
    4e64:	fc 01       	movw	r30, r24
    4e66:	60 81       	ld	r22, Z
    4e68:	71 81       	ldd	r23, Z+1	; 0x01
    4e6a:	82 81       	ldd	r24, Z+2	; 0x02
    4e6c:	93 81       	ldd	r25, Z+3	; 0x03
    4e6e:	0e 94 65 50 	call	0xa0ca	; 0xa0ca <__mulsf3>
    4e72:	dc 01       	movw	r26, r24
    4e74:	cb 01       	movw	r24, r22
    4e76:	f8 01       	movw	r30, r16
    4e78:	80 83       	st	Z, r24
    4e7a:	91 83       	std	Z+1, r25	; 0x01
    4e7c:	a2 83       	std	Z+2, r26	; 0x02
    4e7e:	b3 83       	std	Z+3, r27	; 0x03
    4e80:	ce 01       	movw	r24, r28
    4e82:	87 5b       	subi	r24, 0xB7	; 183
    4e84:	9d 4f       	sbci	r25, 0xFD	; 253
    4e86:	20 e0       	ldi	r18, 0x00	; 0
    4e88:	30 e0       	ldi	r19, 0x00	; 0
    4e8a:	40 e8       	ldi	r20, 0x80	; 128
    4e8c:	5f e3       	ldi	r21, 0x3F	; 63
    4e8e:	fc 01       	movw	r30, r24
    4e90:	60 81       	ld	r22, Z
    4e92:	71 81       	ldd	r23, Z+1	; 0x01
    4e94:	82 81       	ldd	r24, Z+2	; 0x02
    4e96:	93 81       	ldd	r25, Z+3	; 0x03
    4e98:	0e 94 e4 4f 	call	0x9fc8	; 0x9fc8 <__cmpsf2>
    4e9c:	88 23       	and	r24, r24
    4e9e:	4c f4       	brge	.+18     	; 0x4eb2 <__stack+0x2cb3>
    4ea0:	ce 01       	movw	r24, r28
    4ea2:	83 5b       	subi	r24, 0xB3	; 179
    4ea4:	9d 4f       	sbci	r25, 0xFD	; 253
    4ea6:	21 e0       	ldi	r18, 0x01	; 1
    4ea8:	30 e0       	ldi	r19, 0x00	; 0
    4eaa:	fc 01       	movw	r30, r24
    4eac:	31 83       	std	Z+1, r19	; 0x01
    4eae:	20 83       	st	Z, r18
    4eb0:	6d c0       	rjmp	.+218    	; 0x4f8c <__stack+0x2d8d>
    4eb2:	ce 01       	movw	r24, r28
    4eb4:	87 5b       	subi	r24, 0xB7	; 183
    4eb6:	9d 4f       	sbci	r25, 0xFD	; 253
    4eb8:	20 e0       	ldi	r18, 0x00	; 0
    4eba:	3f ef       	ldi	r19, 0xFF	; 255
    4ebc:	4f e7       	ldi	r20, 0x7F	; 127
    4ebe:	57 e4       	ldi	r21, 0x47	; 71
    4ec0:	fc 01       	movw	r30, r24
    4ec2:	60 81       	ld	r22, Z
    4ec4:	71 81       	ldd	r23, Z+1	; 0x01
    4ec6:	82 81       	ldd	r24, Z+2	; 0x02
    4ec8:	93 81       	ldd	r25, Z+3	; 0x03
    4eca:	0e 94 61 50 	call	0xa0c2	; 0xa0c2 <__gesf2>
    4ece:	18 16       	cp	r1, r24
    4ed0:	0c f0       	brlt	.+2      	; 0x4ed4 <__stack+0x2cd5>
    4ed2:	4a c0       	rjmp	.+148    	; 0x4f68 <__stack+0x2d69>
    4ed4:	ce 01       	movw	r24, r28
    4ed6:	8d 57       	subi	r24, 0x7D	; 125
    4ed8:	9f 4f       	sbci	r25, 0xFF	; 255
    4eda:	20 e0       	ldi	r18, 0x00	; 0
    4edc:	30 e0       	ldi	r19, 0x00	; 0
    4ede:	40 e2       	ldi	r20, 0x20	; 32
    4ee0:	51 e4       	ldi	r21, 0x41	; 65
    4ee2:	fc 01       	movw	r30, r24
    4ee4:	60 81       	ld	r22, Z
    4ee6:	71 81       	ldd	r23, Z+1	; 0x01
    4ee8:	82 81       	ldd	r24, Z+2	; 0x02
    4eea:	93 81       	ldd	r25, Z+3	; 0x03
    4eec:	0e 94 65 50 	call	0xa0ca	; 0xa0ca <__mulsf3>
    4ef0:	dc 01       	movw	r26, r24
    4ef2:	cb 01       	movw	r24, r22
    4ef4:	8e 01       	movw	r16, r28
    4ef6:	03 5b       	subi	r16, 0xB3	; 179
    4ef8:	1d 4f       	sbci	r17, 0xFD	; 253
    4efa:	bc 01       	movw	r22, r24
    4efc:	cd 01       	movw	r24, r26
    4efe:	0e 94 e8 4f 	call	0x9fd0	; 0x9fd0 <__fixunssfsi>
    4f02:	dc 01       	movw	r26, r24
    4f04:	cb 01       	movw	r24, r22
    4f06:	f8 01       	movw	r30, r16
    4f08:	91 83       	std	Z+1, r25	; 0x01
    4f0a:	80 83       	st	Z, r24
    4f0c:	24 c0       	rjmp	.+72     	; 0x4f56 <__stack+0x2d57>
    4f0e:	ce 01       	movw	r24, r28
    4f10:	81 5b       	subi	r24, 0xB1	; 177
    4f12:	9d 4f       	sbci	r25, 0xFD	; 253
    4f14:	20 e7       	ldi	r18, 0x70	; 112
    4f16:	31 e0       	ldi	r19, 0x01	; 1
    4f18:	fc 01       	movw	r30, r24
    4f1a:	31 83       	std	Z+1, r19	; 0x01
    4f1c:	20 83       	st	Z, r18
    4f1e:	ce 01       	movw	r24, r28
    4f20:	81 5b       	subi	r24, 0xB1	; 177
    4f22:	9d 4f       	sbci	r25, 0xFD	; 253
    4f24:	fc 01       	movw	r30, r24
    4f26:	80 81       	ld	r24, Z
    4f28:	91 81       	ldd	r25, Z+1	; 0x01
    4f2a:	01 97       	sbiw	r24, 0x01	; 1
    4f2c:	f1 f7       	brne	.-4      	; 0x4f2a <__stack+0x2d2b>
    4f2e:	9e 01       	movw	r18, r28
    4f30:	21 5b       	subi	r18, 0xB1	; 177
    4f32:	3d 4f       	sbci	r19, 0xFD	; 253
    4f34:	f9 01       	movw	r30, r18
    4f36:	91 83       	std	Z+1, r25	; 0x01
    4f38:	80 83       	st	Z, r24
    4f3a:	ce 01       	movw	r24, r28
    4f3c:	83 5b       	subi	r24, 0xB3	; 179
    4f3e:	9d 4f       	sbci	r25, 0xFD	; 253
    4f40:	9e 01       	movw	r18, r28
    4f42:	23 5b       	subi	r18, 0xB3	; 179
    4f44:	3d 4f       	sbci	r19, 0xFD	; 253
    4f46:	f9 01       	movw	r30, r18
    4f48:	20 81       	ld	r18, Z
    4f4a:	31 81       	ldd	r19, Z+1	; 0x01
    4f4c:	21 50       	subi	r18, 0x01	; 1
    4f4e:	31 09       	sbc	r19, r1
    4f50:	fc 01       	movw	r30, r24
    4f52:	31 83       	std	Z+1, r19	; 0x01
    4f54:	20 83       	st	Z, r18
    4f56:	ce 01       	movw	r24, r28
    4f58:	83 5b       	subi	r24, 0xB3	; 179
    4f5a:	9d 4f       	sbci	r25, 0xFD	; 253
    4f5c:	fc 01       	movw	r30, r24
    4f5e:	80 81       	ld	r24, Z
    4f60:	91 81       	ldd	r25, Z+1	; 0x01
    4f62:	89 2b       	or	r24, r25
    4f64:	a1 f6       	brne	.-88     	; 0x4f0e <__stack+0x2d0f>
    4f66:	2c c0       	rjmp	.+88     	; 0x4fc0 <__stack+0x2dc1>
    4f68:	8e 01       	movw	r16, r28
    4f6a:	03 5b       	subi	r16, 0xB3	; 179
    4f6c:	1d 4f       	sbci	r17, 0xFD	; 253
    4f6e:	ce 01       	movw	r24, r28
    4f70:	87 5b       	subi	r24, 0xB7	; 183
    4f72:	9d 4f       	sbci	r25, 0xFD	; 253
    4f74:	fc 01       	movw	r30, r24
    4f76:	60 81       	ld	r22, Z
    4f78:	71 81       	ldd	r23, Z+1	; 0x01
    4f7a:	82 81       	ldd	r24, Z+2	; 0x02
    4f7c:	93 81       	ldd	r25, Z+3	; 0x03
    4f7e:	0e 94 e8 4f 	call	0x9fd0	; 0x9fd0 <__fixunssfsi>
    4f82:	dc 01       	movw	r26, r24
    4f84:	cb 01       	movw	r24, r22
    4f86:	f8 01       	movw	r30, r16
    4f88:	91 83       	std	Z+1, r25	; 0x01
    4f8a:	80 83       	st	Z, r24
    4f8c:	ce 01       	movw	r24, r28
    4f8e:	8f 5a       	subi	r24, 0xAF	; 175
    4f90:	9d 4f       	sbci	r25, 0xFD	; 253
    4f92:	9e 01       	movw	r18, r28
    4f94:	23 5b       	subi	r18, 0xB3	; 179
    4f96:	3d 4f       	sbci	r19, 0xFD	; 253
    4f98:	f9 01       	movw	r30, r18
    4f9a:	20 81       	ld	r18, Z
    4f9c:	31 81       	ldd	r19, Z+1	; 0x01
    4f9e:	fc 01       	movw	r30, r24
    4fa0:	31 83       	std	Z+1, r19	; 0x01
    4fa2:	20 83       	st	Z, r18
    4fa4:	ce 01       	movw	r24, r28
    4fa6:	8f 5a       	subi	r24, 0xAF	; 175
    4fa8:	9d 4f       	sbci	r25, 0xFD	; 253
    4faa:	fc 01       	movw	r30, r24
    4fac:	80 81       	ld	r24, Z
    4fae:	91 81       	ldd	r25, Z+1	; 0x01
    4fb0:	01 97       	sbiw	r24, 0x01	; 1
    4fb2:	f1 f7       	brne	.-4      	; 0x4fb0 <__stack+0x2db1>
    4fb4:	9e 01       	movw	r18, r28
    4fb6:	2f 5a       	subi	r18, 0xAF	; 175
    4fb8:	3d 4f       	sbci	r19, 0xFD	; 253
    4fba:	f9 01       	movw	r30, r18
    4fbc:	91 83       	std	Z+1, r25	; 0x01
    4fbe:	80 83       	st	Z, r24
    4fc0:	0e 94 8c 0e 	call	0x1d18	; 0x1d18 <forward>
    4fc4:	9e 01       	movw	r18, r28
    4fc6:	29 57       	subi	r18, 0x79	; 121
    4fc8:	3f 4f       	sbci	r19, 0xFF	; 255
    4fca:	80 e0       	ldi	r24, 0x00	; 0
    4fcc:	90 e0       	ldi	r25, 0x00	; 0
    4fce:	a8 ec       	ldi	r26, 0xC8	; 200
    4fd0:	b2 e4       	ldi	r27, 0x42	; 66
    4fd2:	f9 01       	movw	r30, r18
    4fd4:	80 83       	st	Z, r24
    4fd6:	91 83       	std	Z+1, r25	; 0x01
    4fd8:	a2 83       	std	Z+2, r26	; 0x02
    4fda:	b3 83       	std	Z+3, r27	; 0x03
    4fdc:	8e 01       	movw	r16, r28
    4fde:	01 5c       	subi	r16, 0xC1	; 193
    4fe0:	1d 4f       	sbci	r17, 0xFD	; 253
    4fe2:	ce 01       	movw	r24, r28
    4fe4:	89 57       	subi	r24, 0x79	; 121
    4fe6:	9f 4f       	sbci	r25, 0xFF	; 255
    4fe8:	26 e6       	ldi	r18, 0x66	; 102
    4fea:	36 e6       	ldi	r19, 0x66	; 102
    4fec:	46 e6       	ldi	r20, 0x66	; 102
    4fee:	55 e4       	ldi	r21, 0x45	; 69
    4ff0:	fc 01       	movw	r30, r24
    4ff2:	60 81       	ld	r22, Z
    4ff4:	71 81       	ldd	r23, Z+1	; 0x01
    4ff6:	82 81       	ldd	r24, Z+2	; 0x02
    4ff8:	93 81       	ldd	r25, Z+3	; 0x03
    4ffa:	0e 94 65 50 	call	0xa0ca	; 0xa0ca <__mulsf3>
    4ffe:	dc 01       	movw	r26, r24
    5000:	cb 01       	movw	r24, r22
    5002:	f8 01       	movw	r30, r16
    5004:	80 83       	st	Z, r24
    5006:	91 83       	std	Z+1, r25	; 0x01
    5008:	a2 83       	std	Z+2, r26	; 0x02
    500a:	b3 83       	std	Z+3, r27	; 0x03
    500c:	ce 01       	movw	r24, r28
    500e:	81 5c       	subi	r24, 0xC1	; 193
    5010:	9d 4f       	sbci	r25, 0xFD	; 253
    5012:	20 e0       	ldi	r18, 0x00	; 0
    5014:	30 e0       	ldi	r19, 0x00	; 0
    5016:	40 e8       	ldi	r20, 0x80	; 128
    5018:	5f e3       	ldi	r21, 0x3F	; 63
    501a:	fc 01       	movw	r30, r24
    501c:	60 81       	ld	r22, Z
    501e:	71 81       	ldd	r23, Z+1	; 0x01
    5020:	82 81       	ldd	r24, Z+2	; 0x02
    5022:	93 81       	ldd	r25, Z+3	; 0x03
    5024:	0e 94 e4 4f 	call	0x9fc8	; 0x9fc8 <__cmpsf2>
    5028:	88 23       	and	r24, r24
    502a:	4c f4       	brge	.+18     	; 0x503e <__stack+0x2e3f>
    502c:	ce 01       	movw	r24, r28
    502e:	8d 5b       	subi	r24, 0xBD	; 189
    5030:	9d 4f       	sbci	r25, 0xFD	; 253
    5032:	21 e0       	ldi	r18, 0x01	; 1
    5034:	30 e0       	ldi	r19, 0x00	; 0
    5036:	fc 01       	movw	r30, r24
    5038:	31 83       	std	Z+1, r19	; 0x01
    503a:	20 83       	st	Z, r18
    503c:	6d c0       	rjmp	.+218    	; 0x5118 <__stack+0x2f19>
    503e:	ce 01       	movw	r24, r28
    5040:	81 5c       	subi	r24, 0xC1	; 193
    5042:	9d 4f       	sbci	r25, 0xFD	; 253
    5044:	20 e0       	ldi	r18, 0x00	; 0
    5046:	3f ef       	ldi	r19, 0xFF	; 255
    5048:	4f e7       	ldi	r20, 0x7F	; 127
    504a:	57 e4       	ldi	r21, 0x47	; 71
    504c:	fc 01       	movw	r30, r24
    504e:	60 81       	ld	r22, Z
    5050:	71 81       	ldd	r23, Z+1	; 0x01
    5052:	82 81       	ldd	r24, Z+2	; 0x02
    5054:	93 81       	ldd	r25, Z+3	; 0x03
    5056:	0e 94 61 50 	call	0xa0c2	; 0xa0c2 <__gesf2>
    505a:	18 16       	cp	r1, r24
    505c:	0c f0       	brlt	.+2      	; 0x5060 <__stack+0x2e61>
    505e:	4a c0       	rjmp	.+148    	; 0x50f4 <__stack+0x2ef5>
    5060:	ce 01       	movw	r24, r28
    5062:	89 57       	subi	r24, 0x79	; 121
    5064:	9f 4f       	sbci	r25, 0xFF	; 255
    5066:	20 e0       	ldi	r18, 0x00	; 0
    5068:	30 e0       	ldi	r19, 0x00	; 0
    506a:	40 e2       	ldi	r20, 0x20	; 32
    506c:	51 e4       	ldi	r21, 0x41	; 65
    506e:	fc 01       	movw	r30, r24
    5070:	60 81       	ld	r22, Z
    5072:	71 81       	ldd	r23, Z+1	; 0x01
    5074:	82 81       	ldd	r24, Z+2	; 0x02
    5076:	93 81       	ldd	r25, Z+3	; 0x03
    5078:	0e 94 65 50 	call	0xa0ca	; 0xa0ca <__mulsf3>
    507c:	dc 01       	movw	r26, r24
    507e:	cb 01       	movw	r24, r22
    5080:	8e 01       	movw	r16, r28
    5082:	0d 5b       	subi	r16, 0xBD	; 189
    5084:	1d 4f       	sbci	r17, 0xFD	; 253
    5086:	bc 01       	movw	r22, r24
    5088:	cd 01       	movw	r24, r26
    508a:	0e 94 e8 4f 	call	0x9fd0	; 0x9fd0 <__fixunssfsi>
    508e:	dc 01       	movw	r26, r24
    5090:	cb 01       	movw	r24, r22
    5092:	f8 01       	movw	r30, r16
    5094:	91 83       	std	Z+1, r25	; 0x01
    5096:	80 83       	st	Z, r24
    5098:	24 c0       	rjmp	.+72     	; 0x50e2 <__stack+0x2ee3>
    509a:	ce 01       	movw	r24, r28
    509c:	8b 5b       	subi	r24, 0xBB	; 187
    509e:	9d 4f       	sbci	r25, 0xFD	; 253
    50a0:	20 e7       	ldi	r18, 0x70	; 112
    50a2:	31 e0       	ldi	r19, 0x01	; 1
    50a4:	fc 01       	movw	r30, r24
    50a6:	31 83       	std	Z+1, r19	; 0x01
    50a8:	20 83       	st	Z, r18
    50aa:	ce 01       	movw	r24, r28
    50ac:	8b 5b       	subi	r24, 0xBB	; 187
    50ae:	9d 4f       	sbci	r25, 0xFD	; 253
    50b0:	fc 01       	movw	r30, r24
    50b2:	80 81       	ld	r24, Z
    50b4:	91 81       	ldd	r25, Z+1	; 0x01
    50b6:	01 97       	sbiw	r24, 0x01	; 1
    50b8:	f1 f7       	brne	.-4      	; 0x50b6 <__stack+0x2eb7>
    50ba:	9e 01       	movw	r18, r28
    50bc:	2b 5b       	subi	r18, 0xBB	; 187
    50be:	3d 4f       	sbci	r19, 0xFD	; 253
    50c0:	f9 01       	movw	r30, r18
    50c2:	91 83       	std	Z+1, r25	; 0x01
    50c4:	80 83       	st	Z, r24
    50c6:	ce 01       	movw	r24, r28
    50c8:	8d 5b       	subi	r24, 0xBD	; 189
    50ca:	9d 4f       	sbci	r25, 0xFD	; 253
    50cc:	9e 01       	movw	r18, r28
    50ce:	2d 5b       	subi	r18, 0xBD	; 189
    50d0:	3d 4f       	sbci	r19, 0xFD	; 253
    50d2:	f9 01       	movw	r30, r18
    50d4:	20 81       	ld	r18, Z
    50d6:	31 81       	ldd	r19, Z+1	; 0x01
    50d8:	21 50       	subi	r18, 0x01	; 1
    50da:	31 09       	sbc	r19, r1
    50dc:	fc 01       	movw	r30, r24
    50de:	31 83       	std	Z+1, r19	; 0x01
    50e0:	20 83       	st	Z, r18
    50e2:	ce 01       	movw	r24, r28
    50e4:	8d 5b       	subi	r24, 0xBD	; 189
    50e6:	9d 4f       	sbci	r25, 0xFD	; 253
    50e8:	fc 01       	movw	r30, r24
    50ea:	80 81       	ld	r24, Z
    50ec:	91 81       	ldd	r25, Z+1	; 0x01
    50ee:	89 2b       	or	r24, r25
    50f0:	a1 f6       	brne	.-88     	; 0x509a <__stack+0x2e9b>
    50f2:	2c c0       	rjmp	.+88     	; 0x514c <__stack+0x2f4d>
    50f4:	8e 01       	movw	r16, r28
    50f6:	0d 5b       	subi	r16, 0xBD	; 189
    50f8:	1d 4f       	sbci	r17, 0xFD	; 253
    50fa:	ce 01       	movw	r24, r28
    50fc:	81 5c       	subi	r24, 0xC1	; 193
    50fe:	9d 4f       	sbci	r25, 0xFD	; 253
    5100:	fc 01       	movw	r30, r24
    5102:	60 81       	ld	r22, Z
    5104:	71 81       	ldd	r23, Z+1	; 0x01
    5106:	82 81       	ldd	r24, Z+2	; 0x02
    5108:	93 81       	ldd	r25, Z+3	; 0x03
    510a:	0e 94 e8 4f 	call	0x9fd0	; 0x9fd0 <__fixunssfsi>
    510e:	dc 01       	movw	r26, r24
    5110:	cb 01       	movw	r24, r22
    5112:	f8 01       	movw	r30, r16
    5114:	91 83       	std	Z+1, r25	; 0x01
    5116:	80 83       	st	Z, r24
    5118:	ce 01       	movw	r24, r28
    511a:	89 5b       	subi	r24, 0xB9	; 185
    511c:	9d 4f       	sbci	r25, 0xFD	; 253
    511e:	9e 01       	movw	r18, r28
    5120:	2d 5b       	subi	r18, 0xBD	; 189
    5122:	3d 4f       	sbci	r19, 0xFD	; 253
    5124:	f9 01       	movw	r30, r18
    5126:	20 81       	ld	r18, Z
    5128:	31 81       	ldd	r19, Z+1	; 0x01
    512a:	fc 01       	movw	r30, r24
    512c:	31 83       	std	Z+1, r19	; 0x01
    512e:	20 83       	st	Z, r18
    5130:	ce 01       	movw	r24, r28
    5132:	89 5b       	subi	r24, 0xB9	; 185
    5134:	9d 4f       	sbci	r25, 0xFD	; 253
    5136:	fc 01       	movw	r30, r24
    5138:	80 81       	ld	r24, Z
    513a:	91 81       	ldd	r25, Z+1	; 0x01
    513c:	01 97       	sbiw	r24, 0x01	; 1
    513e:	f1 f7       	brne	.-4      	; 0x513c <__stack+0x2f3d>
    5140:	9e 01       	movw	r18, r28
    5142:	29 5b       	subi	r18, 0xB9	; 185
    5144:	3d 4f       	sbci	r19, 0xFD	; 253
    5146:	f9 01       	movw	r30, r18
    5148:	91 83       	std	Z+1, r25	; 0x01
    514a:	80 83       	st	Z, r24
    514c:	0e 94 a0 0e 	call	0x1d40	; 0x1d40 <right>
    5150:	9e 01       	movw	r18, r28
    5152:	25 5a       	subi	r18, 0xA5	; 165
    5154:	3f 4f       	sbci	r19, 0xFF	; 255
    5156:	80 e0       	ldi	r24, 0x00	; 0
    5158:	90 e0       	ldi	r25, 0x00	; 0
    515a:	a8 e4       	ldi	r26, 0x48	; 72
    515c:	b4 e4       	ldi	r27, 0x44	; 68
    515e:	f9 01       	movw	r30, r18
    5160:	80 83       	st	Z, r24
    5162:	91 83       	std	Z+1, r25	; 0x01
    5164:	a2 83       	std	Z+2, r26	; 0x02
    5166:	b3 83       	std	Z+3, r27	; 0x03
    5168:	8e 01       	movw	r16, r28
    516a:	0b 5c       	subi	r16, 0xCB	; 203
    516c:	1d 4f       	sbci	r17, 0xFD	; 253
    516e:	ce 01       	movw	r24, r28
    5170:	85 5a       	subi	r24, 0xA5	; 165
    5172:	9f 4f       	sbci	r25, 0xFF	; 255
    5174:	26 e6       	ldi	r18, 0x66	; 102
    5176:	36 e6       	ldi	r19, 0x66	; 102
    5178:	46 e6       	ldi	r20, 0x66	; 102
    517a:	55 e4       	ldi	r21, 0x45	; 69
    517c:	fc 01       	movw	r30, r24
    517e:	60 81       	ld	r22, Z
    5180:	71 81       	ldd	r23, Z+1	; 0x01
    5182:	82 81       	ldd	r24, Z+2	; 0x02
    5184:	93 81       	ldd	r25, Z+3	; 0x03
    5186:	0e 94 65 50 	call	0xa0ca	; 0xa0ca <__mulsf3>
    518a:	dc 01       	movw	r26, r24
    518c:	cb 01       	movw	r24, r22
    518e:	f8 01       	movw	r30, r16
    5190:	80 83       	st	Z, r24
    5192:	91 83       	std	Z+1, r25	; 0x01
    5194:	a2 83       	std	Z+2, r26	; 0x02
    5196:	b3 83       	std	Z+3, r27	; 0x03
    5198:	ce 01       	movw	r24, r28
    519a:	8b 5c       	subi	r24, 0xCB	; 203
    519c:	9d 4f       	sbci	r25, 0xFD	; 253
    519e:	20 e0       	ldi	r18, 0x00	; 0
    51a0:	30 e0       	ldi	r19, 0x00	; 0
    51a2:	40 e8       	ldi	r20, 0x80	; 128
    51a4:	5f e3       	ldi	r21, 0x3F	; 63
    51a6:	fc 01       	movw	r30, r24
    51a8:	60 81       	ld	r22, Z
    51aa:	71 81       	ldd	r23, Z+1	; 0x01
    51ac:	82 81       	ldd	r24, Z+2	; 0x02
    51ae:	93 81       	ldd	r25, Z+3	; 0x03
    51b0:	0e 94 e4 4f 	call	0x9fc8	; 0x9fc8 <__cmpsf2>
    51b4:	88 23       	and	r24, r24
    51b6:	4c f4       	brge	.+18     	; 0x51ca <__stack+0x2fcb>
    51b8:	ce 01       	movw	r24, r28
    51ba:	87 5c       	subi	r24, 0xC7	; 199
    51bc:	9d 4f       	sbci	r25, 0xFD	; 253
    51be:	21 e0       	ldi	r18, 0x01	; 1
    51c0:	30 e0       	ldi	r19, 0x00	; 0
    51c2:	fc 01       	movw	r30, r24
    51c4:	31 83       	std	Z+1, r19	; 0x01
    51c6:	20 83       	st	Z, r18
    51c8:	6d c0       	rjmp	.+218    	; 0x52a4 <__stack+0x30a5>
    51ca:	ce 01       	movw	r24, r28
    51cc:	8b 5c       	subi	r24, 0xCB	; 203
    51ce:	9d 4f       	sbci	r25, 0xFD	; 253
    51d0:	20 e0       	ldi	r18, 0x00	; 0
    51d2:	3f ef       	ldi	r19, 0xFF	; 255
    51d4:	4f e7       	ldi	r20, 0x7F	; 127
    51d6:	57 e4       	ldi	r21, 0x47	; 71
    51d8:	fc 01       	movw	r30, r24
    51da:	60 81       	ld	r22, Z
    51dc:	71 81       	ldd	r23, Z+1	; 0x01
    51de:	82 81       	ldd	r24, Z+2	; 0x02
    51e0:	93 81       	ldd	r25, Z+3	; 0x03
    51e2:	0e 94 61 50 	call	0xa0c2	; 0xa0c2 <__gesf2>
    51e6:	18 16       	cp	r1, r24
    51e8:	0c f0       	brlt	.+2      	; 0x51ec <__stack+0x2fed>
    51ea:	4a c0       	rjmp	.+148    	; 0x5280 <__stack+0x3081>
    51ec:	ce 01       	movw	r24, r28
    51ee:	85 5a       	subi	r24, 0xA5	; 165
    51f0:	9f 4f       	sbci	r25, 0xFF	; 255
    51f2:	20 e0       	ldi	r18, 0x00	; 0
    51f4:	30 e0       	ldi	r19, 0x00	; 0
    51f6:	40 e2       	ldi	r20, 0x20	; 32
    51f8:	51 e4       	ldi	r21, 0x41	; 65
    51fa:	fc 01       	movw	r30, r24
    51fc:	60 81       	ld	r22, Z
    51fe:	71 81       	ldd	r23, Z+1	; 0x01
    5200:	82 81       	ldd	r24, Z+2	; 0x02
    5202:	93 81       	ldd	r25, Z+3	; 0x03
    5204:	0e 94 65 50 	call	0xa0ca	; 0xa0ca <__mulsf3>
    5208:	dc 01       	movw	r26, r24
    520a:	cb 01       	movw	r24, r22
    520c:	8e 01       	movw	r16, r28
    520e:	07 5c       	subi	r16, 0xC7	; 199
    5210:	1d 4f       	sbci	r17, 0xFD	; 253
    5212:	bc 01       	movw	r22, r24
    5214:	cd 01       	movw	r24, r26
    5216:	0e 94 e8 4f 	call	0x9fd0	; 0x9fd0 <__fixunssfsi>
    521a:	dc 01       	movw	r26, r24
    521c:	cb 01       	movw	r24, r22
    521e:	f8 01       	movw	r30, r16
    5220:	91 83       	std	Z+1, r25	; 0x01
    5222:	80 83       	st	Z, r24
    5224:	24 c0       	rjmp	.+72     	; 0x526e <__stack+0x306f>
    5226:	ce 01       	movw	r24, r28
    5228:	85 5c       	subi	r24, 0xC5	; 197
    522a:	9d 4f       	sbci	r25, 0xFD	; 253
    522c:	20 e7       	ldi	r18, 0x70	; 112
    522e:	31 e0       	ldi	r19, 0x01	; 1
    5230:	fc 01       	movw	r30, r24
    5232:	31 83       	std	Z+1, r19	; 0x01
    5234:	20 83       	st	Z, r18
    5236:	ce 01       	movw	r24, r28
    5238:	85 5c       	subi	r24, 0xC5	; 197
    523a:	9d 4f       	sbci	r25, 0xFD	; 253
    523c:	fc 01       	movw	r30, r24
    523e:	80 81       	ld	r24, Z
    5240:	91 81       	ldd	r25, Z+1	; 0x01
    5242:	01 97       	sbiw	r24, 0x01	; 1
    5244:	f1 f7       	brne	.-4      	; 0x5242 <__stack+0x3043>
    5246:	9e 01       	movw	r18, r28
    5248:	25 5c       	subi	r18, 0xC5	; 197
    524a:	3d 4f       	sbci	r19, 0xFD	; 253
    524c:	f9 01       	movw	r30, r18
    524e:	91 83       	std	Z+1, r25	; 0x01
    5250:	80 83       	st	Z, r24
    5252:	ce 01       	movw	r24, r28
    5254:	87 5c       	subi	r24, 0xC7	; 199
    5256:	9d 4f       	sbci	r25, 0xFD	; 253
    5258:	9e 01       	movw	r18, r28
    525a:	27 5c       	subi	r18, 0xC7	; 199
    525c:	3d 4f       	sbci	r19, 0xFD	; 253
    525e:	f9 01       	movw	r30, r18
    5260:	20 81       	ld	r18, Z
    5262:	31 81       	ldd	r19, Z+1	; 0x01
    5264:	21 50       	subi	r18, 0x01	; 1
    5266:	31 09       	sbc	r19, r1
    5268:	fc 01       	movw	r30, r24
    526a:	31 83       	std	Z+1, r19	; 0x01
    526c:	20 83       	st	Z, r18
    526e:	ce 01       	movw	r24, r28
    5270:	87 5c       	subi	r24, 0xC7	; 199
    5272:	9d 4f       	sbci	r25, 0xFD	; 253
    5274:	fc 01       	movw	r30, r24
    5276:	80 81       	ld	r24, Z
    5278:	91 81       	ldd	r25, Z+1	; 0x01
    527a:	89 2b       	or	r24, r25
    527c:	a1 f6       	brne	.-88     	; 0x5226 <__stack+0x3027>
    527e:	2c c0       	rjmp	.+88     	; 0x52d8 <__stack+0x30d9>
    5280:	8e 01       	movw	r16, r28
    5282:	07 5c       	subi	r16, 0xC7	; 199
    5284:	1d 4f       	sbci	r17, 0xFD	; 253
    5286:	ce 01       	movw	r24, r28
    5288:	8b 5c       	subi	r24, 0xCB	; 203
    528a:	9d 4f       	sbci	r25, 0xFD	; 253
    528c:	fc 01       	movw	r30, r24
    528e:	60 81       	ld	r22, Z
    5290:	71 81       	ldd	r23, Z+1	; 0x01
    5292:	82 81       	ldd	r24, Z+2	; 0x02
    5294:	93 81       	ldd	r25, Z+3	; 0x03
    5296:	0e 94 e8 4f 	call	0x9fd0	; 0x9fd0 <__fixunssfsi>
    529a:	dc 01       	movw	r26, r24
    529c:	cb 01       	movw	r24, r22
    529e:	f8 01       	movw	r30, r16
    52a0:	91 83       	std	Z+1, r25	; 0x01
    52a2:	80 83       	st	Z, r24
    52a4:	ce 01       	movw	r24, r28
    52a6:	83 5c       	subi	r24, 0xC3	; 195
    52a8:	9d 4f       	sbci	r25, 0xFD	; 253
    52aa:	9e 01       	movw	r18, r28
    52ac:	27 5c       	subi	r18, 0xC7	; 199
    52ae:	3d 4f       	sbci	r19, 0xFD	; 253
    52b0:	f9 01       	movw	r30, r18
    52b2:	20 81       	ld	r18, Z
    52b4:	31 81       	ldd	r19, Z+1	; 0x01
    52b6:	fc 01       	movw	r30, r24
    52b8:	31 83       	std	Z+1, r19	; 0x01
    52ba:	20 83       	st	Z, r18
    52bc:	ce 01       	movw	r24, r28
    52be:	83 5c       	subi	r24, 0xC3	; 195
    52c0:	9d 4f       	sbci	r25, 0xFD	; 253
    52c2:	fc 01       	movw	r30, r24
    52c4:	80 81       	ld	r24, Z
    52c6:	91 81       	ldd	r25, Z+1	; 0x01
    52c8:	01 97       	sbiw	r24, 0x01	; 1
    52ca:	f1 f7       	brne	.-4      	; 0x52c8 <__stack+0x30c9>
    52cc:	9e 01       	movw	r18, r28
    52ce:	23 5c       	subi	r18, 0xC3	; 195
    52d0:	3d 4f       	sbci	r19, 0xFD	; 253
    52d2:	f9 01       	movw	r30, r18
    52d4:	91 83       	std	Z+1, r25	; 0x01
    52d6:	80 83       	st	Z, r24
    52d8:	0e 94 aa 0e 	call	0x1d54	; 0x1d54 <stop>
    52dc:	87 e6       	ldi	r24, 0x67	; 103
    52de:	90 e0       	ldi	r25, 0x00	; 0
    52e0:	9a 83       	std	Y+2, r25	; 0x02
    52e2:	89 83       	std	Y+1, r24	; 0x01
    52e4:	89 81       	ldd	r24, Y+1	; 0x01
    52e6:	9a 81       	ldd	r25, Y+2	; 0x02
    52e8:	0a 97       	sbiw	r24, 0x0a	; 10
    52ea:	09 f0       	breq	.+2      	; 0x52ee <__stack+0x30ef>
    52ec:	b5 c3       	rjmp	.+1898   	; 0x5a58 <__stack+0x3859>
    52ee:	8b 81       	ldd	r24, Y+3	; 0x03
    52f0:	9c 81       	ldd	r25, Y+4	; 0x04
    52f2:	0a 97       	sbiw	r24, 0x0a	; 10
    52f4:	09 f4       	brne	.+2      	; 0x52f8 <__stack+0x30f9>
    52f6:	c0 c9       	rjmp	.-3200   	; 0x4678 <__stack+0x2479>
    52f8:	af c3       	rjmp	.+1886   	; 0x5a58 <__stack+0x3859>
    52fa:	83 e0       	ldi	r24, 0x03	; 3
    52fc:	0e 94 f1 0d 	call	0x1be2	; 0x1be2 <ADC_Conversion>
    5300:	80 93 33 02 	sts	0x0233, r24	; 0x800233 <Left_white_line>
    5304:	82 e0       	ldi	r24, 0x02	; 2
    5306:	0e 94 f1 0d 	call	0x1be2	; 0x1be2 <ADC_Conversion>
    530a:	80 93 34 02 	sts	0x0234, r24	; 0x800234 <Center_white_line>
    530e:	81 e0       	ldi	r24, 0x01	; 1
    5310:	0e 94 f1 0d 	call	0x1be2	; 0x1be2 <ADC_Conversion>
    5314:	80 93 35 02 	sts	0x0235, r24	; 0x800235 <Right_white_line>
    5318:	10 92 32 02 	sts	0x0232, r1	; 0x800232 <__data_end>
    531c:	43 e0       	ldi	r20, 0x03	; 3
    531e:	61 e0       	ldi	r22, 0x01	; 1
    5320:	81 e0       	ldi	r24, 0x01	; 1
    5322:	0e 94 35 0e 	call	0x1c6a	; 0x1c6a <print_sensor>
    5326:	42 e0       	ldi	r20, 0x02	; 2
    5328:	65 e0       	ldi	r22, 0x05	; 5
    532a:	81 e0       	ldi	r24, 0x01	; 1
    532c:	0e 94 35 0e 	call	0x1c6a	; 0x1c6a <print_sensor>
    5330:	41 e0       	ldi	r20, 0x01	; 1
    5332:	69 e0       	ldi	r22, 0x09	; 9
    5334:	81 e0       	ldi	r24, 0x01	; 1
    5336:	0e 94 35 0e 	call	0x1c6a	; 0x1c6a <print_sensor>
    533a:	89 81       	ldd	r24, Y+1	; 0x01
    533c:	9a 81       	ldd	r25, Y+2	; 0x02
    533e:	22 e0       	ldi	r18, 0x02	; 2
    5340:	30 e0       	ldi	r19, 0x00	; 0
    5342:	ac 01       	movw	r20, r24
    5344:	67 e0       	ldi	r22, 0x07	; 7
    5346:	82 e0       	ldi	r24, 0x02	; 2
    5348:	0e 94 f7 09 	call	0x13ee	; 0x13ee <lcd_print>
    534c:	80 91 34 02 	lds	r24, 0x0234	; 0x800234 <Center_white_line>
    5350:	88 30       	cpi	r24, 0x08	; 8
    5352:	48 f0       	brcs	.+18     	; 0x5366 <__stack+0x3167>
    5354:	81 e0       	ldi	r24, 0x01	; 1
    5356:	80 93 32 02 	sts	0x0232, r24	; 0x800232 <__data_end>
    535a:	0e 94 8c 0e 	call	0x1d18	; 0x1d18 <forward>
    535e:	60 ea       	ldi	r22, 0xA0	; 160
    5360:	80 ea       	ldi	r24, 0xA0	; 160
    5362:	0e 94 52 0e 	call	0x1ca4	; 0x1ca4 <velocity>
    5366:	80 91 33 02 	lds	r24, 0x0233	; 0x800233 <Left_white_line>
    536a:	87 30       	cpi	r24, 0x07	; 7
    536c:	68 f4       	brcc	.+26     	; 0x5388 <__stack+0x3189>
    536e:	80 91 32 02 	lds	r24, 0x0232	; 0x800232 <__data_end>
    5372:	88 23       	and	r24, r24
    5374:	49 f4       	brne	.+18     	; 0x5388 <__stack+0x3189>
    5376:	81 e0       	ldi	r24, 0x01	; 1
    5378:	80 93 32 02 	sts	0x0232, r24	; 0x800232 <__data_end>
    537c:	0e 94 8c 0e 	call	0x1d18	; 0x1d18 <forward>
    5380:	62 e3       	ldi	r22, 0x32	; 50
    5382:	82 e8       	ldi	r24, 0x82	; 130
    5384:	0e 94 52 0e 	call	0x1ca4	; 0x1ca4 <velocity>
    5388:	80 91 35 02 	lds	r24, 0x0235	; 0x800235 <Right_white_line>
    538c:	88 30       	cpi	r24, 0x08	; 8
    538e:	68 f4       	brcc	.+26     	; 0x53aa <__stack+0x31ab>
    5390:	80 91 32 02 	lds	r24, 0x0232	; 0x800232 <__data_end>
    5394:	88 23       	and	r24, r24
    5396:	49 f4       	brne	.+18     	; 0x53aa <__stack+0x31ab>
    5398:	81 e0       	ldi	r24, 0x01	; 1
    539a:	80 93 32 02 	sts	0x0232, r24	; 0x800232 <__data_end>
    539e:	0e 94 8c 0e 	call	0x1d18	; 0x1d18 <forward>
    53a2:	62 e8       	ldi	r22, 0x82	; 130
    53a4:	82 e3       	ldi	r24, 0x32	; 50
    53a6:	0e 94 52 0e 	call	0x1ca4	; 0x1ca4 <velocity>
    53aa:	80 91 34 02 	lds	r24, 0x0234	; 0x800234 <Center_white_line>
    53ae:	87 30       	cpi	r24, 0x07	; 7
    53b0:	70 f4       	brcc	.+28     	; 0x53ce <__stack+0x31cf>
    53b2:	80 91 33 02 	lds	r24, 0x0233	; 0x800233 <Left_white_line>
    53b6:	87 30       	cpi	r24, 0x07	; 7
    53b8:	50 f4       	brcc	.+20     	; 0x53ce <__stack+0x31cf>
    53ba:	80 91 35 02 	lds	r24, 0x0235	; 0x800235 <Right_white_line>
    53be:	87 30       	cpi	r24, 0x07	; 7
    53c0:	30 f4       	brcc	.+12     	; 0x53ce <__stack+0x31cf>
    53c2:	0e 94 8c 0e 	call	0x1d18	; 0x1d18 <forward>
    53c6:	60 ea       	ldi	r22, 0xA0	; 160
    53c8:	80 ea       	ldi	r24, 0xA0	; 160
    53ca:	0e 94 52 0e 	call	0x1ca4	; 0x1ca4 <velocity>
    53ce:	80 91 34 02 	lds	r24, 0x0234	; 0x800234 <Center_white_line>
    53d2:	88 30       	cpi	r24, 0x08	; 8
    53d4:	08 f4       	brcc	.+2      	; 0x53d8 <__stack+0x31d9>
    53d6:	40 c3       	rjmp	.+1664   	; 0x5a58 <__stack+0x3859>
    53d8:	80 91 33 02 	lds	r24, 0x0233	; 0x800233 <Left_white_line>
    53dc:	88 30       	cpi	r24, 0x08	; 8
    53de:	08 f4       	brcc	.+2      	; 0x53e2 <__stack+0x31e3>
    53e0:	3b c3       	rjmp	.+1654   	; 0x5a58 <__stack+0x3859>
    53e2:	80 91 35 02 	lds	r24, 0x0235	; 0x800235 <Right_white_line>
    53e6:	88 30       	cpi	r24, 0x08	; 8
    53e8:	08 f4       	brcc	.+2      	; 0x53ec <__stack+0x31ed>
    53ea:	36 c3       	rjmp	.+1644   	; 0x5a58 <__stack+0x3859>
    53ec:	83 e1       	ldi	r24, 0x13	; 19
    53ee:	90 e0       	ldi	r25, 0x00	; 0
    53f0:	9a 83       	std	Y+2, r25	; 0x02
    53f2:	89 83       	std	Y+1, r24	; 0x01
    53f4:	89 81       	ldd	r24, Y+1	; 0x01
    53f6:	9a 81       	ldd	r25, Y+2	; 0x02
    53f8:	22 e0       	ldi	r18, 0x02	; 2
    53fa:	30 e0       	ldi	r19, 0x00	; 0
    53fc:	ac 01       	movw	r20, r24
    53fe:	67 e0       	ldi	r22, 0x07	; 7
    5400:	82 e0       	ldi	r24, 0x02	; 2
    5402:	0e 94 f7 09 	call	0x13ee	; 0x13ee <lcd_print>
    5406:	83 e1       	ldi	r24, 0x13	; 19
    5408:	90 e0       	ldi	r25, 0x00	; 0
    540a:	9c 83       	std	Y+4, r25	; 0x04
    540c:	8b 83       	std	Y+3, r24	; 0x03
    540e:	8b 81       	ldd	r24, Y+3	; 0x03
    5410:	9c 81       	ldd	r25, Y+4	; 0x04
    5412:	22 e0       	ldi	r18, 0x02	; 2
    5414:	30 e0       	ldi	r19, 0x00	; 0
    5416:	ac 01       	movw	r20, r24
    5418:	61 e0       	ldi	r22, 0x01	; 1
    541a:	82 e0       	ldi	r24, 0x02	; 2
    541c:	0e 94 f7 09 	call	0x13ee	; 0x13ee <lcd_print>
    5420:	0e 94 0c 0d 	call	0x1a18	; 0x1a18 <buzzer_on>
    5424:	9e 01       	movw	r18, r28
    5426:	21 57       	subi	r18, 0x71	; 113
    5428:	3f 4f       	sbci	r19, 0xFF	; 255
    542a:	80 e0       	ldi	r24, 0x00	; 0
    542c:	90 e0       	ldi	r25, 0x00	; 0
    542e:	a8 ec       	ldi	r26, 0xC8	; 200
    5430:	b2 e4       	ldi	r27, 0x42	; 66
    5432:	f9 01       	movw	r30, r18
    5434:	80 83       	st	Z, r24
    5436:	91 83       	std	Z+1, r25	; 0x01
    5438:	a2 83       	std	Z+2, r26	; 0x02
    543a:	b3 83       	std	Z+3, r27	; 0x03
    543c:	8e 01       	movw	r16, r28
    543e:	0d 55       	subi	r16, 0x5D	; 93
    5440:	1d 4f       	sbci	r17, 0xFD	; 253
    5442:	ce 01       	movw	r24, r28
    5444:	81 57       	subi	r24, 0x71	; 113
    5446:	9f 4f       	sbci	r25, 0xFF	; 255
    5448:	26 e6       	ldi	r18, 0x66	; 102
    544a:	36 e6       	ldi	r19, 0x66	; 102
    544c:	46 e6       	ldi	r20, 0x66	; 102
    544e:	55 e4       	ldi	r21, 0x45	; 69
    5450:	fc 01       	movw	r30, r24
    5452:	60 81       	ld	r22, Z
    5454:	71 81       	ldd	r23, Z+1	; 0x01
    5456:	82 81       	ldd	r24, Z+2	; 0x02
    5458:	93 81       	ldd	r25, Z+3	; 0x03
    545a:	0e 94 65 50 	call	0xa0ca	; 0xa0ca <__mulsf3>
    545e:	dc 01       	movw	r26, r24
    5460:	cb 01       	movw	r24, r22
    5462:	f8 01       	movw	r30, r16
    5464:	80 83       	st	Z, r24
    5466:	91 83       	std	Z+1, r25	; 0x01
    5468:	a2 83       	std	Z+2, r26	; 0x02
    546a:	b3 83       	std	Z+3, r27	; 0x03
    546c:	ce 01       	movw	r24, r28
    546e:	8d 55       	subi	r24, 0x5D	; 93
    5470:	9d 4f       	sbci	r25, 0xFD	; 253
    5472:	20 e0       	ldi	r18, 0x00	; 0
    5474:	30 e0       	ldi	r19, 0x00	; 0
    5476:	40 e8       	ldi	r20, 0x80	; 128
    5478:	5f e3       	ldi	r21, 0x3F	; 63
    547a:	fc 01       	movw	r30, r24
    547c:	60 81       	ld	r22, Z
    547e:	71 81       	ldd	r23, Z+1	; 0x01
    5480:	82 81       	ldd	r24, Z+2	; 0x02
    5482:	93 81       	ldd	r25, Z+3	; 0x03
    5484:	0e 94 e4 4f 	call	0x9fc8	; 0x9fc8 <__cmpsf2>
    5488:	88 23       	and	r24, r24
    548a:	4c f4       	brge	.+18     	; 0x549e <__stack+0x329f>
    548c:	ce 01       	movw	r24, r28
    548e:	89 55       	subi	r24, 0x59	; 89
    5490:	9d 4f       	sbci	r25, 0xFD	; 253
    5492:	21 e0       	ldi	r18, 0x01	; 1
    5494:	30 e0       	ldi	r19, 0x00	; 0
    5496:	fc 01       	movw	r30, r24
    5498:	31 83       	std	Z+1, r19	; 0x01
    549a:	20 83       	st	Z, r18
    549c:	6d c0       	rjmp	.+218    	; 0x5578 <__stack+0x3379>
    549e:	ce 01       	movw	r24, r28
    54a0:	8d 55       	subi	r24, 0x5D	; 93
    54a2:	9d 4f       	sbci	r25, 0xFD	; 253
    54a4:	20 e0       	ldi	r18, 0x00	; 0
    54a6:	3f ef       	ldi	r19, 0xFF	; 255
    54a8:	4f e7       	ldi	r20, 0x7F	; 127
    54aa:	57 e4       	ldi	r21, 0x47	; 71
    54ac:	fc 01       	movw	r30, r24
    54ae:	60 81       	ld	r22, Z
    54b0:	71 81       	ldd	r23, Z+1	; 0x01
    54b2:	82 81       	ldd	r24, Z+2	; 0x02
    54b4:	93 81       	ldd	r25, Z+3	; 0x03
    54b6:	0e 94 61 50 	call	0xa0c2	; 0xa0c2 <__gesf2>
    54ba:	18 16       	cp	r1, r24
    54bc:	0c f0       	brlt	.+2      	; 0x54c0 <__stack+0x32c1>
    54be:	4a c0       	rjmp	.+148    	; 0x5554 <__stack+0x3355>
    54c0:	ce 01       	movw	r24, r28
    54c2:	81 57       	subi	r24, 0x71	; 113
    54c4:	9f 4f       	sbci	r25, 0xFF	; 255
    54c6:	20 e0       	ldi	r18, 0x00	; 0
    54c8:	30 e0       	ldi	r19, 0x00	; 0
    54ca:	40 e2       	ldi	r20, 0x20	; 32
    54cc:	51 e4       	ldi	r21, 0x41	; 65
    54ce:	fc 01       	movw	r30, r24
    54d0:	60 81       	ld	r22, Z
    54d2:	71 81       	ldd	r23, Z+1	; 0x01
    54d4:	82 81       	ldd	r24, Z+2	; 0x02
    54d6:	93 81       	ldd	r25, Z+3	; 0x03
    54d8:	0e 94 65 50 	call	0xa0ca	; 0xa0ca <__mulsf3>
    54dc:	dc 01       	movw	r26, r24
    54de:	cb 01       	movw	r24, r22
    54e0:	8e 01       	movw	r16, r28
    54e2:	09 55       	subi	r16, 0x59	; 89
    54e4:	1d 4f       	sbci	r17, 0xFD	; 253
    54e6:	bc 01       	movw	r22, r24
    54e8:	cd 01       	movw	r24, r26
    54ea:	0e 94 e8 4f 	call	0x9fd0	; 0x9fd0 <__fixunssfsi>
    54ee:	dc 01       	movw	r26, r24
    54f0:	cb 01       	movw	r24, r22
    54f2:	f8 01       	movw	r30, r16
    54f4:	91 83       	std	Z+1, r25	; 0x01
    54f6:	80 83       	st	Z, r24
    54f8:	24 c0       	rjmp	.+72     	; 0x5542 <__stack+0x3343>
    54fa:	ce 01       	movw	r24, r28
    54fc:	87 55       	subi	r24, 0x57	; 87
    54fe:	9d 4f       	sbci	r25, 0xFD	; 253
    5500:	20 e7       	ldi	r18, 0x70	; 112
    5502:	31 e0       	ldi	r19, 0x01	; 1
    5504:	fc 01       	movw	r30, r24
    5506:	31 83       	std	Z+1, r19	; 0x01
    5508:	20 83       	st	Z, r18
    550a:	ce 01       	movw	r24, r28
    550c:	87 55       	subi	r24, 0x57	; 87
    550e:	9d 4f       	sbci	r25, 0xFD	; 253
    5510:	fc 01       	movw	r30, r24
    5512:	80 81       	ld	r24, Z
    5514:	91 81       	ldd	r25, Z+1	; 0x01
    5516:	01 97       	sbiw	r24, 0x01	; 1
    5518:	f1 f7       	brne	.-4      	; 0x5516 <__stack+0x3317>
    551a:	9e 01       	movw	r18, r28
    551c:	27 55       	subi	r18, 0x57	; 87
    551e:	3d 4f       	sbci	r19, 0xFD	; 253
    5520:	f9 01       	movw	r30, r18
    5522:	91 83       	std	Z+1, r25	; 0x01
    5524:	80 83       	st	Z, r24
    5526:	ce 01       	movw	r24, r28
    5528:	89 55       	subi	r24, 0x59	; 89
    552a:	9d 4f       	sbci	r25, 0xFD	; 253
    552c:	9e 01       	movw	r18, r28
    552e:	29 55       	subi	r18, 0x59	; 89
    5530:	3d 4f       	sbci	r19, 0xFD	; 253
    5532:	f9 01       	movw	r30, r18
    5534:	20 81       	ld	r18, Z
    5536:	31 81       	ldd	r19, Z+1	; 0x01
    5538:	21 50       	subi	r18, 0x01	; 1
    553a:	31 09       	sbc	r19, r1
    553c:	fc 01       	movw	r30, r24
    553e:	31 83       	std	Z+1, r19	; 0x01
    5540:	20 83       	st	Z, r18
    5542:	ce 01       	movw	r24, r28
    5544:	89 55       	subi	r24, 0x59	; 89
    5546:	9d 4f       	sbci	r25, 0xFD	; 253
    5548:	fc 01       	movw	r30, r24
    554a:	80 81       	ld	r24, Z
    554c:	91 81       	ldd	r25, Z+1	; 0x01
    554e:	89 2b       	or	r24, r25
    5550:	a1 f6       	brne	.-88     	; 0x54fa <__stack+0x32fb>
    5552:	2c c0       	rjmp	.+88     	; 0x55ac <__stack+0x33ad>
    5554:	8e 01       	movw	r16, r28
    5556:	09 55       	subi	r16, 0x59	; 89
    5558:	1d 4f       	sbci	r17, 0xFD	; 253
    555a:	ce 01       	movw	r24, r28
    555c:	8d 55       	subi	r24, 0x5D	; 93
    555e:	9d 4f       	sbci	r25, 0xFD	; 253
    5560:	fc 01       	movw	r30, r24
    5562:	60 81       	ld	r22, Z
    5564:	71 81       	ldd	r23, Z+1	; 0x01
    5566:	82 81       	ldd	r24, Z+2	; 0x02
    5568:	93 81       	ldd	r25, Z+3	; 0x03
    556a:	0e 94 e8 4f 	call	0x9fd0	; 0x9fd0 <__fixunssfsi>
    556e:	dc 01       	movw	r26, r24
    5570:	cb 01       	movw	r24, r22
    5572:	f8 01       	movw	r30, r16
    5574:	91 83       	std	Z+1, r25	; 0x01
    5576:	80 83       	st	Z, r24
    5578:	ce 01       	movw	r24, r28
    557a:	85 55       	subi	r24, 0x55	; 85
    557c:	9d 4f       	sbci	r25, 0xFD	; 253
    557e:	9e 01       	movw	r18, r28
    5580:	29 55       	subi	r18, 0x59	; 89
    5582:	3d 4f       	sbci	r19, 0xFD	; 253
    5584:	f9 01       	movw	r30, r18
    5586:	20 81       	ld	r18, Z
    5588:	31 81       	ldd	r19, Z+1	; 0x01
    558a:	fc 01       	movw	r30, r24
    558c:	31 83       	std	Z+1, r19	; 0x01
    558e:	20 83       	st	Z, r18
    5590:	ce 01       	movw	r24, r28
    5592:	85 55       	subi	r24, 0x55	; 85
    5594:	9d 4f       	sbci	r25, 0xFD	; 253
    5596:	fc 01       	movw	r30, r24
    5598:	80 81       	ld	r24, Z
    559a:	91 81       	ldd	r25, Z+1	; 0x01
    559c:	01 97       	sbiw	r24, 0x01	; 1
    559e:	f1 f7       	brne	.-4      	; 0x559c <__stack+0x339d>
    55a0:	9e 01       	movw	r18, r28
    55a2:	25 55       	subi	r18, 0x55	; 85
    55a4:	3d 4f       	sbci	r19, 0xFD	; 253
    55a6:	f9 01       	movw	r30, r18
    55a8:	91 83       	std	Z+1, r25	; 0x01
    55aa:	80 83       	st	Z, r24
    55ac:	0e 94 1d 0d 	call	0x1a3a	; 0x1a3a <buzzer_off>
    55b0:	9e 01       	movw	r18, r28
    55b2:	2d 56       	subi	r18, 0x6D	; 109
    55b4:	3f 4f       	sbci	r19, 0xFF	; 255
    55b6:	80 e0       	ldi	r24, 0x00	; 0
    55b8:	90 e0       	ldi	r25, 0x00	; 0
    55ba:	a8 e4       	ldi	r26, 0x48	; 72
    55bc:	b2 e4       	ldi	r27, 0x42	; 66
    55be:	f9 01       	movw	r30, r18
    55c0:	80 83       	st	Z, r24
    55c2:	91 83       	std	Z+1, r25	; 0x01
    55c4:	a2 83       	std	Z+2, r26	; 0x02
    55c6:	b3 83       	std	Z+3, r27	; 0x03
    55c8:	8e 01       	movw	r16, r28
    55ca:	07 56       	subi	r16, 0x67	; 103
    55cc:	1d 4f       	sbci	r17, 0xFD	; 253
    55ce:	ce 01       	movw	r24, r28
    55d0:	8d 56       	subi	r24, 0x6D	; 109
    55d2:	9f 4f       	sbci	r25, 0xFF	; 255
    55d4:	26 e6       	ldi	r18, 0x66	; 102
    55d6:	36 e6       	ldi	r19, 0x66	; 102
    55d8:	46 e6       	ldi	r20, 0x66	; 102
    55da:	55 e4       	ldi	r21, 0x45	; 69
    55dc:	fc 01       	movw	r30, r24
    55de:	60 81       	ld	r22, Z
    55e0:	71 81       	ldd	r23, Z+1	; 0x01
    55e2:	82 81       	ldd	r24, Z+2	; 0x02
    55e4:	93 81       	ldd	r25, Z+3	; 0x03
    55e6:	0e 94 65 50 	call	0xa0ca	; 0xa0ca <__mulsf3>
    55ea:	dc 01       	movw	r26, r24
    55ec:	cb 01       	movw	r24, r22
    55ee:	f8 01       	movw	r30, r16
    55f0:	80 83       	st	Z, r24
    55f2:	91 83       	std	Z+1, r25	; 0x01
    55f4:	a2 83       	std	Z+2, r26	; 0x02
    55f6:	b3 83       	std	Z+3, r27	; 0x03
    55f8:	ce 01       	movw	r24, r28
    55fa:	87 56       	subi	r24, 0x67	; 103
    55fc:	9d 4f       	sbci	r25, 0xFD	; 253
    55fe:	20 e0       	ldi	r18, 0x00	; 0
    5600:	30 e0       	ldi	r19, 0x00	; 0
    5602:	40 e8       	ldi	r20, 0x80	; 128
    5604:	5f e3       	ldi	r21, 0x3F	; 63
    5606:	fc 01       	movw	r30, r24
    5608:	60 81       	ld	r22, Z
    560a:	71 81       	ldd	r23, Z+1	; 0x01
    560c:	82 81       	ldd	r24, Z+2	; 0x02
    560e:	93 81       	ldd	r25, Z+3	; 0x03
    5610:	0e 94 e4 4f 	call	0x9fc8	; 0x9fc8 <__cmpsf2>
    5614:	88 23       	and	r24, r24
    5616:	4c f4       	brge	.+18     	; 0x562a <__stack+0x342b>
    5618:	ce 01       	movw	r24, r28
    561a:	83 56       	subi	r24, 0x63	; 99
    561c:	9d 4f       	sbci	r25, 0xFD	; 253
    561e:	21 e0       	ldi	r18, 0x01	; 1
    5620:	30 e0       	ldi	r19, 0x00	; 0
    5622:	fc 01       	movw	r30, r24
    5624:	31 83       	std	Z+1, r19	; 0x01
    5626:	20 83       	st	Z, r18
    5628:	6d c0       	rjmp	.+218    	; 0x5704 <__stack+0x3505>
    562a:	ce 01       	movw	r24, r28
    562c:	87 56       	subi	r24, 0x67	; 103
    562e:	9d 4f       	sbci	r25, 0xFD	; 253
    5630:	20 e0       	ldi	r18, 0x00	; 0
    5632:	3f ef       	ldi	r19, 0xFF	; 255
    5634:	4f e7       	ldi	r20, 0x7F	; 127
    5636:	57 e4       	ldi	r21, 0x47	; 71
    5638:	fc 01       	movw	r30, r24
    563a:	60 81       	ld	r22, Z
    563c:	71 81       	ldd	r23, Z+1	; 0x01
    563e:	82 81       	ldd	r24, Z+2	; 0x02
    5640:	93 81       	ldd	r25, Z+3	; 0x03
    5642:	0e 94 61 50 	call	0xa0c2	; 0xa0c2 <__gesf2>
    5646:	18 16       	cp	r1, r24
    5648:	0c f0       	brlt	.+2      	; 0x564c <__stack+0x344d>
    564a:	4a c0       	rjmp	.+148    	; 0x56e0 <__stack+0x34e1>
    564c:	ce 01       	movw	r24, r28
    564e:	8d 56       	subi	r24, 0x6D	; 109
    5650:	9f 4f       	sbci	r25, 0xFF	; 255
    5652:	20 e0       	ldi	r18, 0x00	; 0
    5654:	30 e0       	ldi	r19, 0x00	; 0
    5656:	40 e2       	ldi	r20, 0x20	; 32
    5658:	51 e4       	ldi	r21, 0x41	; 65
    565a:	fc 01       	movw	r30, r24
    565c:	60 81       	ld	r22, Z
    565e:	71 81       	ldd	r23, Z+1	; 0x01
    5660:	82 81       	ldd	r24, Z+2	; 0x02
    5662:	93 81       	ldd	r25, Z+3	; 0x03
    5664:	0e 94 65 50 	call	0xa0ca	; 0xa0ca <__mulsf3>
    5668:	dc 01       	movw	r26, r24
    566a:	cb 01       	movw	r24, r22
    566c:	8e 01       	movw	r16, r28
    566e:	03 56       	subi	r16, 0x63	; 99
    5670:	1d 4f       	sbci	r17, 0xFD	; 253
    5672:	bc 01       	movw	r22, r24
    5674:	cd 01       	movw	r24, r26
    5676:	0e 94 e8 4f 	call	0x9fd0	; 0x9fd0 <__fixunssfsi>
    567a:	dc 01       	movw	r26, r24
    567c:	cb 01       	movw	r24, r22
    567e:	f8 01       	movw	r30, r16
    5680:	91 83       	std	Z+1, r25	; 0x01
    5682:	80 83       	st	Z, r24
    5684:	24 c0       	rjmp	.+72     	; 0x56ce <__stack+0x34cf>
    5686:	ce 01       	movw	r24, r28
    5688:	81 56       	subi	r24, 0x61	; 97
    568a:	9d 4f       	sbci	r25, 0xFD	; 253
    568c:	20 e7       	ldi	r18, 0x70	; 112
    568e:	31 e0       	ldi	r19, 0x01	; 1
    5690:	fc 01       	movw	r30, r24
    5692:	31 83       	std	Z+1, r19	; 0x01
    5694:	20 83       	st	Z, r18
    5696:	ce 01       	movw	r24, r28
    5698:	81 56       	subi	r24, 0x61	; 97
    569a:	9d 4f       	sbci	r25, 0xFD	; 253
    569c:	fc 01       	movw	r30, r24
    569e:	80 81       	ld	r24, Z
    56a0:	91 81       	ldd	r25, Z+1	; 0x01
    56a2:	01 97       	sbiw	r24, 0x01	; 1
    56a4:	f1 f7       	brne	.-4      	; 0x56a2 <__stack+0x34a3>
    56a6:	9e 01       	movw	r18, r28
    56a8:	21 56       	subi	r18, 0x61	; 97
    56aa:	3d 4f       	sbci	r19, 0xFD	; 253
    56ac:	f9 01       	movw	r30, r18
    56ae:	91 83       	std	Z+1, r25	; 0x01
    56b0:	80 83       	st	Z, r24
    56b2:	ce 01       	movw	r24, r28
    56b4:	83 56       	subi	r24, 0x63	; 99
    56b6:	9d 4f       	sbci	r25, 0xFD	; 253
    56b8:	9e 01       	movw	r18, r28
    56ba:	23 56       	subi	r18, 0x63	; 99
    56bc:	3d 4f       	sbci	r19, 0xFD	; 253
    56be:	f9 01       	movw	r30, r18
    56c0:	20 81       	ld	r18, Z
    56c2:	31 81       	ldd	r19, Z+1	; 0x01
    56c4:	21 50       	subi	r18, 0x01	; 1
    56c6:	31 09       	sbc	r19, r1
    56c8:	fc 01       	movw	r30, r24
    56ca:	31 83       	std	Z+1, r19	; 0x01
    56cc:	20 83       	st	Z, r18
    56ce:	ce 01       	movw	r24, r28
    56d0:	83 56       	subi	r24, 0x63	; 99
    56d2:	9d 4f       	sbci	r25, 0xFD	; 253
    56d4:	fc 01       	movw	r30, r24
    56d6:	80 81       	ld	r24, Z
    56d8:	91 81       	ldd	r25, Z+1	; 0x01
    56da:	89 2b       	or	r24, r25
    56dc:	a1 f6       	brne	.-88     	; 0x5686 <__stack+0x3487>
    56de:	2c c0       	rjmp	.+88     	; 0x5738 <__stack+0x3539>
    56e0:	8e 01       	movw	r16, r28
    56e2:	03 56       	subi	r16, 0x63	; 99
    56e4:	1d 4f       	sbci	r17, 0xFD	; 253
    56e6:	ce 01       	movw	r24, r28
    56e8:	87 56       	subi	r24, 0x67	; 103
    56ea:	9d 4f       	sbci	r25, 0xFD	; 253
    56ec:	fc 01       	movw	r30, r24
    56ee:	60 81       	ld	r22, Z
    56f0:	71 81       	ldd	r23, Z+1	; 0x01
    56f2:	82 81       	ldd	r24, Z+2	; 0x02
    56f4:	93 81       	ldd	r25, Z+3	; 0x03
    56f6:	0e 94 e8 4f 	call	0x9fd0	; 0x9fd0 <__fixunssfsi>
    56fa:	dc 01       	movw	r26, r24
    56fc:	cb 01       	movw	r24, r22
    56fe:	f8 01       	movw	r30, r16
    5700:	91 83       	std	Z+1, r25	; 0x01
    5702:	80 83       	st	Z, r24
    5704:	ce 01       	movw	r24, r28
    5706:	8f 55       	subi	r24, 0x5F	; 95
    5708:	9d 4f       	sbci	r25, 0xFD	; 253
    570a:	9e 01       	movw	r18, r28
    570c:	23 56       	subi	r18, 0x63	; 99
    570e:	3d 4f       	sbci	r19, 0xFD	; 253
    5710:	f9 01       	movw	r30, r18
    5712:	20 81       	ld	r18, Z
    5714:	31 81       	ldd	r19, Z+1	; 0x01
    5716:	fc 01       	movw	r30, r24
    5718:	31 83       	std	Z+1, r19	; 0x01
    571a:	20 83       	st	Z, r18
    571c:	ce 01       	movw	r24, r28
    571e:	8f 55       	subi	r24, 0x5F	; 95
    5720:	9d 4f       	sbci	r25, 0xFD	; 253
    5722:	fc 01       	movw	r30, r24
    5724:	80 81       	ld	r24, Z
    5726:	91 81       	ldd	r25, Z+1	; 0x01
    5728:	01 97       	sbiw	r24, 0x01	; 1
    572a:	f1 f7       	brne	.-4      	; 0x5728 <__stack+0x3529>
    572c:	9e 01       	movw	r18, r28
    572e:	2f 55       	subi	r18, 0x5F	; 95
    5730:	3d 4f       	sbci	r19, 0xFD	; 253
    5732:	f9 01       	movw	r30, r18
    5734:	91 83       	std	Z+1, r25	; 0x01
    5736:	80 83       	st	Z, r24
    5738:	0e 94 8c 0e 	call	0x1d18	; 0x1d18 <forward>
    573c:	66 e9       	ldi	r22, 0x96	; 150
    573e:	86 e9       	ldi	r24, 0x96	; 150
    5740:	0e 94 52 0e 	call	0x1ca4	; 0x1ca4 <velocity>
    5744:	9e 01       	movw	r18, r28
    5746:	29 56       	subi	r18, 0x69	; 105
    5748:	3f 4f       	sbci	r19, 0xFF	; 255
    574a:	80 e0       	ldi	r24, 0x00	; 0
    574c:	90 e0       	ldi	r25, 0x00	; 0
    574e:	a6 e1       	ldi	r26, 0x16	; 22
    5750:	b4 e4       	ldi	r27, 0x44	; 68
    5752:	f9 01       	movw	r30, r18
    5754:	80 83       	st	Z, r24
    5756:	91 83       	std	Z+1, r25	; 0x01
    5758:	a2 83       	std	Z+2, r26	; 0x02
    575a:	b3 83       	std	Z+3, r27	; 0x03
    575c:	8e 01       	movw	r16, r28
    575e:	01 57       	subi	r16, 0x71	; 113
    5760:	1d 4f       	sbci	r17, 0xFD	; 253
    5762:	ce 01       	movw	r24, r28
    5764:	89 56       	subi	r24, 0x69	; 105
    5766:	9f 4f       	sbci	r25, 0xFF	; 255
    5768:	26 e6       	ldi	r18, 0x66	; 102
    576a:	36 e6       	ldi	r19, 0x66	; 102
    576c:	46 e6       	ldi	r20, 0x66	; 102
    576e:	55 e4       	ldi	r21, 0x45	; 69
    5770:	fc 01       	movw	r30, r24
    5772:	60 81       	ld	r22, Z
    5774:	71 81       	ldd	r23, Z+1	; 0x01
    5776:	82 81       	ldd	r24, Z+2	; 0x02
    5778:	93 81       	ldd	r25, Z+3	; 0x03
    577a:	0e 94 65 50 	call	0xa0ca	; 0xa0ca <__mulsf3>
    577e:	dc 01       	movw	r26, r24
    5780:	cb 01       	movw	r24, r22
    5782:	f8 01       	movw	r30, r16
    5784:	80 83       	st	Z, r24
    5786:	91 83       	std	Z+1, r25	; 0x01
    5788:	a2 83       	std	Z+2, r26	; 0x02
    578a:	b3 83       	std	Z+3, r27	; 0x03
    578c:	ce 01       	movw	r24, r28
    578e:	81 57       	subi	r24, 0x71	; 113
    5790:	9d 4f       	sbci	r25, 0xFD	; 253
    5792:	20 e0       	ldi	r18, 0x00	; 0
    5794:	30 e0       	ldi	r19, 0x00	; 0
    5796:	40 e8       	ldi	r20, 0x80	; 128
    5798:	5f e3       	ldi	r21, 0x3F	; 63
    579a:	fc 01       	movw	r30, r24
    579c:	60 81       	ld	r22, Z
    579e:	71 81       	ldd	r23, Z+1	; 0x01
    57a0:	82 81       	ldd	r24, Z+2	; 0x02
    57a2:	93 81       	ldd	r25, Z+3	; 0x03
    57a4:	0e 94 e4 4f 	call	0x9fc8	; 0x9fc8 <__cmpsf2>
    57a8:	88 23       	and	r24, r24
    57aa:	4c f4       	brge	.+18     	; 0x57be <__stack+0x35bf>
    57ac:	ce 01       	movw	r24, r28
    57ae:	8d 56       	subi	r24, 0x6D	; 109
    57b0:	9d 4f       	sbci	r25, 0xFD	; 253
    57b2:	21 e0       	ldi	r18, 0x01	; 1
    57b4:	30 e0       	ldi	r19, 0x00	; 0
    57b6:	fc 01       	movw	r30, r24
    57b8:	31 83       	std	Z+1, r19	; 0x01
    57ba:	20 83       	st	Z, r18
    57bc:	6d c0       	rjmp	.+218    	; 0x5898 <__stack+0x3699>
    57be:	ce 01       	movw	r24, r28
    57c0:	81 57       	subi	r24, 0x71	; 113
    57c2:	9d 4f       	sbci	r25, 0xFD	; 253
    57c4:	20 e0       	ldi	r18, 0x00	; 0
    57c6:	3f ef       	ldi	r19, 0xFF	; 255
    57c8:	4f e7       	ldi	r20, 0x7F	; 127
    57ca:	57 e4       	ldi	r21, 0x47	; 71
    57cc:	fc 01       	movw	r30, r24
    57ce:	60 81       	ld	r22, Z
    57d0:	71 81       	ldd	r23, Z+1	; 0x01
    57d2:	82 81       	ldd	r24, Z+2	; 0x02
    57d4:	93 81       	ldd	r25, Z+3	; 0x03
    57d6:	0e 94 61 50 	call	0xa0c2	; 0xa0c2 <__gesf2>
    57da:	18 16       	cp	r1, r24
    57dc:	0c f0       	brlt	.+2      	; 0x57e0 <__stack+0x35e1>
    57de:	4a c0       	rjmp	.+148    	; 0x5874 <__stack+0x3675>
    57e0:	ce 01       	movw	r24, r28
    57e2:	89 56       	subi	r24, 0x69	; 105
    57e4:	9f 4f       	sbci	r25, 0xFF	; 255
    57e6:	20 e0       	ldi	r18, 0x00	; 0
    57e8:	30 e0       	ldi	r19, 0x00	; 0
    57ea:	40 e2       	ldi	r20, 0x20	; 32
    57ec:	51 e4       	ldi	r21, 0x41	; 65
    57ee:	fc 01       	movw	r30, r24
    57f0:	60 81       	ld	r22, Z
    57f2:	71 81       	ldd	r23, Z+1	; 0x01
    57f4:	82 81       	ldd	r24, Z+2	; 0x02
    57f6:	93 81       	ldd	r25, Z+3	; 0x03
    57f8:	0e 94 65 50 	call	0xa0ca	; 0xa0ca <__mulsf3>
    57fc:	dc 01       	movw	r26, r24
    57fe:	cb 01       	movw	r24, r22
    5800:	8e 01       	movw	r16, r28
    5802:	0d 56       	subi	r16, 0x6D	; 109
    5804:	1d 4f       	sbci	r17, 0xFD	; 253
    5806:	bc 01       	movw	r22, r24
    5808:	cd 01       	movw	r24, r26
    580a:	0e 94 e8 4f 	call	0x9fd0	; 0x9fd0 <__fixunssfsi>
    580e:	dc 01       	movw	r26, r24
    5810:	cb 01       	movw	r24, r22
    5812:	f8 01       	movw	r30, r16
    5814:	91 83       	std	Z+1, r25	; 0x01
    5816:	80 83       	st	Z, r24
    5818:	24 c0       	rjmp	.+72     	; 0x5862 <__stack+0x3663>
    581a:	ce 01       	movw	r24, r28
    581c:	8b 56       	subi	r24, 0x6B	; 107
    581e:	9d 4f       	sbci	r25, 0xFD	; 253
    5820:	20 e7       	ldi	r18, 0x70	; 112
    5822:	31 e0       	ldi	r19, 0x01	; 1
    5824:	fc 01       	movw	r30, r24
    5826:	31 83       	std	Z+1, r19	; 0x01
    5828:	20 83       	st	Z, r18
    582a:	ce 01       	movw	r24, r28
    582c:	8b 56       	subi	r24, 0x6B	; 107
    582e:	9d 4f       	sbci	r25, 0xFD	; 253
    5830:	fc 01       	movw	r30, r24
    5832:	80 81       	ld	r24, Z
    5834:	91 81       	ldd	r25, Z+1	; 0x01
    5836:	01 97       	sbiw	r24, 0x01	; 1
    5838:	f1 f7       	brne	.-4      	; 0x5836 <__stack+0x3637>
    583a:	9e 01       	movw	r18, r28
    583c:	2b 56       	subi	r18, 0x6B	; 107
    583e:	3d 4f       	sbci	r19, 0xFD	; 253
    5840:	f9 01       	movw	r30, r18
    5842:	91 83       	std	Z+1, r25	; 0x01
    5844:	80 83       	st	Z, r24
    5846:	ce 01       	movw	r24, r28
    5848:	8d 56       	subi	r24, 0x6D	; 109
    584a:	9d 4f       	sbci	r25, 0xFD	; 253
    584c:	9e 01       	movw	r18, r28
    584e:	2d 56       	subi	r18, 0x6D	; 109
    5850:	3d 4f       	sbci	r19, 0xFD	; 253
    5852:	f9 01       	movw	r30, r18
    5854:	20 81       	ld	r18, Z
    5856:	31 81       	ldd	r19, Z+1	; 0x01
    5858:	21 50       	subi	r18, 0x01	; 1
    585a:	31 09       	sbc	r19, r1
    585c:	fc 01       	movw	r30, r24
    585e:	31 83       	std	Z+1, r19	; 0x01
    5860:	20 83       	st	Z, r18
    5862:	ce 01       	movw	r24, r28
    5864:	8d 56       	subi	r24, 0x6D	; 109
    5866:	9d 4f       	sbci	r25, 0xFD	; 253
    5868:	fc 01       	movw	r30, r24
    586a:	80 81       	ld	r24, Z
    586c:	91 81       	ldd	r25, Z+1	; 0x01
    586e:	89 2b       	or	r24, r25
    5870:	a1 f6       	brne	.-88     	; 0x581a <__stack+0x361b>
    5872:	2c c0       	rjmp	.+88     	; 0x58cc <__stack+0x36cd>
    5874:	8e 01       	movw	r16, r28
    5876:	0d 56       	subi	r16, 0x6D	; 109
    5878:	1d 4f       	sbci	r17, 0xFD	; 253
    587a:	ce 01       	movw	r24, r28
    587c:	81 57       	subi	r24, 0x71	; 113
    587e:	9d 4f       	sbci	r25, 0xFD	; 253
    5880:	fc 01       	movw	r30, r24
    5882:	60 81       	ld	r22, Z
    5884:	71 81       	ldd	r23, Z+1	; 0x01
    5886:	82 81       	ldd	r24, Z+2	; 0x02
    5888:	93 81       	ldd	r25, Z+3	; 0x03
    588a:	0e 94 e8 4f 	call	0x9fd0	; 0x9fd0 <__fixunssfsi>
    588e:	dc 01       	movw	r26, r24
    5890:	cb 01       	movw	r24, r22
    5892:	f8 01       	movw	r30, r16
    5894:	91 83       	std	Z+1, r25	; 0x01
    5896:	80 83       	st	Z, r24
    5898:	ce 01       	movw	r24, r28
    589a:	89 56       	subi	r24, 0x69	; 105
    589c:	9d 4f       	sbci	r25, 0xFD	; 253
    589e:	9e 01       	movw	r18, r28
    58a0:	2d 56       	subi	r18, 0x6D	; 109
    58a2:	3d 4f       	sbci	r19, 0xFD	; 253
    58a4:	f9 01       	movw	r30, r18
    58a6:	20 81       	ld	r18, Z
    58a8:	31 81       	ldd	r19, Z+1	; 0x01
    58aa:	fc 01       	movw	r30, r24
    58ac:	31 83       	std	Z+1, r19	; 0x01
    58ae:	20 83       	st	Z, r18
    58b0:	ce 01       	movw	r24, r28
    58b2:	89 56       	subi	r24, 0x69	; 105
    58b4:	9d 4f       	sbci	r25, 0xFD	; 253
    58b6:	fc 01       	movw	r30, r24
    58b8:	80 81       	ld	r24, Z
    58ba:	91 81       	ldd	r25, Z+1	; 0x01
    58bc:	01 97       	sbiw	r24, 0x01	; 1
    58be:	f1 f7       	brne	.-4      	; 0x58bc <__stack+0x36bd>
    58c0:	9e 01       	movw	r18, r28
    58c2:	29 56       	subi	r18, 0x69	; 105
    58c4:	3d 4f       	sbci	r19, 0xFD	; 253
    58c6:	f9 01       	movw	r30, r18
    58c8:	91 83       	std	Z+1, r25	; 0x01
    58ca:	80 83       	st	Z, r24
    58cc:	0e 94 96 0e 	call	0x1d2c	; 0x1d2c <left>
    58d0:	9e 01       	movw	r18, r28
    58d2:	25 59       	subi	r18, 0x95	; 149
    58d4:	3f 4f       	sbci	r19, 0xFF	; 255
    58d6:	80 e0       	ldi	r24, 0x00	; 0
    58d8:	90 e8       	ldi	r25, 0x80	; 128
    58da:	a2 ea       	ldi	r26, 0xA2	; 162
    58dc:	b4 e4       	ldi	r27, 0x44	; 68
    58de:	f9 01       	movw	r30, r18
    58e0:	80 83       	st	Z, r24
    58e2:	91 83       	std	Z+1, r25	; 0x01
    58e4:	a2 83       	std	Z+2, r26	; 0x02
    58e6:	b3 83       	std	Z+3, r27	; 0x03
    58e8:	8e 01       	movw	r16, r28
    58ea:	0b 57       	subi	r16, 0x7B	; 123
    58ec:	1d 4f       	sbci	r17, 0xFD	; 253
    58ee:	ce 01       	movw	r24, r28
    58f0:	85 59       	subi	r24, 0x95	; 149
    58f2:	9f 4f       	sbci	r25, 0xFF	; 255
    58f4:	26 e6       	ldi	r18, 0x66	; 102
    58f6:	36 e6       	ldi	r19, 0x66	; 102
    58f8:	46 e6       	ldi	r20, 0x66	; 102
    58fa:	55 e4       	ldi	r21, 0x45	; 69
    58fc:	fc 01       	movw	r30, r24
    58fe:	60 81       	ld	r22, Z
    5900:	71 81       	ldd	r23, Z+1	; 0x01
    5902:	82 81       	ldd	r24, Z+2	; 0x02
    5904:	93 81       	ldd	r25, Z+3	; 0x03
    5906:	0e 94 65 50 	call	0xa0ca	; 0xa0ca <__mulsf3>
    590a:	dc 01       	movw	r26, r24
    590c:	cb 01       	movw	r24, r22
    590e:	f8 01       	movw	r30, r16
    5910:	80 83       	st	Z, r24
    5912:	91 83       	std	Z+1, r25	; 0x01
    5914:	a2 83       	std	Z+2, r26	; 0x02
    5916:	b3 83       	std	Z+3, r27	; 0x03
    5918:	ce 01       	movw	r24, r28
    591a:	8b 57       	subi	r24, 0x7B	; 123
    591c:	9d 4f       	sbci	r25, 0xFD	; 253
    591e:	20 e0       	ldi	r18, 0x00	; 0
    5920:	30 e0       	ldi	r19, 0x00	; 0
    5922:	40 e8       	ldi	r20, 0x80	; 128
    5924:	5f e3       	ldi	r21, 0x3F	; 63
    5926:	fc 01       	movw	r30, r24
    5928:	60 81       	ld	r22, Z
    592a:	71 81       	ldd	r23, Z+1	; 0x01
    592c:	82 81       	ldd	r24, Z+2	; 0x02
    592e:	93 81       	ldd	r25, Z+3	; 0x03
    5930:	0e 94 e4 4f 	call	0x9fc8	; 0x9fc8 <__cmpsf2>
    5934:	88 23       	and	r24, r24
    5936:	4c f4       	brge	.+18     	; 0x594a <__stack+0x374b>
    5938:	ce 01       	movw	r24, r28
    593a:	87 57       	subi	r24, 0x77	; 119
    593c:	9d 4f       	sbci	r25, 0xFD	; 253
    593e:	21 e0       	ldi	r18, 0x01	; 1
    5940:	30 e0       	ldi	r19, 0x00	; 0
    5942:	fc 01       	movw	r30, r24
    5944:	31 83       	std	Z+1, r19	; 0x01
    5946:	20 83       	st	Z, r18
    5948:	6d c0       	rjmp	.+218    	; 0x5a24 <__stack+0x3825>
    594a:	ce 01       	movw	r24, r28
    594c:	8b 57       	subi	r24, 0x7B	; 123
    594e:	9d 4f       	sbci	r25, 0xFD	; 253
    5950:	20 e0       	ldi	r18, 0x00	; 0
    5952:	3f ef       	ldi	r19, 0xFF	; 255
    5954:	4f e7       	ldi	r20, 0x7F	; 127
    5956:	57 e4       	ldi	r21, 0x47	; 71
    5958:	fc 01       	movw	r30, r24
    595a:	60 81       	ld	r22, Z
    595c:	71 81       	ldd	r23, Z+1	; 0x01
    595e:	82 81       	ldd	r24, Z+2	; 0x02
    5960:	93 81       	ldd	r25, Z+3	; 0x03
    5962:	0e 94 61 50 	call	0xa0c2	; 0xa0c2 <__gesf2>
    5966:	18 16       	cp	r1, r24
    5968:	0c f0       	brlt	.+2      	; 0x596c <__stack+0x376d>
    596a:	4a c0       	rjmp	.+148    	; 0x5a00 <__stack+0x3801>
    596c:	ce 01       	movw	r24, r28
    596e:	85 59       	subi	r24, 0x95	; 149
    5970:	9f 4f       	sbci	r25, 0xFF	; 255
    5972:	20 e0       	ldi	r18, 0x00	; 0
    5974:	30 e0       	ldi	r19, 0x00	; 0
    5976:	40 e2       	ldi	r20, 0x20	; 32
    5978:	51 e4       	ldi	r21, 0x41	; 65
    597a:	fc 01       	movw	r30, r24
    597c:	60 81       	ld	r22, Z
    597e:	71 81       	ldd	r23, Z+1	; 0x01
    5980:	82 81       	ldd	r24, Z+2	; 0x02
    5982:	93 81       	ldd	r25, Z+3	; 0x03
    5984:	0e 94 65 50 	call	0xa0ca	; 0xa0ca <__mulsf3>
    5988:	dc 01       	movw	r26, r24
    598a:	cb 01       	movw	r24, r22
    598c:	8e 01       	movw	r16, r28
    598e:	07 57       	subi	r16, 0x77	; 119
    5990:	1d 4f       	sbci	r17, 0xFD	; 253
    5992:	bc 01       	movw	r22, r24
    5994:	cd 01       	movw	r24, r26
    5996:	0e 94 e8 4f 	call	0x9fd0	; 0x9fd0 <__fixunssfsi>
    599a:	dc 01       	movw	r26, r24
    599c:	cb 01       	movw	r24, r22
    599e:	f8 01       	movw	r30, r16
    59a0:	91 83       	std	Z+1, r25	; 0x01
    59a2:	80 83       	st	Z, r24
    59a4:	24 c0       	rjmp	.+72     	; 0x59ee <__stack+0x37ef>
    59a6:	ce 01       	movw	r24, r28
    59a8:	85 57       	subi	r24, 0x75	; 117
    59aa:	9d 4f       	sbci	r25, 0xFD	; 253
    59ac:	20 e7       	ldi	r18, 0x70	; 112
    59ae:	31 e0       	ldi	r19, 0x01	; 1
    59b0:	fc 01       	movw	r30, r24
    59b2:	31 83       	std	Z+1, r19	; 0x01
    59b4:	20 83       	st	Z, r18
    59b6:	ce 01       	movw	r24, r28
    59b8:	85 57       	subi	r24, 0x75	; 117
    59ba:	9d 4f       	sbci	r25, 0xFD	; 253
    59bc:	fc 01       	movw	r30, r24
    59be:	80 81       	ld	r24, Z
    59c0:	91 81       	ldd	r25, Z+1	; 0x01
    59c2:	01 97       	sbiw	r24, 0x01	; 1
    59c4:	f1 f7       	brne	.-4      	; 0x59c2 <__stack+0x37c3>
    59c6:	9e 01       	movw	r18, r28
    59c8:	25 57       	subi	r18, 0x75	; 117
    59ca:	3d 4f       	sbci	r19, 0xFD	; 253
    59cc:	f9 01       	movw	r30, r18
    59ce:	91 83       	std	Z+1, r25	; 0x01
    59d0:	80 83       	st	Z, r24
    59d2:	ce 01       	movw	r24, r28
    59d4:	87 57       	subi	r24, 0x77	; 119
    59d6:	9d 4f       	sbci	r25, 0xFD	; 253
    59d8:	9e 01       	movw	r18, r28
    59da:	27 57       	subi	r18, 0x77	; 119
    59dc:	3d 4f       	sbci	r19, 0xFD	; 253
    59de:	f9 01       	movw	r30, r18
    59e0:	20 81       	ld	r18, Z
    59e2:	31 81       	ldd	r19, Z+1	; 0x01
    59e4:	21 50       	subi	r18, 0x01	; 1
    59e6:	31 09       	sbc	r19, r1
    59e8:	fc 01       	movw	r30, r24
    59ea:	31 83       	std	Z+1, r19	; 0x01
    59ec:	20 83       	st	Z, r18
    59ee:	ce 01       	movw	r24, r28
    59f0:	87 57       	subi	r24, 0x77	; 119
    59f2:	9d 4f       	sbci	r25, 0xFD	; 253
    59f4:	fc 01       	movw	r30, r24
    59f6:	80 81       	ld	r24, Z
    59f8:	91 81       	ldd	r25, Z+1	; 0x01
    59fa:	89 2b       	or	r24, r25
    59fc:	a1 f6       	brne	.-88     	; 0x59a6 <__stack+0x37a7>
    59fe:	2c c0       	rjmp	.+88     	; 0x5a58 <__stack+0x3859>
    5a00:	8e 01       	movw	r16, r28
    5a02:	07 57       	subi	r16, 0x77	; 119
    5a04:	1d 4f       	sbci	r17, 0xFD	; 253
    5a06:	ce 01       	movw	r24, r28
    5a08:	8b 57       	subi	r24, 0x7B	; 123
    5a0a:	9d 4f       	sbci	r25, 0xFD	; 253
    5a0c:	fc 01       	movw	r30, r24
    5a0e:	60 81       	ld	r22, Z
    5a10:	71 81       	ldd	r23, Z+1	; 0x01
    5a12:	82 81       	ldd	r24, Z+2	; 0x02
    5a14:	93 81       	ldd	r25, Z+3	; 0x03
    5a16:	0e 94 e8 4f 	call	0x9fd0	; 0x9fd0 <__fixunssfsi>
    5a1a:	dc 01       	movw	r26, r24
    5a1c:	cb 01       	movw	r24, r22
    5a1e:	f8 01       	movw	r30, r16
    5a20:	91 83       	std	Z+1, r25	; 0x01
    5a22:	80 83       	st	Z, r24
    5a24:	ce 01       	movw	r24, r28
    5a26:	83 57       	subi	r24, 0x73	; 115
    5a28:	9d 4f       	sbci	r25, 0xFD	; 253
    5a2a:	9e 01       	movw	r18, r28
    5a2c:	27 57       	subi	r18, 0x77	; 119
    5a2e:	3d 4f       	sbci	r19, 0xFD	; 253
    5a30:	f9 01       	movw	r30, r18
    5a32:	20 81       	ld	r18, Z
    5a34:	31 81       	ldd	r19, Z+1	; 0x01
    5a36:	fc 01       	movw	r30, r24
    5a38:	31 83       	std	Z+1, r19	; 0x01
    5a3a:	20 83       	st	Z, r18
    5a3c:	ce 01       	movw	r24, r28
    5a3e:	83 57       	subi	r24, 0x73	; 115
    5a40:	9d 4f       	sbci	r25, 0xFD	; 253
    5a42:	fc 01       	movw	r30, r24
    5a44:	80 81       	ld	r24, Z
    5a46:	91 81       	ldd	r25, Z+1	; 0x01
    5a48:	01 97       	sbiw	r24, 0x01	; 1
    5a4a:	f1 f7       	brne	.-4      	; 0x5a48 <__stack+0x3849>
    5a4c:	9e 01       	movw	r18, r28
    5a4e:	23 57       	subi	r18, 0x73	; 115
    5a50:	3d 4f       	sbci	r19, 0xFD	; 253
    5a52:	f9 01       	movw	r30, r18
    5a54:	91 83       	std	Z+1, r25	; 0x01
    5a56:	80 83       	st	Z, r24
    5a58:	89 81       	ldd	r24, Y+1	; 0x01
    5a5a:	9a 81       	ldd	r25, Y+2	; 0x02
    5a5c:	87 36       	cpi	r24, 0x67	; 103
    5a5e:	91 05       	cpc	r25, r1
    5a60:	09 f4       	brne	.+2      	; 0x5a64 <__stack+0x3865>
    5a62:	4b cc       	rjmp	.-1898   	; 0x52fa <__stack+0x30fb>
    5a64:	36 c6       	rjmp	.+3180   	; 0x66d2 <__stack+0x44d3>
    5a66:	0e 94 0c 0d 	call	0x1a18	; 0x1a18 <buzzer_on>
    5a6a:	9e 01       	movw	r18, r28
    5a6c:	21 56       	subi	r18, 0x61	; 97
    5a6e:	3f 4f       	sbci	r19, 0xFF	; 255
    5a70:	80 e0       	ldi	r24, 0x00	; 0
    5a72:	90 e0       	ldi	r25, 0x00	; 0
    5a74:	a8 ec       	ldi	r26, 0xC8	; 200
    5a76:	b2 e4       	ldi	r27, 0x42	; 66
    5a78:	f9 01       	movw	r30, r18
    5a7a:	80 83       	st	Z, r24
    5a7c:	91 83       	std	Z+1, r25	; 0x01
    5a7e:	a2 83       	std	Z+2, r26	; 0x02
    5a80:	b3 83       	std	Z+3, r27	; 0x03
    5a82:	8e 01       	movw	r16, r28
    5a84:	0d 50       	subi	r16, 0x0D	; 13
    5a86:	1d 4f       	sbci	r17, 0xFD	; 253
    5a88:	ce 01       	movw	r24, r28
    5a8a:	81 56       	subi	r24, 0x61	; 97
    5a8c:	9f 4f       	sbci	r25, 0xFF	; 255
    5a8e:	26 e6       	ldi	r18, 0x66	; 102
    5a90:	36 e6       	ldi	r19, 0x66	; 102
    5a92:	46 e6       	ldi	r20, 0x66	; 102
    5a94:	55 e4       	ldi	r21, 0x45	; 69
    5a96:	fc 01       	movw	r30, r24
    5a98:	60 81       	ld	r22, Z
    5a9a:	71 81       	ldd	r23, Z+1	; 0x01
    5a9c:	82 81       	ldd	r24, Z+2	; 0x02
    5a9e:	93 81       	ldd	r25, Z+3	; 0x03
    5aa0:	0e 94 65 50 	call	0xa0ca	; 0xa0ca <__mulsf3>
    5aa4:	dc 01       	movw	r26, r24
    5aa6:	cb 01       	movw	r24, r22
    5aa8:	f8 01       	movw	r30, r16
    5aaa:	80 83       	st	Z, r24
    5aac:	91 83       	std	Z+1, r25	; 0x01
    5aae:	a2 83       	std	Z+2, r26	; 0x02
    5ab0:	b3 83       	std	Z+3, r27	; 0x03
    5ab2:	ce 01       	movw	r24, r28
    5ab4:	8d 50       	subi	r24, 0x0D	; 13
    5ab6:	9d 4f       	sbci	r25, 0xFD	; 253
    5ab8:	20 e0       	ldi	r18, 0x00	; 0
    5aba:	30 e0       	ldi	r19, 0x00	; 0
    5abc:	40 e8       	ldi	r20, 0x80	; 128
    5abe:	5f e3       	ldi	r21, 0x3F	; 63
    5ac0:	fc 01       	movw	r30, r24
    5ac2:	60 81       	ld	r22, Z
    5ac4:	71 81       	ldd	r23, Z+1	; 0x01
    5ac6:	82 81       	ldd	r24, Z+2	; 0x02
    5ac8:	93 81       	ldd	r25, Z+3	; 0x03
    5aca:	0e 94 e4 4f 	call	0x9fc8	; 0x9fc8 <__cmpsf2>
    5ace:	88 23       	and	r24, r24
    5ad0:	4c f4       	brge	.+18     	; 0x5ae4 <__stack+0x38e5>
    5ad2:	ce 01       	movw	r24, r28
    5ad4:	89 50       	subi	r24, 0x09	; 9
    5ad6:	9d 4f       	sbci	r25, 0xFD	; 253
    5ad8:	21 e0       	ldi	r18, 0x01	; 1
    5ada:	30 e0       	ldi	r19, 0x00	; 0
    5adc:	fc 01       	movw	r30, r24
    5ade:	31 83       	std	Z+1, r19	; 0x01
    5ae0:	20 83       	st	Z, r18
    5ae2:	6d c0       	rjmp	.+218    	; 0x5bbe <__stack+0x39bf>
    5ae4:	ce 01       	movw	r24, r28
    5ae6:	8d 50       	subi	r24, 0x0D	; 13
    5ae8:	9d 4f       	sbci	r25, 0xFD	; 253
    5aea:	20 e0       	ldi	r18, 0x00	; 0
    5aec:	3f ef       	ldi	r19, 0xFF	; 255
    5aee:	4f e7       	ldi	r20, 0x7F	; 127
    5af0:	57 e4       	ldi	r21, 0x47	; 71
    5af2:	fc 01       	movw	r30, r24
    5af4:	60 81       	ld	r22, Z
    5af6:	71 81       	ldd	r23, Z+1	; 0x01
    5af8:	82 81       	ldd	r24, Z+2	; 0x02
    5afa:	93 81       	ldd	r25, Z+3	; 0x03
    5afc:	0e 94 61 50 	call	0xa0c2	; 0xa0c2 <__gesf2>
    5b00:	18 16       	cp	r1, r24
    5b02:	0c f0       	brlt	.+2      	; 0x5b06 <__stack+0x3907>
    5b04:	4a c0       	rjmp	.+148    	; 0x5b9a <__stack+0x399b>
    5b06:	ce 01       	movw	r24, r28
    5b08:	81 56       	subi	r24, 0x61	; 97
    5b0a:	9f 4f       	sbci	r25, 0xFF	; 255
    5b0c:	20 e0       	ldi	r18, 0x00	; 0
    5b0e:	30 e0       	ldi	r19, 0x00	; 0
    5b10:	40 e2       	ldi	r20, 0x20	; 32
    5b12:	51 e4       	ldi	r21, 0x41	; 65
    5b14:	fc 01       	movw	r30, r24
    5b16:	60 81       	ld	r22, Z
    5b18:	71 81       	ldd	r23, Z+1	; 0x01
    5b1a:	82 81       	ldd	r24, Z+2	; 0x02
    5b1c:	93 81       	ldd	r25, Z+3	; 0x03
    5b1e:	0e 94 65 50 	call	0xa0ca	; 0xa0ca <__mulsf3>
    5b22:	dc 01       	movw	r26, r24
    5b24:	cb 01       	movw	r24, r22
    5b26:	8e 01       	movw	r16, r28
    5b28:	09 50       	subi	r16, 0x09	; 9
    5b2a:	1d 4f       	sbci	r17, 0xFD	; 253
    5b2c:	bc 01       	movw	r22, r24
    5b2e:	cd 01       	movw	r24, r26
    5b30:	0e 94 e8 4f 	call	0x9fd0	; 0x9fd0 <__fixunssfsi>
    5b34:	dc 01       	movw	r26, r24
    5b36:	cb 01       	movw	r24, r22
    5b38:	f8 01       	movw	r30, r16
    5b3a:	91 83       	std	Z+1, r25	; 0x01
    5b3c:	80 83       	st	Z, r24
    5b3e:	24 c0       	rjmp	.+72     	; 0x5b88 <__stack+0x3989>
    5b40:	ce 01       	movw	r24, r28
    5b42:	87 50       	subi	r24, 0x07	; 7
    5b44:	9d 4f       	sbci	r25, 0xFD	; 253
    5b46:	20 e7       	ldi	r18, 0x70	; 112
    5b48:	31 e0       	ldi	r19, 0x01	; 1
    5b4a:	fc 01       	movw	r30, r24
    5b4c:	31 83       	std	Z+1, r19	; 0x01
    5b4e:	20 83       	st	Z, r18
    5b50:	ce 01       	movw	r24, r28
    5b52:	87 50       	subi	r24, 0x07	; 7
    5b54:	9d 4f       	sbci	r25, 0xFD	; 253
    5b56:	fc 01       	movw	r30, r24
    5b58:	80 81       	ld	r24, Z
    5b5a:	91 81       	ldd	r25, Z+1	; 0x01
    5b5c:	01 97       	sbiw	r24, 0x01	; 1
    5b5e:	f1 f7       	brne	.-4      	; 0x5b5c <__stack+0x395d>
    5b60:	9e 01       	movw	r18, r28
    5b62:	27 50       	subi	r18, 0x07	; 7
    5b64:	3d 4f       	sbci	r19, 0xFD	; 253
    5b66:	f9 01       	movw	r30, r18
    5b68:	91 83       	std	Z+1, r25	; 0x01
    5b6a:	80 83       	st	Z, r24
    5b6c:	ce 01       	movw	r24, r28
    5b6e:	89 50       	subi	r24, 0x09	; 9
    5b70:	9d 4f       	sbci	r25, 0xFD	; 253
    5b72:	9e 01       	movw	r18, r28
    5b74:	29 50       	subi	r18, 0x09	; 9
    5b76:	3d 4f       	sbci	r19, 0xFD	; 253
    5b78:	f9 01       	movw	r30, r18
    5b7a:	20 81       	ld	r18, Z
    5b7c:	31 81       	ldd	r19, Z+1	; 0x01
    5b7e:	21 50       	subi	r18, 0x01	; 1
    5b80:	31 09       	sbc	r19, r1
    5b82:	fc 01       	movw	r30, r24
    5b84:	31 83       	std	Z+1, r19	; 0x01
    5b86:	20 83       	st	Z, r18
    5b88:	ce 01       	movw	r24, r28
    5b8a:	89 50       	subi	r24, 0x09	; 9
    5b8c:	9d 4f       	sbci	r25, 0xFD	; 253
    5b8e:	fc 01       	movw	r30, r24
    5b90:	80 81       	ld	r24, Z
    5b92:	91 81       	ldd	r25, Z+1	; 0x01
    5b94:	89 2b       	or	r24, r25
    5b96:	a1 f6       	brne	.-88     	; 0x5b40 <__stack+0x3941>
    5b98:	2c c0       	rjmp	.+88     	; 0x5bf2 <__stack+0x39f3>
    5b9a:	8e 01       	movw	r16, r28
    5b9c:	09 50       	subi	r16, 0x09	; 9
    5b9e:	1d 4f       	sbci	r17, 0xFD	; 253
    5ba0:	ce 01       	movw	r24, r28
    5ba2:	8d 50       	subi	r24, 0x0D	; 13
    5ba4:	9d 4f       	sbci	r25, 0xFD	; 253
    5ba6:	fc 01       	movw	r30, r24
    5ba8:	60 81       	ld	r22, Z
    5baa:	71 81       	ldd	r23, Z+1	; 0x01
    5bac:	82 81       	ldd	r24, Z+2	; 0x02
    5bae:	93 81       	ldd	r25, Z+3	; 0x03
    5bb0:	0e 94 e8 4f 	call	0x9fd0	; 0x9fd0 <__fixunssfsi>
    5bb4:	dc 01       	movw	r26, r24
    5bb6:	cb 01       	movw	r24, r22
    5bb8:	f8 01       	movw	r30, r16
    5bba:	91 83       	std	Z+1, r25	; 0x01
    5bbc:	80 83       	st	Z, r24
    5bbe:	ce 01       	movw	r24, r28
    5bc0:	85 50       	subi	r24, 0x05	; 5
    5bc2:	9d 4f       	sbci	r25, 0xFD	; 253
    5bc4:	9e 01       	movw	r18, r28
    5bc6:	29 50       	subi	r18, 0x09	; 9
    5bc8:	3d 4f       	sbci	r19, 0xFD	; 253
    5bca:	f9 01       	movw	r30, r18
    5bcc:	20 81       	ld	r18, Z
    5bce:	31 81       	ldd	r19, Z+1	; 0x01
    5bd0:	fc 01       	movw	r30, r24
    5bd2:	31 83       	std	Z+1, r19	; 0x01
    5bd4:	20 83       	st	Z, r18
    5bd6:	ce 01       	movw	r24, r28
    5bd8:	85 50       	subi	r24, 0x05	; 5
    5bda:	9d 4f       	sbci	r25, 0xFD	; 253
    5bdc:	fc 01       	movw	r30, r24
    5bde:	80 81       	ld	r24, Z
    5be0:	91 81       	ldd	r25, Z+1	; 0x01
    5be2:	01 97       	sbiw	r24, 0x01	; 1
    5be4:	f1 f7       	brne	.-4      	; 0x5be2 <__stack+0x39e3>
    5be6:	9e 01       	movw	r18, r28
    5be8:	25 50       	subi	r18, 0x05	; 5
    5bea:	3d 4f       	sbci	r19, 0xFD	; 253
    5bec:	f9 01       	movw	r30, r18
    5bee:	91 83       	std	Z+1, r25	; 0x01
    5bf0:	80 83       	st	Z, r24
    5bf2:	0e 94 1d 0d 	call	0x1a3a	; 0x1a3a <buzzer_off>
    5bf6:	9e 01       	movw	r18, r28
    5bf8:	2d 55       	subi	r18, 0x5D	; 93
    5bfa:	3f 4f       	sbci	r19, 0xFF	; 255
    5bfc:	80 e0       	ldi	r24, 0x00	; 0
    5bfe:	90 e0       	ldi	r25, 0x00	; 0
    5c00:	a8 e4       	ldi	r26, 0x48	; 72
    5c02:	b2 e4       	ldi	r27, 0x42	; 66
    5c04:	f9 01       	movw	r30, r18
    5c06:	80 83       	st	Z, r24
    5c08:	91 83       	std	Z+1, r25	; 0x01
    5c0a:	a2 83       	std	Z+2, r26	; 0x02
    5c0c:	b3 83       	std	Z+3, r27	; 0x03
    5c0e:	8e 01       	movw	r16, r28
    5c10:	07 51       	subi	r16, 0x17	; 23
    5c12:	1d 4f       	sbci	r17, 0xFD	; 253
    5c14:	ce 01       	movw	r24, r28
    5c16:	8d 55       	subi	r24, 0x5D	; 93
    5c18:	9f 4f       	sbci	r25, 0xFF	; 255
    5c1a:	26 e6       	ldi	r18, 0x66	; 102
    5c1c:	36 e6       	ldi	r19, 0x66	; 102
    5c1e:	46 e6       	ldi	r20, 0x66	; 102
    5c20:	55 e4       	ldi	r21, 0x45	; 69
    5c22:	fc 01       	movw	r30, r24
    5c24:	60 81       	ld	r22, Z
    5c26:	71 81       	ldd	r23, Z+1	; 0x01
    5c28:	82 81       	ldd	r24, Z+2	; 0x02
    5c2a:	93 81       	ldd	r25, Z+3	; 0x03
    5c2c:	0e 94 65 50 	call	0xa0ca	; 0xa0ca <__mulsf3>
    5c30:	dc 01       	movw	r26, r24
    5c32:	cb 01       	movw	r24, r22
    5c34:	f8 01       	movw	r30, r16
    5c36:	80 83       	st	Z, r24
    5c38:	91 83       	std	Z+1, r25	; 0x01
    5c3a:	a2 83       	std	Z+2, r26	; 0x02
    5c3c:	b3 83       	std	Z+3, r27	; 0x03
    5c3e:	ce 01       	movw	r24, r28
    5c40:	87 51       	subi	r24, 0x17	; 23
    5c42:	9d 4f       	sbci	r25, 0xFD	; 253
    5c44:	20 e0       	ldi	r18, 0x00	; 0
    5c46:	30 e0       	ldi	r19, 0x00	; 0
    5c48:	40 e8       	ldi	r20, 0x80	; 128
    5c4a:	5f e3       	ldi	r21, 0x3F	; 63
    5c4c:	fc 01       	movw	r30, r24
    5c4e:	60 81       	ld	r22, Z
    5c50:	71 81       	ldd	r23, Z+1	; 0x01
    5c52:	82 81       	ldd	r24, Z+2	; 0x02
    5c54:	93 81       	ldd	r25, Z+3	; 0x03
    5c56:	0e 94 e4 4f 	call	0x9fc8	; 0x9fc8 <__cmpsf2>
    5c5a:	88 23       	and	r24, r24
    5c5c:	4c f4       	brge	.+18     	; 0x5c70 <__stack+0x3a71>
    5c5e:	ce 01       	movw	r24, r28
    5c60:	83 51       	subi	r24, 0x13	; 19
    5c62:	9d 4f       	sbci	r25, 0xFD	; 253
    5c64:	21 e0       	ldi	r18, 0x01	; 1
    5c66:	30 e0       	ldi	r19, 0x00	; 0
    5c68:	fc 01       	movw	r30, r24
    5c6a:	31 83       	std	Z+1, r19	; 0x01
    5c6c:	20 83       	st	Z, r18
    5c6e:	6d c0       	rjmp	.+218    	; 0x5d4a <__stack+0x3b4b>
    5c70:	ce 01       	movw	r24, r28
    5c72:	87 51       	subi	r24, 0x17	; 23
    5c74:	9d 4f       	sbci	r25, 0xFD	; 253
    5c76:	20 e0       	ldi	r18, 0x00	; 0
    5c78:	3f ef       	ldi	r19, 0xFF	; 255
    5c7a:	4f e7       	ldi	r20, 0x7F	; 127
    5c7c:	57 e4       	ldi	r21, 0x47	; 71
    5c7e:	fc 01       	movw	r30, r24
    5c80:	60 81       	ld	r22, Z
    5c82:	71 81       	ldd	r23, Z+1	; 0x01
    5c84:	82 81       	ldd	r24, Z+2	; 0x02
    5c86:	93 81       	ldd	r25, Z+3	; 0x03
    5c88:	0e 94 61 50 	call	0xa0c2	; 0xa0c2 <__gesf2>
    5c8c:	18 16       	cp	r1, r24
    5c8e:	0c f0       	brlt	.+2      	; 0x5c92 <__stack+0x3a93>
    5c90:	4a c0       	rjmp	.+148    	; 0x5d26 <__stack+0x3b27>
    5c92:	ce 01       	movw	r24, r28
    5c94:	8d 55       	subi	r24, 0x5D	; 93
    5c96:	9f 4f       	sbci	r25, 0xFF	; 255
    5c98:	20 e0       	ldi	r18, 0x00	; 0
    5c9a:	30 e0       	ldi	r19, 0x00	; 0
    5c9c:	40 e2       	ldi	r20, 0x20	; 32
    5c9e:	51 e4       	ldi	r21, 0x41	; 65
    5ca0:	fc 01       	movw	r30, r24
    5ca2:	60 81       	ld	r22, Z
    5ca4:	71 81       	ldd	r23, Z+1	; 0x01
    5ca6:	82 81       	ldd	r24, Z+2	; 0x02
    5ca8:	93 81       	ldd	r25, Z+3	; 0x03
    5caa:	0e 94 65 50 	call	0xa0ca	; 0xa0ca <__mulsf3>
    5cae:	dc 01       	movw	r26, r24
    5cb0:	cb 01       	movw	r24, r22
    5cb2:	8e 01       	movw	r16, r28
    5cb4:	03 51       	subi	r16, 0x13	; 19
    5cb6:	1d 4f       	sbci	r17, 0xFD	; 253
    5cb8:	bc 01       	movw	r22, r24
    5cba:	cd 01       	movw	r24, r26
    5cbc:	0e 94 e8 4f 	call	0x9fd0	; 0x9fd0 <__fixunssfsi>
    5cc0:	dc 01       	movw	r26, r24
    5cc2:	cb 01       	movw	r24, r22
    5cc4:	f8 01       	movw	r30, r16
    5cc6:	91 83       	std	Z+1, r25	; 0x01
    5cc8:	80 83       	st	Z, r24
    5cca:	24 c0       	rjmp	.+72     	; 0x5d14 <__stack+0x3b15>
    5ccc:	ce 01       	movw	r24, r28
    5cce:	81 51       	subi	r24, 0x11	; 17
    5cd0:	9d 4f       	sbci	r25, 0xFD	; 253
    5cd2:	20 e7       	ldi	r18, 0x70	; 112
    5cd4:	31 e0       	ldi	r19, 0x01	; 1
    5cd6:	fc 01       	movw	r30, r24
    5cd8:	31 83       	std	Z+1, r19	; 0x01
    5cda:	20 83       	st	Z, r18
    5cdc:	ce 01       	movw	r24, r28
    5cde:	81 51       	subi	r24, 0x11	; 17
    5ce0:	9d 4f       	sbci	r25, 0xFD	; 253
    5ce2:	fc 01       	movw	r30, r24
    5ce4:	80 81       	ld	r24, Z
    5ce6:	91 81       	ldd	r25, Z+1	; 0x01
    5ce8:	01 97       	sbiw	r24, 0x01	; 1
    5cea:	f1 f7       	brne	.-4      	; 0x5ce8 <__stack+0x3ae9>
    5cec:	9e 01       	movw	r18, r28
    5cee:	21 51       	subi	r18, 0x11	; 17
    5cf0:	3d 4f       	sbci	r19, 0xFD	; 253
    5cf2:	f9 01       	movw	r30, r18
    5cf4:	91 83       	std	Z+1, r25	; 0x01
    5cf6:	80 83       	st	Z, r24
    5cf8:	ce 01       	movw	r24, r28
    5cfa:	83 51       	subi	r24, 0x13	; 19
    5cfc:	9d 4f       	sbci	r25, 0xFD	; 253
    5cfe:	9e 01       	movw	r18, r28
    5d00:	23 51       	subi	r18, 0x13	; 19
    5d02:	3d 4f       	sbci	r19, 0xFD	; 253
    5d04:	f9 01       	movw	r30, r18
    5d06:	20 81       	ld	r18, Z
    5d08:	31 81       	ldd	r19, Z+1	; 0x01
    5d0a:	21 50       	subi	r18, 0x01	; 1
    5d0c:	31 09       	sbc	r19, r1
    5d0e:	fc 01       	movw	r30, r24
    5d10:	31 83       	std	Z+1, r19	; 0x01
    5d12:	20 83       	st	Z, r18
    5d14:	ce 01       	movw	r24, r28
    5d16:	83 51       	subi	r24, 0x13	; 19
    5d18:	9d 4f       	sbci	r25, 0xFD	; 253
    5d1a:	fc 01       	movw	r30, r24
    5d1c:	80 81       	ld	r24, Z
    5d1e:	91 81       	ldd	r25, Z+1	; 0x01
    5d20:	89 2b       	or	r24, r25
    5d22:	a1 f6       	brne	.-88     	; 0x5ccc <__stack+0x3acd>
    5d24:	2c c0       	rjmp	.+88     	; 0x5d7e <__stack+0x3b7f>
    5d26:	8e 01       	movw	r16, r28
    5d28:	03 51       	subi	r16, 0x13	; 19
    5d2a:	1d 4f       	sbci	r17, 0xFD	; 253
    5d2c:	ce 01       	movw	r24, r28
    5d2e:	87 51       	subi	r24, 0x17	; 23
    5d30:	9d 4f       	sbci	r25, 0xFD	; 253
    5d32:	fc 01       	movw	r30, r24
    5d34:	60 81       	ld	r22, Z
    5d36:	71 81       	ldd	r23, Z+1	; 0x01
    5d38:	82 81       	ldd	r24, Z+2	; 0x02
    5d3a:	93 81       	ldd	r25, Z+3	; 0x03
    5d3c:	0e 94 e8 4f 	call	0x9fd0	; 0x9fd0 <__fixunssfsi>
    5d40:	dc 01       	movw	r26, r24
    5d42:	cb 01       	movw	r24, r22
    5d44:	f8 01       	movw	r30, r16
    5d46:	91 83       	std	Z+1, r25	; 0x01
    5d48:	80 83       	st	Z, r24
    5d4a:	ce 01       	movw	r24, r28
    5d4c:	8f 50       	subi	r24, 0x0F	; 15
    5d4e:	9d 4f       	sbci	r25, 0xFD	; 253
    5d50:	9e 01       	movw	r18, r28
    5d52:	23 51       	subi	r18, 0x13	; 19
    5d54:	3d 4f       	sbci	r19, 0xFD	; 253
    5d56:	f9 01       	movw	r30, r18
    5d58:	20 81       	ld	r18, Z
    5d5a:	31 81       	ldd	r19, Z+1	; 0x01
    5d5c:	fc 01       	movw	r30, r24
    5d5e:	31 83       	std	Z+1, r19	; 0x01
    5d60:	20 83       	st	Z, r18
    5d62:	ce 01       	movw	r24, r28
    5d64:	8f 50       	subi	r24, 0x0F	; 15
    5d66:	9d 4f       	sbci	r25, 0xFD	; 253
    5d68:	fc 01       	movw	r30, r24
    5d6a:	80 81       	ld	r24, Z
    5d6c:	91 81       	ldd	r25, Z+1	; 0x01
    5d6e:	01 97       	sbiw	r24, 0x01	; 1
    5d70:	f1 f7       	brne	.-4      	; 0x5d6e <__stack+0x3b6f>
    5d72:	9e 01       	movw	r18, r28
    5d74:	2f 50       	subi	r18, 0x0F	; 15
    5d76:	3d 4f       	sbci	r19, 0xFD	; 253
    5d78:	f9 01       	movw	r30, r18
    5d7a:	91 83       	std	Z+1, r25	; 0x01
    5d7c:	80 83       	st	Z, r24
    5d7e:	0e 94 0c 0d 	call	0x1a18	; 0x1a18 <buzzer_on>
    5d82:	9e 01       	movw	r18, r28
    5d84:	29 55       	subi	r18, 0x59	; 89
    5d86:	3f 4f       	sbci	r19, 0xFF	; 255
    5d88:	80 e0       	ldi	r24, 0x00	; 0
    5d8a:	90 e0       	ldi	r25, 0x00	; 0
    5d8c:	a8 ec       	ldi	r26, 0xC8	; 200
    5d8e:	b2 e4       	ldi	r27, 0x42	; 66
    5d90:	f9 01       	movw	r30, r18
    5d92:	80 83       	st	Z, r24
    5d94:	91 83       	std	Z+1, r25	; 0x01
    5d96:	a2 83       	std	Z+2, r26	; 0x02
    5d98:	b3 83       	std	Z+3, r27	; 0x03
    5d9a:	8e 01       	movw	r16, r28
    5d9c:	01 52       	subi	r16, 0x21	; 33
    5d9e:	1d 4f       	sbci	r17, 0xFD	; 253
    5da0:	ce 01       	movw	r24, r28
    5da2:	89 55       	subi	r24, 0x59	; 89
    5da4:	9f 4f       	sbci	r25, 0xFF	; 255
    5da6:	26 e6       	ldi	r18, 0x66	; 102
    5da8:	36 e6       	ldi	r19, 0x66	; 102
    5daa:	46 e6       	ldi	r20, 0x66	; 102
    5dac:	55 e4       	ldi	r21, 0x45	; 69
    5dae:	fc 01       	movw	r30, r24
    5db0:	60 81       	ld	r22, Z
    5db2:	71 81       	ldd	r23, Z+1	; 0x01
    5db4:	82 81       	ldd	r24, Z+2	; 0x02
    5db6:	93 81       	ldd	r25, Z+3	; 0x03
    5db8:	0e 94 65 50 	call	0xa0ca	; 0xa0ca <__mulsf3>
    5dbc:	dc 01       	movw	r26, r24
    5dbe:	cb 01       	movw	r24, r22
    5dc0:	f8 01       	movw	r30, r16
    5dc2:	80 83       	st	Z, r24
    5dc4:	91 83       	std	Z+1, r25	; 0x01
    5dc6:	a2 83       	std	Z+2, r26	; 0x02
    5dc8:	b3 83       	std	Z+3, r27	; 0x03
    5dca:	ce 01       	movw	r24, r28
    5dcc:	81 52       	subi	r24, 0x21	; 33
    5dce:	9d 4f       	sbci	r25, 0xFD	; 253
    5dd0:	20 e0       	ldi	r18, 0x00	; 0
    5dd2:	30 e0       	ldi	r19, 0x00	; 0
    5dd4:	40 e8       	ldi	r20, 0x80	; 128
    5dd6:	5f e3       	ldi	r21, 0x3F	; 63
    5dd8:	fc 01       	movw	r30, r24
    5dda:	60 81       	ld	r22, Z
    5ddc:	71 81       	ldd	r23, Z+1	; 0x01
    5dde:	82 81       	ldd	r24, Z+2	; 0x02
    5de0:	93 81       	ldd	r25, Z+3	; 0x03
    5de2:	0e 94 e4 4f 	call	0x9fc8	; 0x9fc8 <__cmpsf2>
    5de6:	88 23       	and	r24, r24
    5de8:	4c f4       	brge	.+18     	; 0x5dfc <__stack+0x3bfd>
    5dea:	ce 01       	movw	r24, r28
    5dec:	8d 51       	subi	r24, 0x1D	; 29
    5dee:	9d 4f       	sbci	r25, 0xFD	; 253
    5df0:	21 e0       	ldi	r18, 0x01	; 1
    5df2:	30 e0       	ldi	r19, 0x00	; 0
    5df4:	fc 01       	movw	r30, r24
    5df6:	31 83       	std	Z+1, r19	; 0x01
    5df8:	20 83       	st	Z, r18
    5dfa:	6d c0       	rjmp	.+218    	; 0x5ed6 <__stack+0x3cd7>
    5dfc:	ce 01       	movw	r24, r28
    5dfe:	81 52       	subi	r24, 0x21	; 33
    5e00:	9d 4f       	sbci	r25, 0xFD	; 253
    5e02:	20 e0       	ldi	r18, 0x00	; 0
    5e04:	3f ef       	ldi	r19, 0xFF	; 255
    5e06:	4f e7       	ldi	r20, 0x7F	; 127
    5e08:	57 e4       	ldi	r21, 0x47	; 71
    5e0a:	fc 01       	movw	r30, r24
    5e0c:	60 81       	ld	r22, Z
    5e0e:	71 81       	ldd	r23, Z+1	; 0x01
    5e10:	82 81       	ldd	r24, Z+2	; 0x02
    5e12:	93 81       	ldd	r25, Z+3	; 0x03
    5e14:	0e 94 61 50 	call	0xa0c2	; 0xa0c2 <__gesf2>
    5e18:	18 16       	cp	r1, r24
    5e1a:	0c f0       	brlt	.+2      	; 0x5e1e <__stack+0x3c1f>
    5e1c:	4a c0       	rjmp	.+148    	; 0x5eb2 <__stack+0x3cb3>
    5e1e:	ce 01       	movw	r24, r28
    5e20:	89 55       	subi	r24, 0x59	; 89
    5e22:	9f 4f       	sbci	r25, 0xFF	; 255
    5e24:	20 e0       	ldi	r18, 0x00	; 0
    5e26:	30 e0       	ldi	r19, 0x00	; 0
    5e28:	40 e2       	ldi	r20, 0x20	; 32
    5e2a:	51 e4       	ldi	r21, 0x41	; 65
    5e2c:	fc 01       	movw	r30, r24
    5e2e:	60 81       	ld	r22, Z
    5e30:	71 81       	ldd	r23, Z+1	; 0x01
    5e32:	82 81       	ldd	r24, Z+2	; 0x02
    5e34:	93 81       	ldd	r25, Z+3	; 0x03
    5e36:	0e 94 65 50 	call	0xa0ca	; 0xa0ca <__mulsf3>
    5e3a:	dc 01       	movw	r26, r24
    5e3c:	cb 01       	movw	r24, r22
    5e3e:	8e 01       	movw	r16, r28
    5e40:	0d 51       	subi	r16, 0x1D	; 29
    5e42:	1d 4f       	sbci	r17, 0xFD	; 253
    5e44:	bc 01       	movw	r22, r24
    5e46:	cd 01       	movw	r24, r26
    5e48:	0e 94 e8 4f 	call	0x9fd0	; 0x9fd0 <__fixunssfsi>
    5e4c:	dc 01       	movw	r26, r24
    5e4e:	cb 01       	movw	r24, r22
    5e50:	f8 01       	movw	r30, r16
    5e52:	91 83       	std	Z+1, r25	; 0x01
    5e54:	80 83       	st	Z, r24
    5e56:	24 c0       	rjmp	.+72     	; 0x5ea0 <__stack+0x3ca1>
    5e58:	ce 01       	movw	r24, r28
    5e5a:	8b 51       	subi	r24, 0x1B	; 27
    5e5c:	9d 4f       	sbci	r25, 0xFD	; 253
    5e5e:	20 e7       	ldi	r18, 0x70	; 112
    5e60:	31 e0       	ldi	r19, 0x01	; 1
    5e62:	fc 01       	movw	r30, r24
    5e64:	31 83       	std	Z+1, r19	; 0x01
    5e66:	20 83       	st	Z, r18
    5e68:	ce 01       	movw	r24, r28
    5e6a:	8b 51       	subi	r24, 0x1B	; 27
    5e6c:	9d 4f       	sbci	r25, 0xFD	; 253
    5e6e:	fc 01       	movw	r30, r24
    5e70:	80 81       	ld	r24, Z
    5e72:	91 81       	ldd	r25, Z+1	; 0x01
    5e74:	01 97       	sbiw	r24, 0x01	; 1
    5e76:	f1 f7       	brne	.-4      	; 0x5e74 <__stack+0x3c75>
    5e78:	9e 01       	movw	r18, r28
    5e7a:	2b 51       	subi	r18, 0x1B	; 27
    5e7c:	3d 4f       	sbci	r19, 0xFD	; 253
    5e7e:	f9 01       	movw	r30, r18
    5e80:	91 83       	std	Z+1, r25	; 0x01
    5e82:	80 83       	st	Z, r24
    5e84:	ce 01       	movw	r24, r28
    5e86:	8d 51       	subi	r24, 0x1D	; 29
    5e88:	9d 4f       	sbci	r25, 0xFD	; 253
    5e8a:	9e 01       	movw	r18, r28
    5e8c:	2d 51       	subi	r18, 0x1D	; 29
    5e8e:	3d 4f       	sbci	r19, 0xFD	; 253
    5e90:	f9 01       	movw	r30, r18
    5e92:	20 81       	ld	r18, Z
    5e94:	31 81       	ldd	r19, Z+1	; 0x01
    5e96:	21 50       	subi	r18, 0x01	; 1
    5e98:	31 09       	sbc	r19, r1
    5e9a:	fc 01       	movw	r30, r24
    5e9c:	31 83       	std	Z+1, r19	; 0x01
    5e9e:	20 83       	st	Z, r18
    5ea0:	ce 01       	movw	r24, r28
    5ea2:	8d 51       	subi	r24, 0x1D	; 29
    5ea4:	9d 4f       	sbci	r25, 0xFD	; 253
    5ea6:	fc 01       	movw	r30, r24
    5ea8:	80 81       	ld	r24, Z
    5eaa:	91 81       	ldd	r25, Z+1	; 0x01
    5eac:	89 2b       	or	r24, r25
    5eae:	a1 f6       	brne	.-88     	; 0x5e58 <__stack+0x3c59>
    5eb0:	2c c0       	rjmp	.+88     	; 0x5f0a <__stack+0x3d0b>
    5eb2:	8e 01       	movw	r16, r28
    5eb4:	0d 51       	subi	r16, 0x1D	; 29
    5eb6:	1d 4f       	sbci	r17, 0xFD	; 253
    5eb8:	ce 01       	movw	r24, r28
    5eba:	81 52       	subi	r24, 0x21	; 33
    5ebc:	9d 4f       	sbci	r25, 0xFD	; 253
    5ebe:	fc 01       	movw	r30, r24
    5ec0:	60 81       	ld	r22, Z
    5ec2:	71 81       	ldd	r23, Z+1	; 0x01
    5ec4:	82 81       	ldd	r24, Z+2	; 0x02
    5ec6:	93 81       	ldd	r25, Z+3	; 0x03
    5ec8:	0e 94 e8 4f 	call	0x9fd0	; 0x9fd0 <__fixunssfsi>
    5ecc:	dc 01       	movw	r26, r24
    5ece:	cb 01       	movw	r24, r22
    5ed0:	f8 01       	movw	r30, r16
    5ed2:	91 83       	std	Z+1, r25	; 0x01
    5ed4:	80 83       	st	Z, r24
    5ed6:	ce 01       	movw	r24, r28
    5ed8:	89 51       	subi	r24, 0x19	; 25
    5eda:	9d 4f       	sbci	r25, 0xFD	; 253
    5edc:	9e 01       	movw	r18, r28
    5ede:	2d 51       	subi	r18, 0x1D	; 29
    5ee0:	3d 4f       	sbci	r19, 0xFD	; 253
    5ee2:	f9 01       	movw	r30, r18
    5ee4:	20 81       	ld	r18, Z
    5ee6:	31 81       	ldd	r19, Z+1	; 0x01
    5ee8:	fc 01       	movw	r30, r24
    5eea:	31 83       	std	Z+1, r19	; 0x01
    5eec:	20 83       	st	Z, r18
    5eee:	ce 01       	movw	r24, r28
    5ef0:	89 51       	subi	r24, 0x19	; 25
    5ef2:	9d 4f       	sbci	r25, 0xFD	; 253
    5ef4:	fc 01       	movw	r30, r24
    5ef6:	80 81       	ld	r24, Z
    5ef8:	91 81       	ldd	r25, Z+1	; 0x01
    5efa:	01 97       	sbiw	r24, 0x01	; 1
    5efc:	f1 f7       	brne	.-4      	; 0x5efa <__stack+0x3cfb>
    5efe:	9e 01       	movw	r18, r28
    5f00:	29 51       	subi	r18, 0x19	; 25
    5f02:	3d 4f       	sbci	r19, 0xFD	; 253
    5f04:	f9 01       	movw	r30, r18
    5f06:	91 83       	std	Z+1, r25	; 0x01
    5f08:	80 83       	st	Z, r24
    5f0a:	0e 94 1d 0d 	call	0x1a3a	; 0x1a3a <buzzer_off>
    5f0e:	9e 01       	movw	r18, r28
    5f10:	25 55       	subi	r18, 0x55	; 85
    5f12:	3f 4f       	sbci	r19, 0xFF	; 255
    5f14:	80 e0       	ldi	r24, 0x00	; 0
    5f16:	90 e0       	ldi	r25, 0x00	; 0
    5f18:	a8 e4       	ldi	r26, 0x48	; 72
    5f1a:	b2 e4       	ldi	r27, 0x42	; 66
    5f1c:	f9 01       	movw	r30, r18
    5f1e:	80 83       	st	Z, r24
    5f20:	91 83       	std	Z+1, r25	; 0x01
    5f22:	a2 83       	std	Z+2, r26	; 0x02
    5f24:	b3 83       	std	Z+3, r27	; 0x03
    5f26:	8e 01       	movw	r16, r28
    5f28:	0b 52       	subi	r16, 0x2B	; 43
    5f2a:	1d 4f       	sbci	r17, 0xFD	; 253
    5f2c:	ce 01       	movw	r24, r28
    5f2e:	85 55       	subi	r24, 0x55	; 85
    5f30:	9f 4f       	sbci	r25, 0xFF	; 255
    5f32:	26 e6       	ldi	r18, 0x66	; 102
    5f34:	36 e6       	ldi	r19, 0x66	; 102
    5f36:	46 e6       	ldi	r20, 0x66	; 102
    5f38:	55 e4       	ldi	r21, 0x45	; 69
    5f3a:	fc 01       	movw	r30, r24
    5f3c:	60 81       	ld	r22, Z
    5f3e:	71 81       	ldd	r23, Z+1	; 0x01
    5f40:	82 81       	ldd	r24, Z+2	; 0x02
    5f42:	93 81       	ldd	r25, Z+3	; 0x03
    5f44:	0e 94 65 50 	call	0xa0ca	; 0xa0ca <__mulsf3>
    5f48:	dc 01       	movw	r26, r24
    5f4a:	cb 01       	movw	r24, r22
    5f4c:	f8 01       	movw	r30, r16
    5f4e:	80 83       	st	Z, r24
    5f50:	91 83       	std	Z+1, r25	; 0x01
    5f52:	a2 83       	std	Z+2, r26	; 0x02
    5f54:	b3 83       	std	Z+3, r27	; 0x03
    5f56:	ce 01       	movw	r24, r28
    5f58:	8b 52       	subi	r24, 0x2B	; 43
    5f5a:	9d 4f       	sbci	r25, 0xFD	; 253
    5f5c:	20 e0       	ldi	r18, 0x00	; 0
    5f5e:	30 e0       	ldi	r19, 0x00	; 0
    5f60:	40 e8       	ldi	r20, 0x80	; 128
    5f62:	5f e3       	ldi	r21, 0x3F	; 63
    5f64:	fc 01       	movw	r30, r24
    5f66:	60 81       	ld	r22, Z
    5f68:	71 81       	ldd	r23, Z+1	; 0x01
    5f6a:	82 81       	ldd	r24, Z+2	; 0x02
    5f6c:	93 81       	ldd	r25, Z+3	; 0x03
    5f6e:	0e 94 e4 4f 	call	0x9fc8	; 0x9fc8 <__cmpsf2>
    5f72:	88 23       	and	r24, r24
    5f74:	4c f4       	brge	.+18     	; 0x5f88 <__stack+0x3d89>
    5f76:	ce 01       	movw	r24, r28
    5f78:	87 52       	subi	r24, 0x27	; 39
    5f7a:	9d 4f       	sbci	r25, 0xFD	; 253
    5f7c:	21 e0       	ldi	r18, 0x01	; 1
    5f7e:	30 e0       	ldi	r19, 0x00	; 0
    5f80:	fc 01       	movw	r30, r24
    5f82:	31 83       	std	Z+1, r19	; 0x01
    5f84:	20 83       	st	Z, r18
    5f86:	6d c0       	rjmp	.+218    	; 0x6062 <__stack+0x3e63>
    5f88:	ce 01       	movw	r24, r28
    5f8a:	8b 52       	subi	r24, 0x2B	; 43
    5f8c:	9d 4f       	sbci	r25, 0xFD	; 253
    5f8e:	20 e0       	ldi	r18, 0x00	; 0
    5f90:	3f ef       	ldi	r19, 0xFF	; 255
    5f92:	4f e7       	ldi	r20, 0x7F	; 127
    5f94:	57 e4       	ldi	r21, 0x47	; 71
    5f96:	fc 01       	movw	r30, r24
    5f98:	60 81       	ld	r22, Z
    5f9a:	71 81       	ldd	r23, Z+1	; 0x01
    5f9c:	82 81       	ldd	r24, Z+2	; 0x02
    5f9e:	93 81       	ldd	r25, Z+3	; 0x03
    5fa0:	0e 94 61 50 	call	0xa0c2	; 0xa0c2 <__gesf2>
    5fa4:	18 16       	cp	r1, r24
    5fa6:	0c f0       	brlt	.+2      	; 0x5faa <__stack+0x3dab>
    5fa8:	4a c0       	rjmp	.+148    	; 0x603e <__stack+0x3e3f>
    5faa:	ce 01       	movw	r24, r28
    5fac:	85 55       	subi	r24, 0x55	; 85
    5fae:	9f 4f       	sbci	r25, 0xFF	; 255
    5fb0:	20 e0       	ldi	r18, 0x00	; 0
    5fb2:	30 e0       	ldi	r19, 0x00	; 0
    5fb4:	40 e2       	ldi	r20, 0x20	; 32
    5fb6:	51 e4       	ldi	r21, 0x41	; 65
    5fb8:	fc 01       	movw	r30, r24
    5fba:	60 81       	ld	r22, Z
    5fbc:	71 81       	ldd	r23, Z+1	; 0x01
    5fbe:	82 81       	ldd	r24, Z+2	; 0x02
    5fc0:	93 81       	ldd	r25, Z+3	; 0x03
    5fc2:	0e 94 65 50 	call	0xa0ca	; 0xa0ca <__mulsf3>
    5fc6:	dc 01       	movw	r26, r24
    5fc8:	cb 01       	movw	r24, r22
    5fca:	8e 01       	movw	r16, r28
    5fcc:	07 52       	subi	r16, 0x27	; 39
    5fce:	1d 4f       	sbci	r17, 0xFD	; 253
    5fd0:	bc 01       	movw	r22, r24
    5fd2:	cd 01       	movw	r24, r26
    5fd4:	0e 94 e8 4f 	call	0x9fd0	; 0x9fd0 <__fixunssfsi>
    5fd8:	dc 01       	movw	r26, r24
    5fda:	cb 01       	movw	r24, r22
    5fdc:	f8 01       	movw	r30, r16
    5fde:	91 83       	std	Z+1, r25	; 0x01
    5fe0:	80 83       	st	Z, r24
    5fe2:	24 c0       	rjmp	.+72     	; 0x602c <__stack+0x3e2d>
    5fe4:	ce 01       	movw	r24, r28
    5fe6:	85 52       	subi	r24, 0x25	; 37
    5fe8:	9d 4f       	sbci	r25, 0xFD	; 253
    5fea:	20 e7       	ldi	r18, 0x70	; 112
    5fec:	31 e0       	ldi	r19, 0x01	; 1
    5fee:	fc 01       	movw	r30, r24
    5ff0:	31 83       	std	Z+1, r19	; 0x01
    5ff2:	20 83       	st	Z, r18
    5ff4:	ce 01       	movw	r24, r28
    5ff6:	85 52       	subi	r24, 0x25	; 37
    5ff8:	9d 4f       	sbci	r25, 0xFD	; 253
    5ffa:	fc 01       	movw	r30, r24
    5ffc:	80 81       	ld	r24, Z
    5ffe:	91 81       	ldd	r25, Z+1	; 0x01
    6000:	01 97       	sbiw	r24, 0x01	; 1
    6002:	f1 f7       	brne	.-4      	; 0x6000 <__stack+0x3e01>
    6004:	9e 01       	movw	r18, r28
    6006:	25 52       	subi	r18, 0x25	; 37
    6008:	3d 4f       	sbci	r19, 0xFD	; 253
    600a:	f9 01       	movw	r30, r18
    600c:	91 83       	std	Z+1, r25	; 0x01
    600e:	80 83       	st	Z, r24
    6010:	ce 01       	movw	r24, r28
    6012:	87 52       	subi	r24, 0x27	; 39
    6014:	9d 4f       	sbci	r25, 0xFD	; 253
    6016:	9e 01       	movw	r18, r28
    6018:	27 52       	subi	r18, 0x27	; 39
    601a:	3d 4f       	sbci	r19, 0xFD	; 253
    601c:	f9 01       	movw	r30, r18
    601e:	20 81       	ld	r18, Z
    6020:	31 81       	ldd	r19, Z+1	; 0x01
    6022:	21 50       	subi	r18, 0x01	; 1
    6024:	31 09       	sbc	r19, r1
    6026:	fc 01       	movw	r30, r24
    6028:	31 83       	std	Z+1, r19	; 0x01
    602a:	20 83       	st	Z, r18
    602c:	ce 01       	movw	r24, r28
    602e:	87 52       	subi	r24, 0x27	; 39
    6030:	9d 4f       	sbci	r25, 0xFD	; 253
    6032:	fc 01       	movw	r30, r24
    6034:	80 81       	ld	r24, Z
    6036:	91 81       	ldd	r25, Z+1	; 0x01
    6038:	89 2b       	or	r24, r25
    603a:	a1 f6       	brne	.-88     	; 0x5fe4 <__stack+0x3de5>
    603c:	2c c0       	rjmp	.+88     	; 0x6096 <__stack+0x3e97>
    603e:	8e 01       	movw	r16, r28
    6040:	07 52       	subi	r16, 0x27	; 39
    6042:	1d 4f       	sbci	r17, 0xFD	; 253
    6044:	ce 01       	movw	r24, r28
    6046:	8b 52       	subi	r24, 0x2B	; 43
    6048:	9d 4f       	sbci	r25, 0xFD	; 253
    604a:	fc 01       	movw	r30, r24
    604c:	60 81       	ld	r22, Z
    604e:	71 81       	ldd	r23, Z+1	; 0x01
    6050:	82 81       	ldd	r24, Z+2	; 0x02
    6052:	93 81       	ldd	r25, Z+3	; 0x03
    6054:	0e 94 e8 4f 	call	0x9fd0	; 0x9fd0 <__fixunssfsi>
    6058:	dc 01       	movw	r26, r24
    605a:	cb 01       	movw	r24, r22
    605c:	f8 01       	movw	r30, r16
    605e:	91 83       	std	Z+1, r25	; 0x01
    6060:	80 83       	st	Z, r24
    6062:	ce 01       	movw	r24, r28
    6064:	83 52       	subi	r24, 0x23	; 35
    6066:	9d 4f       	sbci	r25, 0xFD	; 253
    6068:	9e 01       	movw	r18, r28
    606a:	27 52       	subi	r18, 0x27	; 39
    606c:	3d 4f       	sbci	r19, 0xFD	; 253
    606e:	f9 01       	movw	r30, r18
    6070:	20 81       	ld	r18, Z
    6072:	31 81       	ldd	r19, Z+1	; 0x01
    6074:	fc 01       	movw	r30, r24
    6076:	31 83       	std	Z+1, r19	; 0x01
    6078:	20 83       	st	Z, r18
    607a:	ce 01       	movw	r24, r28
    607c:	83 52       	subi	r24, 0x23	; 35
    607e:	9d 4f       	sbci	r25, 0xFD	; 253
    6080:	fc 01       	movw	r30, r24
    6082:	80 81       	ld	r24, Z
    6084:	91 81       	ldd	r25, Z+1	; 0x01
    6086:	01 97       	sbiw	r24, 0x01	; 1
    6088:	f1 f7       	brne	.-4      	; 0x6086 <__stack+0x3e87>
    608a:	9e 01       	movw	r18, r28
    608c:	23 52       	subi	r18, 0x23	; 35
    608e:	3d 4f       	sbci	r19, 0xFD	; 253
    6090:	f9 01       	movw	r30, r18
    6092:	91 83       	std	Z+1, r25	; 0x01
    6094:	80 83       	st	Z, r24
    6096:	0e 94 0c 0d 	call	0x1a18	; 0x1a18 <buzzer_on>
    609a:	9e 01       	movw	r18, r28
    609c:	21 55       	subi	r18, 0x51	; 81
    609e:	3f 4f       	sbci	r19, 0xFF	; 255
    60a0:	80 e0       	ldi	r24, 0x00	; 0
    60a2:	90 e0       	ldi	r25, 0x00	; 0
    60a4:	a8 ec       	ldi	r26, 0xC8	; 200
    60a6:	b2 e4       	ldi	r27, 0x42	; 66
    60a8:	f9 01       	movw	r30, r18
    60aa:	80 83       	st	Z, r24
    60ac:	91 83       	std	Z+1, r25	; 0x01
    60ae:	a2 83       	std	Z+2, r26	; 0x02
    60b0:	b3 83       	std	Z+3, r27	; 0x03
    60b2:	8e 01       	movw	r16, r28
    60b4:	05 53       	subi	r16, 0x35	; 53
    60b6:	1d 4f       	sbci	r17, 0xFD	; 253
    60b8:	ce 01       	movw	r24, r28
    60ba:	81 55       	subi	r24, 0x51	; 81
    60bc:	9f 4f       	sbci	r25, 0xFF	; 255
    60be:	26 e6       	ldi	r18, 0x66	; 102
    60c0:	36 e6       	ldi	r19, 0x66	; 102
    60c2:	46 e6       	ldi	r20, 0x66	; 102
    60c4:	55 e4       	ldi	r21, 0x45	; 69
    60c6:	fc 01       	movw	r30, r24
    60c8:	60 81       	ld	r22, Z
    60ca:	71 81       	ldd	r23, Z+1	; 0x01
    60cc:	82 81       	ldd	r24, Z+2	; 0x02
    60ce:	93 81       	ldd	r25, Z+3	; 0x03
    60d0:	0e 94 65 50 	call	0xa0ca	; 0xa0ca <__mulsf3>
    60d4:	dc 01       	movw	r26, r24
    60d6:	cb 01       	movw	r24, r22
    60d8:	f8 01       	movw	r30, r16
    60da:	80 83       	st	Z, r24
    60dc:	91 83       	std	Z+1, r25	; 0x01
    60de:	a2 83       	std	Z+2, r26	; 0x02
    60e0:	b3 83       	std	Z+3, r27	; 0x03
    60e2:	ce 01       	movw	r24, r28
    60e4:	85 53       	subi	r24, 0x35	; 53
    60e6:	9d 4f       	sbci	r25, 0xFD	; 253
    60e8:	20 e0       	ldi	r18, 0x00	; 0
    60ea:	30 e0       	ldi	r19, 0x00	; 0
    60ec:	40 e8       	ldi	r20, 0x80	; 128
    60ee:	5f e3       	ldi	r21, 0x3F	; 63
    60f0:	fc 01       	movw	r30, r24
    60f2:	60 81       	ld	r22, Z
    60f4:	71 81       	ldd	r23, Z+1	; 0x01
    60f6:	82 81       	ldd	r24, Z+2	; 0x02
    60f8:	93 81       	ldd	r25, Z+3	; 0x03
    60fa:	0e 94 e4 4f 	call	0x9fc8	; 0x9fc8 <__cmpsf2>
    60fe:	88 23       	and	r24, r24
    6100:	4c f4       	brge	.+18     	; 0x6114 <__stack+0x3f15>
    6102:	ce 01       	movw	r24, r28
    6104:	81 53       	subi	r24, 0x31	; 49
    6106:	9d 4f       	sbci	r25, 0xFD	; 253
    6108:	21 e0       	ldi	r18, 0x01	; 1
    610a:	30 e0       	ldi	r19, 0x00	; 0
    610c:	fc 01       	movw	r30, r24
    610e:	31 83       	std	Z+1, r19	; 0x01
    6110:	20 83       	st	Z, r18
    6112:	6d c0       	rjmp	.+218    	; 0x61ee <__stack+0x3fef>
    6114:	ce 01       	movw	r24, r28
    6116:	85 53       	subi	r24, 0x35	; 53
    6118:	9d 4f       	sbci	r25, 0xFD	; 253
    611a:	20 e0       	ldi	r18, 0x00	; 0
    611c:	3f ef       	ldi	r19, 0xFF	; 255
    611e:	4f e7       	ldi	r20, 0x7F	; 127
    6120:	57 e4       	ldi	r21, 0x47	; 71
    6122:	fc 01       	movw	r30, r24
    6124:	60 81       	ld	r22, Z
    6126:	71 81       	ldd	r23, Z+1	; 0x01
    6128:	82 81       	ldd	r24, Z+2	; 0x02
    612a:	93 81       	ldd	r25, Z+3	; 0x03
    612c:	0e 94 61 50 	call	0xa0c2	; 0xa0c2 <__gesf2>
    6130:	18 16       	cp	r1, r24
    6132:	0c f0       	brlt	.+2      	; 0x6136 <__stack+0x3f37>
    6134:	4a c0       	rjmp	.+148    	; 0x61ca <__stack+0x3fcb>
    6136:	ce 01       	movw	r24, r28
    6138:	81 55       	subi	r24, 0x51	; 81
    613a:	9f 4f       	sbci	r25, 0xFF	; 255
    613c:	20 e0       	ldi	r18, 0x00	; 0
    613e:	30 e0       	ldi	r19, 0x00	; 0
    6140:	40 e2       	ldi	r20, 0x20	; 32
    6142:	51 e4       	ldi	r21, 0x41	; 65
    6144:	fc 01       	movw	r30, r24
    6146:	60 81       	ld	r22, Z
    6148:	71 81       	ldd	r23, Z+1	; 0x01
    614a:	82 81       	ldd	r24, Z+2	; 0x02
    614c:	93 81       	ldd	r25, Z+3	; 0x03
    614e:	0e 94 65 50 	call	0xa0ca	; 0xa0ca <__mulsf3>
    6152:	dc 01       	movw	r26, r24
    6154:	cb 01       	movw	r24, r22
    6156:	8e 01       	movw	r16, r28
    6158:	01 53       	subi	r16, 0x31	; 49
    615a:	1d 4f       	sbci	r17, 0xFD	; 253
    615c:	bc 01       	movw	r22, r24
    615e:	cd 01       	movw	r24, r26
    6160:	0e 94 e8 4f 	call	0x9fd0	; 0x9fd0 <__fixunssfsi>
    6164:	dc 01       	movw	r26, r24
    6166:	cb 01       	movw	r24, r22
    6168:	f8 01       	movw	r30, r16
    616a:	91 83       	std	Z+1, r25	; 0x01
    616c:	80 83       	st	Z, r24
    616e:	24 c0       	rjmp	.+72     	; 0x61b8 <__stack+0x3fb9>
    6170:	ce 01       	movw	r24, r28
    6172:	8f 52       	subi	r24, 0x2F	; 47
    6174:	9d 4f       	sbci	r25, 0xFD	; 253
    6176:	20 e7       	ldi	r18, 0x70	; 112
    6178:	31 e0       	ldi	r19, 0x01	; 1
    617a:	fc 01       	movw	r30, r24
    617c:	31 83       	std	Z+1, r19	; 0x01
    617e:	20 83       	st	Z, r18
    6180:	ce 01       	movw	r24, r28
    6182:	8f 52       	subi	r24, 0x2F	; 47
    6184:	9d 4f       	sbci	r25, 0xFD	; 253
    6186:	fc 01       	movw	r30, r24
    6188:	80 81       	ld	r24, Z
    618a:	91 81       	ldd	r25, Z+1	; 0x01
    618c:	01 97       	sbiw	r24, 0x01	; 1
    618e:	f1 f7       	brne	.-4      	; 0x618c <__stack+0x3f8d>
    6190:	9e 01       	movw	r18, r28
    6192:	2f 52       	subi	r18, 0x2F	; 47
    6194:	3d 4f       	sbci	r19, 0xFD	; 253
    6196:	f9 01       	movw	r30, r18
    6198:	91 83       	std	Z+1, r25	; 0x01
    619a:	80 83       	st	Z, r24
    619c:	ce 01       	movw	r24, r28
    619e:	81 53       	subi	r24, 0x31	; 49
    61a0:	9d 4f       	sbci	r25, 0xFD	; 253
    61a2:	9e 01       	movw	r18, r28
    61a4:	21 53       	subi	r18, 0x31	; 49
    61a6:	3d 4f       	sbci	r19, 0xFD	; 253
    61a8:	f9 01       	movw	r30, r18
    61aa:	20 81       	ld	r18, Z
    61ac:	31 81       	ldd	r19, Z+1	; 0x01
    61ae:	21 50       	subi	r18, 0x01	; 1
    61b0:	31 09       	sbc	r19, r1
    61b2:	fc 01       	movw	r30, r24
    61b4:	31 83       	std	Z+1, r19	; 0x01
    61b6:	20 83       	st	Z, r18
    61b8:	ce 01       	movw	r24, r28
    61ba:	81 53       	subi	r24, 0x31	; 49
    61bc:	9d 4f       	sbci	r25, 0xFD	; 253
    61be:	fc 01       	movw	r30, r24
    61c0:	80 81       	ld	r24, Z
    61c2:	91 81       	ldd	r25, Z+1	; 0x01
    61c4:	89 2b       	or	r24, r25
    61c6:	a1 f6       	brne	.-88     	; 0x6170 <__stack+0x3f71>
    61c8:	2c c0       	rjmp	.+88     	; 0x6222 <__stack+0x4023>
    61ca:	8e 01       	movw	r16, r28
    61cc:	01 53       	subi	r16, 0x31	; 49
    61ce:	1d 4f       	sbci	r17, 0xFD	; 253
    61d0:	ce 01       	movw	r24, r28
    61d2:	85 53       	subi	r24, 0x35	; 53
    61d4:	9d 4f       	sbci	r25, 0xFD	; 253
    61d6:	fc 01       	movw	r30, r24
    61d8:	60 81       	ld	r22, Z
    61da:	71 81       	ldd	r23, Z+1	; 0x01
    61dc:	82 81       	ldd	r24, Z+2	; 0x02
    61de:	93 81       	ldd	r25, Z+3	; 0x03
    61e0:	0e 94 e8 4f 	call	0x9fd0	; 0x9fd0 <__fixunssfsi>
    61e4:	dc 01       	movw	r26, r24
    61e6:	cb 01       	movw	r24, r22
    61e8:	f8 01       	movw	r30, r16
    61ea:	91 83       	std	Z+1, r25	; 0x01
    61ec:	80 83       	st	Z, r24
    61ee:	ce 01       	movw	r24, r28
    61f0:	8d 52       	subi	r24, 0x2D	; 45
    61f2:	9d 4f       	sbci	r25, 0xFD	; 253
    61f4:	9e 01       	movw	r18, r28
    61f6:	21 53       	subi	r18, 0x31	; 49
    61f8:	3d 4f       	sbci	r19, 0xFD	; 253
    61fa:	f9 01       	movw	r30, r18
    61fc:	20 81       	ld	r18, Z
    61fe:	31 81       	ldd	r19, Z+1	; 0x01
    6200:	fc 01       	movw	r30, r24
    6202:	31 83       	std	Z+1, r19	; 0x01
    6204:	20 83       	st	Z, r18
    6206:	ce 01       	movw	r24, r28
    6208:	8d 52       	subi	r24, 0x2D	; 45
    620a:	9d 4f       	sbci	r25, 0xFD	; 253
    620c:	fc 01       	movw	r30, r24
    620e:	80 81       	ld	r24, Z
    6210:	91 81       	ldd	r25, Z+1	; 0x01
    6212:	01 97       	sbiw	r24, 0x01	; 1
    6214:	f1 f7       	brne	.-4      	; 0x6212 <__stack+0x4013>
    6216:	9e 01       	movw	r18, r28
    6218:	2d 52       	subi	r18, 0x2D	; 45
    621a:	3d 4f       	sbci	r19, 0xFD	; 253
    621c:	f9 01       	movw	r30, r18
    621e:	91 83       	std	Z+1, r25	; 0x01
    6220:	80 83       	st	Z, r24
    6222:	0e 94 1d 0d 	call	0x1a3a	; 0x1a3a <buzzer_off>
    6226:	9e 01       	movw	r18, r28
    6228:	2d 54       	subi	r18, 0x4D	; 77
    622a:	3f 4f       	sbci	r19, 0xFF	; 255
    622c:	80 e0       	ldi	r24, 0x00	; 0
    622e:	90 e0       	ldi	r25, 0x00	; 0
    6230:	a8 e4       	ldi	r26, 0x48	; 72
    6232:	b2 e4       	ldi	r27, 0x42	; 66
    6234:	f9 01       	movw	r30, r18
    6236:	80 83       	st	Z, r24
    6238:	91 83       	std	Z+1, r25	; 0x01
    623a:	a2 83       	std	Z+2, r26	; 0x02
    623c:	b3 83       	std	Z+3, r27	; 0x03
    623e:	8e 01       	movw	r16, r28
    6240:	0f 53       	subi	r16, 0x3F	; 63
    6242:	1d 4f       	sbci	r17, 0xFD	; 253
    6244:	ce 01       	movw	r24, r28
    6246:	8d 54       	subi	r24, 0x4D	; 77
    6248:	9f 4f       	sbci	r25, 0xFF	; 255
    624a:	26 e6       	ldi	r18, 0x66	; 102
    624c:	36 e6       	ldi	r19, 0x66	; 102
    624e:	46 e6       	ldi	r20, 0x66	; 102
    6250:	55 e4       	ldi	r21, 0x45	; 69
    6252:	fc 01       	movw	r30, r24
    6254:	60 81       	ld	r22, Z
    6256:	71 81       	ldd	r23, Z+1	; 0x01
    6258:	82 81       	ldd	r24, Z+2	; 0x02
    625a:	93 81       	ldd	r25, Z+3	; 0x03
    625c:	0e 94 65 50 	call	0xa0ca	; 0xa0ca <__mulsf3>
    6260:	dc 01       	movw	r26, r24
    6262:	cb 01       	movw	r24, r22
    6264:	f8 01       	movw	r30, r16
    6266:	80 83       	st	Z, r24
    6268:	91 83       	std	Z+1, r25	; 0x01
    626a:	a2 83       	std	Z+2, r26	; 0x02
    626c:	b3 83       	std	Z+3, r27	; 0x03
    626e:	ce 01       	movw	r24, r28
    6270:	8f 53       	subi	r24, 0x3F	; 63
    6272:	9d 4f       	sbci	r25, 0xFD	; 253
    6274:	20 e0       	ldi	r18, 0x00	; 0
    6276:	30 e0       	ldi	r19, 0x00	; 0
    6278:	40 e8       	ldi	r20, 0x80	; 128
    627a:	5f e3       	ldi	r21, 0x3F	; 63
    627c:	fc 01       	movw	r30, r24
    627e:	60 81       	ld	r22, Z
    6280:	71 81       	ldd	r23, Z+1	; 0x01
    6282:	82 81       	ldd	r24, Z+2	; 0x02
    6284:	93 81       	ldd	r25, Z+3	; 0x03
    6286:	0e 94 e4 4f 	call	0x9fc8	; 0x9fc8 <__cmpsf2>
    628a:	88 23       	and	r24, r24
    628c:	4c f4       	brge	.+18     	; 0x62a0 <__stack+0x40a1>
    628e:	ce 01       	movw	r24, r28
    6290:	8b 53       	subi	r24, 0x3B	; 59
    6292:	9d 4f       	sbci	r25, 0xFD	; 253
    6294:	21 e0       	ldi	r18, 0x01	; 1
    6296:	30 e0       	ldi	r19, 0x00	; 0
    6298:	fc 01       	movw	r30, r24
    629a:	31 83       	std	Z+1, r19	; 0x01
    629c:	20 83       	st	Z, r18
    629e:	6d c0       	rjmp	.+218    	; 0x637a <__stack+0x417b>
    62a0:	ce 01       	movw	r24, r28
    62a2:	8f 53       	subi	r24, 0x3F	; 63
    62a4:	9d 4f       	sbci	r25, 0xFD	; 253
    62a6:	20 e0       	ldi	r18, 0x00	; 0
    62a8:	3f ef       	ldi	r19, 0xFF	; 255
    62aa:	4f e7       	ldi	r20, 0x7F	; 127
    62ac:	57 e4       	ldi	r21, 0x47	; 71
    62ae:	fc 01       	movw	r30, r24
    62b0:	60 81       	ld	r22, Z
    62b2:	71 81       	ldd	r23, Z+1	; 0x01
    62b4:	82 81       	ldd	r24, Z+2	; 0x02
    62b6:	93 81       	ldd	r25, Z+3	; 0x03
    62b8:	0e 94 61 50 	call	0xa0c2	; 0xa0c2 <__gesf2>
    62bc:	18 16       	cp	r1, r24
    62be:	0c f0       	brlt	.+2      	; 0x62c2 <__stack+0x40c3>
    62c0:	4a c0       	rjmp	.+148    	; 0x6356 <__stack+0x4157>
    62c2:	ce 01       	movw	r24, r28
    62c4:	8d 54       	subi	r24, 0x4D	; 77
    62c6:	9f 4f       	sbci	r25, 0xFF	; 255
    62c8:	20 e0       	ldi	r18, 0x00	; 0
    62ca:	30 e0       	ldi	r19, 0x00	; 0
    62cc:	40 e2       	ldi	r20, 0x20	; 32
    62ce:	51 e4       	ldi	r21, 0x41	; 65
    62d0:	fc 01       	movw	r30, r24
    62d2:	60 81       	ld	r22, Z
    62d4:	71 81       	ldd	r23, Z+1	; 0x01
    62d6:	82 81       	ldd	r24, Z+2	; 0x02
    62d8:	93 81       	ldd	r25, Z+3	; 0x03
    62da:	0e 94 65 50 	call	0xa0ca	; 0xa0ca <__mulsf3>
    62de:	dc 01       	movw	r26, r24
    62e0:	cb 01       	movw	r24, r22
    62e2:	8e 01       	movw	r16, r28
    62e4:	0b 53       	subi	r16, 0x3B	; 59
    62e6:	1d 4f       	sbci	r17, 0xFD	; 253
    62e8:	bc 01       	movw	r22, r24
    62ea:	cd 01       	movw	r24, r26
    62ec:	0e 94 e8 4f 	call	0x9fd0	; 0x9fd0 <__fixunssfsi>
    62f0:	dc 01       	movw	r26, r24
    62f2:	cb 01       	movw	r24, r22
    62f4:	f8 01       	movw	r30, r16
    62f6:	91 83       	std	Z+1, r25	; 0x01
    62f8:	80 83       	st	Z, r24
    62fa:	24 c0       	rjmp	.+72     	; 0x6344 <__stack+0x4145>
    62fc:	ce 01       	movw	r24, r28
    62fe:	89 53       	subi	r24, 0x39	; 57
    6300:	9d 4f       	sbci	r25, 0xFD	; 253
    6302:	20 e7       	ldi	r18, 0x70	; 112
    6304:	31 e0       	ldi	r19, 0x01	; 1
    6306:	fc 01       	movw	r30, r24
    6308:	31 83       	std	Z+1, r19	; 0x01
    630a:	20 83       	st	Z, r18
    630c:	ce 01       	movw	r24, r28
    630e:	89 53       	subi	r24, 0x39	; 57
    6310:	9d 4f       	sbci	r25, 0xFD	; 253
    6312:	fc 01       	movw	r30, r24
    6314:	80 81       	ld	r24, Z
    6316:	91 81       	ldd	r25, Z+1	; 0x01
    6318:	01 97       	sbiw	r24, 0x01	; 1
    631a:	f1 f7       	brne	.-4      	; 0x6318 <__stack+0x4119>
    631c:	9e 01       	movw	r18, r28
    631e:	29 53       	subi	r18, 0x39	; 57
    6320:	3d 4f       	sbci	r19, 0xFD	; 253
    6322:	f9 01       	movw	r30, r18
    6324:	91 83       	std	Z+1, r25	; 0x01
    6326:	80 83       	st	Z, r24
    6328:	ce 01       	movw	r24, r28
    632a:	8b 53       	subi	r24, 0x3B	; 59
    632c:	9d 4f       	sbci	r25, 0xFD	; 253
    632e:	9e 01       	movw	r18, r28
    6330:	2b 53       	subi	r18, 0x3B	; 59
    6332:	3d 4f       	sbci	r19, 0xFD	; 253
    6334:	f9 01       	movw	r30, r18
    6336:	20 81       	ld	r18, Z
    6338:	31 81       	ldd	r19, Z+1	; 0x01
    633a:	21 50       	subi	r18, 0x01	; 1
    633c:	31 09       	sbc	r19, r1
    633e:	fc 01       	movw	r30, r24
    6340:	31 83       	std	Z+1, r19	; 0x01
    6342:	20 83       	st	Z, r18
    6344:	ce 01       	movw	r24, r28
    6346:	8b 53       	subi	r24, 0x3B	; 59
    6348:	9d 4f       	sbci	r25, 0xFD	; 253
    634a:	fc 01       	movw	r30, r24
    634c:	80 81       	ld	r24, Z
    634e:	91 81       	ldd	r25, Z+1	; 0x01
    6350:	89 2b       	or	r24, r25
    6352:	a1 f6       	brne	.-88     	; 0x62fc <__stack+0x40fd>
    6354:	2c c0       	rjmp	.+88     	; 0x63ae <__stack+0x41af>
    6356:	8e 01       	movw	r16, r28
    6358:	0b 53       	subi	r16, 0x3B	; 59
    635a:	1d 4f       	sbci	r17, 0xFD	; 253
    635c:	ce 01       	movw	r24, r28
    635e:	8f 53       	subi	r24, 0x3F	; 63
    6360:	9d 4f       	sbci	r25, 0xFD	; 253
    6362:	fc 01       	movw	r30, r24
    6364:	60 81       	ld	r22, Z
    6366:	71 81       	ldd	r23, Z+1	; 0x01
    6368:	82 81       	ldd	r24, Z+2	; 0x02
    636a:	93 81       	ldd	r25, Z+3	; 0x03
    636c:	0e 94 e8 4f 	call	0x9fd0	; 0x9fd0 <__fixunssfsi>
    6370:	dc 01       	movw	r26, r24
    6372:	cb 01       	movw	r24, r22
    6374:	f8 01       	movw	r30, r16
    6376:	91 83       	std	Z+1, r25	; 0x01
    6378:	80 83       	st	Z, r24
    637a:	ce 01       	movw	r24, r28
    637c:	87 53       	subi	r24, 0x37	; 55
    637e:	9d 4f       	sbci	r25, 0xFD	; 253
    6380:	9e 01       	movw	r18, r28
    6382:	2b 53       	subi	r18, 0x3B	; 59
    6384:	3d 4f       	sbci	r19, 0xFD	; 253
    6386:	f9 01       	movw	r30, r18
    6388:	20 81       	ld	r18, Z
    638a:	31 81       	ldd	r19, Z+1	; 0x01
    638c:	fc 01       	movw	r30, r24
    638e:	31 83       	std	Z+1, r19	; 0x01
    6390:	20 83       	st	Z, r18
    6392:	ce 01       	movw	r24, r28
    6394:	87 53       	subi	r24, 0x37	; 55
    6396:	9d 4f       	sbci	r25, 0xFD	; 253
    6398:	fc 01       	movw	r30, r24
    639a:	80 81       	ld	r24, Z
    639c:	91 81       	ldd	r25, Z+1	; 0x01
    639e:	01 97       	sbiw	r24, 0x01	; 1
    63a0:	f1 f7       	brne	.-4      	; 0x639e <__stack+0x419f>
    63a2:	9e 01       	movw	r18, r28
    63a4:	27 53       	subi	r18, 0x37	; 55
    63a6:	3d 4f       	sbci	r19, 0xFD	; 253
    63a8:	f9 01       	movw	r30, r18
    63aa:	91 83       	std	Z+1, r25	; 0x01
    63ac:	80 83       	st	Z, r24
    63ae:	0e 94 8c 0e 	call	0x1d18	; 0x1d18 <forward>
    63b2:	9e 01       	movw	r18, r28
    63b4:	29 54       	subi	r18, 0x49	; 73
    63b6:	3f 4f       	sbci	r19, 0xFF	; 255
    63b8:	80 e0       	ldi	r24, 0x00	; 0
    63ba:	90 e0       	ldi	r25, 0x00	; 0
    63bc:	a8 ec       	ldi	r26, 0xC8	; 200
    63be:	b3 e4       	ldi	r27, 0x43	; 67
    63c0:	f9 01       	movw	r30, r18
    63c2:	80 83       	st	Z, r24
    63c4:	91 83       	std	Z+1, r25	; 0x01
    63c6:	a2 83       	std	Z+2, r26	; 0x02
    63c8:	b3 83       	std	Z+3, r27	; 0x03
    63ca:	8e 01       	movw	r16, r28
    63cc:	09 54       	subi	r16, 0x49	; 73
    63ce:	1d 4f       	sbci	r17, 0xFD	; 253
    63d0:	ce 01       	movw	r24, r28
    63d2:	89 54       	subi	r24, 0x49	; 73
    63d4:	9f 4f       	sbci	r25, 0xFF	; 255
    63d6:	26 e6       	ldi	r18, 0x66	; 102
    63d8:	36 e6       	ldi	r19, 0x66	; 102
    63da:	46 e6       	ldi	r20, 0x66	; 102
    63dc:	55 e4       	ldi	r21, 0x45	; 69
    63de:	fc 01       	movw	r30, r24
    63e0:	60 81       	ld	r22, Z
    63e2:	71 81       	ldd	r23, Z+1	; 0x01
    63e4:	82 81       	ldd	r24, Z+2	; 0x02
    63e6:	93 81       	ldd	r25, Z+3	; 0x03
    63e8:	0e 94 65 50 	call	0xa0ca	; 0xa0ca <__mulsf3>
    63ec:	dc 01       	movw	r26, r24
    63ee:	cb 01       	movw	r24, r22
    63f0:	f8 01       	movw	r30, r16
    63f2:	80 83       	st	Z, r24
    63f4:	91 83       	std	Z+1, r25	; 0x01
    63f6:	a2 83       	std	Z+2, r26	; 0x02
    63f8:	b3 83       	std	Z+3, r27	; 0x03
    63fa:	ce 01       	movw	r24, r28
    63fc:	89 54       	subi	r24, 0x49	; 73
    63fe:	9d 4f       	sbci	r25, 0xFD	; 253
    6400:	20 e0       	ldi	r18, 0x00	; 0
    6402:	30 e0       	ldi	r19, 0x00	; 0
    6404:	40 e8       	ldi	r20, 0x80	; 128
    6406:	5f e3       	ldi	r21, 0x3F	; 63
    6408:	fc 01       	movw	r30, r24
    640a:	60 81       	ld	r22, Z
    640c:	71 81       	ldd	r23, Z+1	; 0x01
    640e:	82 81       	ldd	r24, Z+2	; 0x02
    6410:	93 81       	ldd	r25, Z+3	; 0x03
    6412:	0e 94 e4 4f 	call	0x9fc8	; 0x9fc8 <__cmpsf2>
    6416:	88 23       	and	r24, r24
    6418:	4c f4       	brge	.+18     	; 0x642c <__stack+0x422d>
    641a:	ce 01       	movw	r24, r28
    641c:	85 54       	subi	r24, 0x45	; 69
    641e:	9d 4f       	sbci	r25, 0xFD	; 253
    6420:	21 e0       	ldi	r18, 0x01	; 1
    6422:	30 e0       	ldi	r19, 0x00	; 0
    6424:	fc 01       	movw	r30, r24
    6426:	31 83       	std	Z+1, r19	; 0x01
    6428:	20 83       	st	Z, r18
    642a:	6d c0       	rjmp	.+218    	; 0x6506 <__stack+0x4307>
    642c:	ce 01       	movw	r24, r28
    642e:	89 54       	subi	r24, 0x49	; 73
    6430:	9d 4f       	sbci	r25, 0xFD	; 253
    6432:	20 e0       	ldi	r18, 0x00	; 0
    6434:	3f ef       	ldi	r19, 0xFF	; 255
    6436:	4f e7       	ldi	r20, 0x7F	; 127
    6438:	57 e4       	ldi	r21, 0x47	; 71
    643a:	fc 01       	movw	r30, r24
    643c:	60 81       	ld	r22, Z
    643e:	71 81       	ldd	r23, Z+1	; 0x01
    6440:	82 81       	ldd	r24, Z+2	; 0x02
    6442:	93 81       	ldd	r25, Z+3	; 0x03
    6444:	0e 94 61 50 	call	0xa0c2	; 0xa0c2 <__gesf2>
    6448:	18 16       	cp	r1, r24
    644a:	0c f0       	brlt	.+2      	; 0x644e <__stack+0x424f>
    644c:	4a c0       	rjmp	.+148    	; 0x64e2 <__stack+0x42e3>
    644e:	ce 01       	movw	r24, r28
    6450:	89 54       	subi	r24, 0x49	; 73
    6452:	9f 4f       	sbci	r25, 0xFF	; 255
    6454:	20 e0       	ldi	r18, 0x00	; 0
    6456:	30 e0       	ldi	r19, 0x00	; 0
    6458:	40 e2       	ldi	r20, 0x20	; 32
    645a:	51 e4       	ldi	r21, 0x41	; 65
    645c:	fc 01       	movw	r30, r24
    645e:	60 81       	ld	r22, Z
    6460:	71 81       	ldd	r23, Z+1	; 0x01
    6462:	82 81       	ldd	r24, Z+2	; 0x02
    6464:	93 81       	ldd	r25, Z+3	; 0x03
    6466:	0e 94 65 50 	call	0xa0ca	; 0xa0ca <__mulsf3>
    646a:	dc 01       	movw	r26, r24
    646c:	cb 01       	movw	r24, r22
    646e:	8e 01       	movw	r16, r28
    6470:	05 54       	subi	r16, 0x45	; 69
    6472:	1d 4f       	sbci	r17, 0xFD	; 253
    6474:	bc 01       	movw	r22, r24
    6476:	cd 01       	movw	r24, r26
    6478:	0e 94 e8 4f 	call	0x9fd0	; 0x9fd0 <__fixunssfsi>
    647c:	dc 01       	movw	r26, r24
    647e:	cb 01       	movw	r24, r22
    6480:	f8 01       	movw	r30, r16
    6482:	91 83       	std	Z+1, r25	; 0x01
    6484:	80 83       	st	Z, r24
    6486:	24 c0       	rjmp	.+72     	; 0x64d0 <__stack+0x42d1>
    6488:	ce 01       	movw	r24, r28
    648a:	83 54       	subi	r24, 0x43	; 67
    648c:	9d 4f       	sbci	r25, 0xFD	; 253
    648e:	20 e7       	ldi	r18, 0x70	; 112
    6490:	31 e0       	ldi	r19, 0x01	; 1
    6492:	fc 01       	movw	r30, r24
    6494:	31 83       	std	Z+1, r19	; 0x01
    6496:	20 83       	st	Z, r18
    6498:	ce 01       	movw	r24, r28
    649a:	83 54       	subi	r24, 0x43	; 67
    649c:	9d 4f       	sbci	r25, 0xFD	; 253
    649e:	fc 01       	movw	r30, r24
    64a0:	80 81       	ld	r24, Z
    64a2:	91 81       	ldd	r25, Z+1	; 0x01
    64a4:	01 97       	sbiw	r24, 0x01	; 1
    64a6:	f1 f7       	brne	.-4      	; 0x64a4 <__stack+0x42a5>
    64a8:	9e 01       	movw	r18, r28
    64aa:	23 54       	subi	r18, 0x43	; 67
    64ac:	3d 4f       	sbci	r19, 0xFD	; 253
    64ae:	f9 01       	movw	r30, r18
    64b0:	91 83       	std	Z+1, r25	; 0x01
    64b2:	80 83       	st	Z, r24
    64b4:	ce 01       	movw	r24, r28
    64b6:	85 54       	subi	r24, 0x45	; 69
    64b8:	9d 4f       	sbci	r25, 0xFD	; 253
    64ba:	9e 01       	movw	r18, r28
    64bc:	25 54       	subi	r18, 0x45	; 69
    64be:	3d 4f       	sbci	r19, 0xFD	; 253
    64c0:	f9 01       	movw	r30, r18
    64c2:	20 81       	ld	r18, Z
    64c4:	31 81       	ldd	r19, Z+1	; 0x01
    64c6:	21 50       	subi	r18, 0x01	; 1
    64c8:	31 09       	sbc	r19, r1
    64ca:	fc 01       	movw	r30, r24
    64cc:	31 83       	std	Z+1, r19	; 0x01
    64ce:	20 83       	st	Z, r18
    64d0:	ce 01       	movw	r24, r28
    64d2:	85 54       	subi	r24, 0x45	; 69
    64d4:	9d 4f       	sbci	r25, 0xFD	; 253
    64d6:	fc 01       	movw	r30, r24
    64d8:	80 81       	ld	r24, Z
    64da:	91 81       	ldd	r25, Z+1	; 0x01
    64dc:	89 2b       	or	r24, r25
    64de:	a1 f6       	brne	.-88     	; 0x6488 <__stack+0x4289>
    64e0:	2c c0       	rjmp	.+88     	; 0x653a <__stack+0x433b>
    64e2:	8e 01       	movw	r16, r28
    64e4:	05 54       	subi	r16, 0x45	; 69
    64e6:	1d 4f       	sbci	r17, 0xFD	; 253
    64e8:	ce 01       	movw	r24, r28
    64ea:	89 54       	subi	r24, 0x49	; 73
    64ec:	9d 4f       	sbci	r25, 0xFD	; 253
    64ee:	fc 01       	movw	r30, r24
    64f0:	60 81       	ld	r22, Z
    64f2:	71 81       	ldd	r23, Z+1	; 0x01
    64f4:	82 81       	ldd	r24, Z+2	; 0x02
    64f6:	93 81       	ldd	r25, Z+3	; 0x03
    64f8:	0e 94 e8 4f 	call	0x9fd0	; 0x9fd0 <__fixunssfsi>
    64fc:	dc 01       	movw	r26, r24
    64fe:	cb 01       	movw	r24, r22
    6500:	f8 01       	movw	r30, r16
    6502:	91 83       	std	Z+1, r25	; 0x01
    6504:	80 83       	st	Z, r24
    6506:	ce 01       	movw	r24, r28
    6508:	81 54       	subi	r24, 0x41	; 65
    650a:	9d 4f       	sbci	r25, 0xFD	; 253
    650c:	9e 01       	movw	r18, r28
    650e:	25 54       	subi	r18, 0x45	; 69
    6510:	3d 4f       	sbci	r19, 0xFD	; 253
    6512:	f9 01       	movw	r30, r18
    6514:	20 81       	ld	r18, Z
    6516:	31 81       	ldd	r19, Z+1	; 0x01
    6518:	fc 01       	movw	r30, r24
    651a:	31 83       	std	Z+1, r19	; 0x01
    651c:	20 83       	st	Z, r18
    651e:	ce 01       	movw	r24, r28
    6520:	81 54       	subi	r24, 0x41	; 65
    6522:	9d 4f       	sbci	r25, 0xFD	; 253
    6524:	fc 01       	movw	r30, r24
    6526:	80 81       	ld	r24, Z
    6528:	91 81       	ldd	r25, Z+1	; 0x01
    652a:	01 97       	sbiw	r24, 0x01	; 1
    652c:	f1 f7       	brne	.-4      	; 0x652a <__stack+0x432b>
    652e:	9e 01       	movw	r18, r28
    6530:	21 54       	subi	r18, 0x41	; 65
    6532:	3d 4f       	sbci	r19, 0xFD	; 253
    6534:	f9 01       	movw	r30, r18
    6536:	91 83       	std	Z+1, r25	; 0x01
    6538:	80 83       	st	Z, r24
    653a:	0e 94 a0 0e 	call	0x1d40	; 0x1d40 <right>
    653e:	9e 01       	movw	r18, r28
    6540:	25 57       	subi	r18, 0x75	; 117
    6542:	3f 4f       	sbci	r19, 0xFF	; 255
    6544:	80 e0       	ldi	r24, 0x00	; 0
    6546:	90 e4       	ldi	r25, 0x40	; 64
    6548:	a3 e0       	ldi	r26, 0x03	; 3
    654a:	b5 e4       	ldi	r27, 0x45	; 69
    654c:	f9 01       	movw	r30, r18
    654e:	80 83       	st	Z, r24
    6550:	91 83       	std	Z+1, r25	; 0x01
    6552:	a2 83       	std	Z+2, r26	; 0x02
    6554:	b3 83       	std	Z+3, r27	; 0x03
    6556:	8e 01       	movw	r16, r28
    6558:	03 55       	subi	r16, 0x53	; 83
    655a:	1d 4f       	sbci	r17, 0xFD	; 253
    655c:	ce 01       	movw	r24, r28
    655e:	85 57       	subi	r24, 0x75	; 117
    6560:	9f 4f       	sbci	r25, 0xFF	; 255
    6562:	26 e6       	ldi	r18, 0x66	; 102
    6564:	36 e6       	ldi	r19, 0x66	; 102
    6566:	46 e6       	ldi	r20, 0x66	; 102
    6568:	55 e4       	ldi	r21, 0x45	; 69
    656a:	fc 01       	movw	r30, r24
    656c:	60 81       	ld	r22, Z
    656e:	71 81       	ldd	r23, Z+1	; 0x01
    6570:	82 81       	ldd	r24, Z+2	; 0x02
    6572:	93 81       	ldd	r25, Z+3	; 0x03
    6574:	0e 94 65 50 	call	0xa0ca	; 0xa0ca <__mulsf3>
    6578:	dc 01       	movw	r26, r24
    657a:	cb 01       	movw	r24, r22
    657c:	f8 01       	movw	r30, r16
    657e:	80 83       	st	Z, r24
    6580:	91 83       	std	Z+1, r25	; 0x01
    6582:	a2 83       	std	Z+2, r26	; 0x02
    6584:	b3 83       	std	Z+3, r27	; 0x03
    6586:	ce 01       	movw	r24, r28
    6588:	83 55       	subi	r24, 0x53	; 83
    658a:	9d 4f       	sbci	r25, 0xFD	; 253
    658c:	20 e0       	ldi	r18, 0x00	; 0
    658e:	30 e0       	ldi	r19, 0x00	; 0
    6590:	40 e8       	ldi	r20, 0x80	; 128
    6592:	5f e3       	ldi	r21, 0x3F	; 63
    6594:	fc 01       	movw	r30, r24
    6596:	60 81       	ld	r22, Z
    6598:	71 81       	ldd	r23, Z+1	; 0x01
    659a:	82 81       	ldd	r24, Z+2	; 0x02
    659c:	93 81       	ldd	r25, Z+3	; 0x03
    659e:	0e 94 e4 4f 	call	0x9fc8	; 0x9fc8 <__cmpsf2>
    65a2:	88 23       	and	r24, r24
    65a4:	4c f4       	brge	.+18     	; 0x65b8 <__stack+0x43b9>
    65a6:	ce 01       	movw	r24, r28
    65a8:	8f 54       	subi	r24, 0x4F	; 79
    65aa:	9d 4f       	sbci	r25, 0xFD	; 253
    65ac:	21 e0       	ldi	r18, 0x01	; 1
    65ae:	30 e0       	ldi	r19, 0x00	; 0
    65b0:	fc 01       	movw	r30, r24
    65b2:	31 83       	std	Z+1, r19	; 0x01
    65b4:	20 83       	st	Z, r18
    65b6:	6d c0       	rjmp	.+218    	; 0x6692 <__stack+0x4493>
    65b8:	ce 01       	movw	r24, r28
    65ba:	83 55       	subi	r24, 0x53	; 83
    65bc:	9d 4f       	sbci	r25, 0xFD	; 253
    65be:	20 e0       	ldi	r18, 0x00	; 0
    65c0:	3f ef       	ldi	r19, 0xFF	; 255
    65c2:	4f e7       	ldi	r20, 0x7F	; 127
    65c4:	57 e4       	ldi	r21, 0x47	; 71
    65c6:	fc 01       	movw	r30, r24
    65c8:	60 81       	ld	r22, Z
    65ca:	71 81       	ldd	r23, Z+1	; 0x01
    65cc:	82 81       	ldd	r24, Z+2	; 0x02
    65ce:	93 81       	ldd	r25, Z+3	; 0x03
    65d0:	0e 94 61 50 	call	0xa0c2	; 0xa0c2 <__gesf2>
    65d4:	18 16       	cp	r1, r24
    65d6:	0c f0       	brlt	.+2      	; 0x65da <__stack+0x43db>
    65d8:	4a c0       	rjmp	.+148    	; 0x666e <__stack+0x446f>
    65da:	ce 01       	movw	r24, r28
    65dc:	85 57       	subi	r24, 0x75	; 117
    65de:	9f 4f       	sbci	r25, 0xFF	; 255
    65e0:	20 e0       	ldi	r18, 0x00	; 0
    65e2:	30 e0       	ldi	r19, 0x00	; 0
    65e4:	40 e2       	ldi	r20, 0x20	; 32
    65e6:	51 e4       	ldi	r21, 0x41	; 65
    65e8:	fc 01       	movw	r30, r24
    65ea:	60 81       	ld	r22, Z
    65ec:	71 81       	ldd	r23, Z+1	; 0x01
    65ee:	82 81       	ldd	r24, Z+2	; 0x02
    65f0:	93 81       	ldd	r25, Z+3	; 0x03
    65f2:	0e 94 65 50 	call	0xa0ca	; 0xa0ca <__mulsf3>
    65f6:	dc 01       	movw	r26, r24
    65f8:	cb 01       	movw	r24, r22
    65fa:	8e 01       	movw	r16, r28
    65fc:	0f 54       	subi	r16, 0x4F	; 79
    65fe:	1d 4f       	sbci	r17, 0xFD	; 253
    6600:	bc 01       	movw	r22, r24
    6602:	cd 01       	movw	r24, r26
    6604:	0e 94 e8 4f 	call	0x9fd0	; 0x9fd0 <__fixunssfsi>
    6608:	dc 01       	movw	r26, r24
    660a:	cb 01       	movw	r24, r22
    660c:	f8 01       	movw	r30, r16
    660e:	91 83       	std	Z+1, r25	; 0x01
    6610:	80 83       	st	Z, r24
    6612:	24 c0       	rjmp	.+72     	; 0x665c <__stack+0x445d>
    6614:	ce 01       	movw	r24, r28
    6616:	8d 54       	subi	r24, 0x4D	; 77
    6618:	9d 4f       	sbci	r25, 0xFD	; 253
    661a:	20 e7       	ldi	r18, 0x70	; 112
    661c:	31 e0       	ldi	r19, 0x01	; 1
    661e:	fc 01       	movw	r30, r24
    6620:	31 83       	std	Z+1, r19	; 0x01
    6622:	20 83       	st	Z, r18
    6624:	ce 01       	movw	r24, r28
    6626:	8d 54       	subi	r24, 0x4D	; 77
    6628:	9d 4f       	sbci	r25, 0xFD	; 253
    662a:	fc 01       	movw	r30, r24
    662c:	80 81       	ld	r24, Z
    662e:	91 81       	ldd	r25, Z+1	; 0x01
    6630:	01 97       	sbiw	r24, 0x01	; 1
    6632:	f1 f7       	brne	.-4      	; 0x6630 <__stack+0x4431>
    6634:	9e 01       	movw	r18, r28
    6636:	2d 54       	subi	r18, 0x4D	; 77
    6638:	3d 4f       	sbci	r19, 0xFD	; 253
    663a:	f9 01       	movw	r30, r18
    663c:	91 83       	std	Z+1, r25	; 0x01
    663e:	80 83       	st	Z, r24
    6640:	ce 01       	movw	r24, r28
    6642:	8f 54       	subi	r24, 0x4F	; 79
    6644:	9d 4f       	sbci	r25, 0xFD	; 253
    6646:	9e 01       	movw	r18, r28
    6648:	2f 54       	subi	r18, 0x4F	; 79
    664a:	3d 4f       	sbci	r19, 0xFD	; 253
    664c:	f9 01       	movw	r30, r18
    664e:	20 81       	ld	r18, Z
    6650:	31 81       	ldd	r19, Z+1	; 0x01
    6652:	21 50       	subi	r18, 0x01	; 1
    6654:	31 09       	sbc	r19, r1
    6656:	fc 01       	movw	r30, r24
    6658:	31 83       	std	Z+1, r19	; 0x01
    665a:	20 83       	st	Z, r18
    665c:	ce 01       	movw	r24, r28
    665e:	8f 54       	subi	r24, 0x4F	; 79
    6660:	9d 4f       	sbci	r25, 0xFD	; 253
    6662:	fc 01       	movw	r30, r24
    6664:	80 81       	ld	r24, Z
    6666:	91 81       	ldd	r25, Z+1	; 0x01
    6668:	89 2b       	or	r24, r25
    666a:	a1 f6       	brne	.-88     	; 0x6614 <__stack+0x4415>
    666c:	2c c0       	rjmp	.+88     	; 0x66c6 <__stack+0x44c7>
    666e:	8e 01       	movw	r16, r28
    6670:	0f 54       	subi	r16, 0x4F	; 79
    6672:	1d 4f       	sbci	r17, 0xFD	; 253
    6674:	ce 01       	movw	r24, r28
    6676:	83 55       	subi	r24, 0x53	; 83
    6678:	9d 4f       	sbci	r25, 0xFD	; 253
    667a:	fc 01       	movw	r30, r24
    667c:	60 81       	ld	r22, Z
    667e:	71 81       	ldd	r23, Z+1	; 0x01
    6680:	82 81       	ldd	r24, Z+2	; 0x02
    6682:	93 81       	ldd	r25, Z+3	; 0x03
    6684:	0e 94 e8 4f 	call	0x9fd0	; 0x9fd0 <__fixunssfsi>
    6688:	dc 01       	movw	r26, r24
    668a:	cb 01       	movw	r24, r22
    668c:	f8 01       	movw	r30, r16
    668e:	91 83       	std	Z+1, r25	; 0x01
    6690:	80 83       	st	Z, r24
    6692:	ce 01       	movw	r24, r28
    6694:	8b 54       	subi	r24, 0x4B	; 75
    6696:	9d 4f       	sbci	r25, 0xFD	; 253
    6698:	9e 01       	movw	r18, r28
    669a:	2f 54       	subi	r18, 0x4F	; 79
    669c:	3d 4f       	sbci	r19, 0xFD	; 253
    669e:	f9 01       	movw	r30, r18
    66a0:	20 81       	ld	r18, Z
    66a2:	31 81       	ldd	r19, Z+1	; 0x01
    66a4:	fc 01       	movw	r30, r24
    66a6:	31 83       	std	Z+1, r19	; 0x01
    66a8:	20 83       	st	Z, r18
    66aa:	ce 01       	movw	r24, r28
    66ac:	8b 54       	subi	r24, 0x4B	; 75
    66ae:	9d 4f       	sbci	r25, 0xFD	; 253
    66b0:	fc 01       	movw	r30, r24
    66b2:	80 81       	ld	r24, Z
    66b4:	91 81       	ldd	r25, Z+1	; 0x01
    66b6:	01 97       	sbiw	r24, 0x01	; 1
    66b8:	f1 f7       	brne	.-4      	; 0x66b6 <__stack+0x44b7>
    66ba:	9e 01       	movw	r18, r28
    66bc:	2b 54       	subi	r18, 0x4B	; 75
    66be:	3d 4f       	sbci	r19, 0xFD	; 253
    66c0:	f9 01       	movw	r30, r18
    66c2:	91 83       	std	Z+1, r25	; 0x01
    66c4:	80 83       	st	Z, r24
    66c6:	0e 94 aa 0e 	call	0x1d54	; 0x1d54 <stop>
    66ca:	88 e6       	ldi	r24, 0x68	; 104
    66cc:	90 e0       	ldi	r25, 0x00	; 0
    66ce:	9a 83       	std	Y+2, r25	; 0x02
    66d0:	89 83       	std	Y+1, r24	; 0x01
    66d2:	89 81       	ldd	r24, Y+1	; 0x01
    66d4:	9a 81       	ldd	r25, Y+2	; 0x02
    66d6:	48 97       	sbiw	r24, 0x18	; 24
    66d8:	09 f0       	breq	.+2      	; 0x66dc <__stack+0x44dd>
    66da:	b5 c3       	rjmp	.+1898   	; 0x6e46 <__stack+0x4c47>
    66dc:	8b 81       	ldd	r24, Y+3	; 0x03
    66de:	9c 81       	ldd	r25, Y+4	; 0x04
    66e0:	48 97       	sbiw	r24, 0x18	; 24
    66e2:	09 f4       	brne	.+2      	; 0x66e6 <__stack+0x44e7>
    66e4:	c0 c9       	rjmp	.-3200   	; 0x5a66 <__stack+0x3867>
    66e6:	af c3       	rjmp	.+1886   	; 0x6e46 <__stack+0x4c47>
    66e8:	83 e0       	ldi	r24, 0x03	; 3
    66ea:	0e 94 f1 0d 	call	0x1be2	; 0x1be2 <ADC_Conversion>
    66ee:	80 93 33 02 	sts	0x0233, r24	; 0x800233 <Left_white_line>
    66f2:	82 e0       	ldi	r24, 0x02	; 2
    66f4:	0e 94 f1 0d 	call	0x1be2	; 0x1be2 <ADC_Conversion>
    66f8:	80 93 34 02 	sts	0x0234, r24	; 0x800234 <Center_white_line>
    66fc:	81 e0       	ldi	r24, 0x01	; 1
    66fe:	0e 94 f1 0d 	call	0x1be2	; 0x1be2 <ADC_Conversion>
    6702:	80 93 35 02 	sts	0x0235, r24	; 0x800235 <Right_white_line>
    6706:	10 92 32 02 	sts	0x0232, r1	; 0x800232 <__data_end>
    670a:	43 e0       	ldi	r20, 0x03	; 3
    670c:	61 e0       	ldi	r22, 0x01	; 1
    670e:	81 e0       	ldi	r24, 0x01	; 1
    6710:	0e 94 35 0e 	call	0x1c6a	; 0x1c6a <print_sensor>
    6714:	42 e0       	ldi	r20, 0x02	; 2
    6716:	65 e0       	ldi	r22, 0x05	; 5
    6718:	81 e0       	ldi	r24, 0x01	; 1
    671a:	0e 94 35 0e 	call	0x1c6a	; 0x1c6a <print_sensor>
    671e:	41 e0       	ldi	r20, 0x01	; 1
    6720:	69 e0       	ldi	r22, 0x09	; 9
    6722:	81 e0       	ldi	r24, 0x01	; 1
    6724:	0e 94 35 0e 	call	0x1c6a	; 0x1c6a <print_sensor>
    6728:	89 81       	ldd	r24, Y+1	; 0x01
    672a:	9a 81       	ldd	r25, Y+2	; 0x02
    672c:	22 e0       	ldi	r18, 0x02	; 2
    672e:	30 e0       	ldi	r19, 0x00	; 0
    6730:	ac 01       	movw	r20, r24
    6732:	67 e0       	ldi	r22, 0x07	; 7
    6734:	82 e0       	ldi	r24, 0x02	; 2
    6736:	0e 94 f7 09 	call	0x13ee	; 0x13ee <lcd_print>
    673a:	80 91 34 02 	lds	r24, 0x0234	; 0x800234 <Center_white_line>
    673e:	88 30       	cpi	r24, 0x08	; 8
    6740:	48 f0       	brcs	.+18     	; 0x6754 <__stack+0x4555>
    6742:	81 e0       	ldi	r24, 0x01	; 1
    6744:	80 93 32 02 	sts	0x0232, r24	; 0x800232 <__data_end>
    6748:	0e 94 8c 0e 	call	0x1d18	; 0x1d18 <forward>
    674c:	60 ea       	ldi	r22, 0xA0	; 160
    674e:	80 ea       	ldi	r24, 0xA0	; 160
    6750:	0e 94 52 0e 	call	0x1ca4	; 0x1ca4 <velocity>
    6754:	80 91 33 02 	lds	r24, 0x0233	; 0x800233 <Left_white_line>
    6758:	87 30       	cpi	r24, 0x07	; 7
    675a:	68 f4       	brcc	.+26     	; 0x6776 <__stack+0x4577>
    675c:	80 91 32 02 	lds	r24, 0x0232	; 0x800232 <__data_end>
    6760:	88 23       	and	r24, r24
    6762:	49 f4       	brne	.+18     	; 0x6776 <__stack+0x4577>
    6764:	81 e0       	ldi	r24, 0x01	; 1
    6766:	80 93 32 02 	sts	0x0232, r24	; 0x800232 <__data_end>
    676a:	0e 94 8c 0e 	call	0x1d18	; 0x1d18 <forward>
    676e:	62 e3       	ldi	r22, 0x32	; 50
    6770:	82 e8       	ldi	r24, 0x82	; 130
    6772:	0e 94 52 0e 	call	0x1ca4	; 0x1ca4 <velocity>
    6776:	80 91 35 02 	lds	r24, 0x0235	; 0x800235 <Right_white_line>
    677a:	88 30       	cpi	r24, 0x08	; 8
    677c:	68 f4       	brcc	.+26     	; 0x6798 <__stack+0x4599>
    677e:	80 91 32 02 	lds	r24, 0x0232	; 0x800232 <__data_end>
    6782:	88 23       	and	r24, r24
    6784:	49 f4       	brne	.+18     	; 0x6798 <__stack+0x4599>
    6786:	81 e0       	ldi	r24, 0x01	; 1
    6788:	80 93 32 02 	sts	0x0232, r24	; 0x800232 <__data_end>
    678c:	0e 94 8c 0e 	call	0x1d18	; 0x1d18 <forward>
    6790:	62 e8       	ldi	r22, 0x82	; 130
    6792:	82 e3       	ldi	r24, 0x32	; 50
    6794:	0e 94 52 0e 	call	0x1ca4	; 0x1ca4 <velocity>
    6798:	80 91 34 02 	lds	r24, 0x0234	; 0x800234 <Center_white_line>
    679c:	8a 30       	cpi	r24, 0x0A	; 10
    679e:	70 f4       	brcc	.+28     	; 0x67bc <__stack+0x45bd>
    67a0:	80 91 33 02 	lds	r24, 0x0233	; 0x800233 <Left_white_line>
    67a4:	8a 30       	cpi	r24, 0x0A	; 10
    67a6:	50 f4       	brcc	.+20     	; 0x67bc <__stack+0x45bd>
    67a8:	80 91 35 02 	lds	r24, 0x0235	; 0x800235 <Right_white_line>
    67ac:	8a 30       	cpi	r24, 0x0A	; 10
    67ae:	30 f4       	brcc	.+12     	; 0x67bc <__stack+0x45bd>
    67b0:	0e 94 8c 0e 	call	0x1d18	; 0x1d18 <forward>
    67b4:	60 ea       	ldi	r22, 0xA0	; 160
    67b6:	80 ea       	ldi	r24, 0xA0	; 160
    67b8:	0e 94 52 0e 	call	0x1ca4	; 0x1ca4 <velocity>
    67bc:	80 91 34 02 	lds	r24, 0x0234	; 0x800234 <Center_white_line>
    67c0:	89 30       	cpi	r24, 0x09	; 9
    67c2:	08 f4       	brcc	.+2      	; 0x67c6 <__stack+0x45c7>
    67c4:	40 c3       	rjmp	.+1664   	; 0x6e46 <__stack+0x4c47>
    67c6:	80 91 33 02 	lds	r24, 0x0233	; 0x800233 <Left_white_line>
    67ca:	89 30       	cpi	r24, 0x09	; 9
    67cc:	08 f4       	brcc	.+2      	; 0x67d0 <__stack+0x45d1>
    67ce:	3b c3       	rjmp	.+1654   	; 0x6e46 <__stack+0x4c47>
    67d0:	80 91 35 02 	lds	r24, 0x0235	; 0x800235 <Right_white_line>
    67d4:	88 30       	cpi	r24, 0x08	; 8
    67d6:	08 f4       	brcc	.+2      	; 0x67da <__stack+0x45db>
    67d8:	36 c3       	rjmp	.+1644   	; 0x6e46 <__stack+0x4c47>
    67da:	89 e0       	ldi	r24, 0x09	; 9
    67dc:	90 e0       	ldi	r25, 0x00	; 0
    67de:	9a 83       	std	Y+2, r25	; 0x02
    67e0:	89 83       	std	Y+1, r24	; 0x01
    67e2:	89 81       	ldd	r24, Y+1	; 0x01
    67e4:	9a 81       	ldd	r25, Y+2	; 0x02
    67e6:	22 e0       	ldi	r18, 0x02	; 2
    67e8:	30 e0       	ldi	r19, 0x00	; 0
    67ea:	ac 01       	movw	r20, r24
    67ec:	67 e0       	ldi	r22, 0x07	; 7
    67ee:	82 e0       	ldi	r24, 0x02	; 2
    67f0:	0e 94 f7 09 	call	0x13ee	; 0x13ee <lcd_print>
    67f4:	89 e0       	ldi	r24, 0x09	; 9
    67f6:	90 e0       	ldi	r25, 0x00	; 0
    67f8:	9c 83       	std	Y+4, r25	; 0x04
    67fa:	8b 83       	std	Y+3, r24	; 0x03
    67fc:	8b 81       	ldd	r24, Y+3	; 0x03
    67fe:	9c 81       	ldd	r25, Y+4	; 0x04
    6800:	22 e0       	ldi	r18, 0x02	; 2
    6802:	30 e0       	ldi	r19, 0x00	; 0
    6804:	ac 01       	movw	r20, r24
    6806:	61 e0       	ldi	r22, 0x01	; 1
    6808:	82 e0       	ldi	r24, 0x02	; 2
    680a:	0e 94 f7 09 	call	0x13ee	; 0x13ee <lcd_print>
    680e:	0e 94 0c 0d 	call	0x1a18	; 0x1a18 <buzzer_on>
    6812:	9e 01       	movw	r18, r28
    6814:	21 54       	subi	r18, 0x41	; 65
    6816:	3f 4f       	sbci	r19, 0xFF	; 255
    6818:	80 e0       	ldi	r24, 0x00	; 0
    681a:	90 e0       	ldi	r25, 0x00	; 0
    681c:	a8 ec       	ldi	r26, 0xC8	; 200
    681e:	b2 e4       	ldi	r27, 0x42	; 66
    6820:	f9 01       	movw	r30, r18
    6822:	80 83       	st	Z, r24
    6824:	91 83       	std	Z+1, r25	; 0x01
    6826:	a2 83       	std	Z+2, r26	; 0x02
    6828:	b3 83       	std	Z+3, r27	; 0x03
    682a:	8e 01       	movw	r16, r28
    682c:	05 5e       	subi	r16, 0xE5	; 229
    682e:	1c 4f       	sbci	r17, 0xFC	; 252
    6830:	ce 01       	movw	r24, r28
    6832:	81 54       	subi	r24, 0x41	; 65
    6834:	9f 4f       	sbci	r25, 0xFF	; 255
    6836:	26 e6       	ldi	r18, 0x66	; 102
    6838:	36 e6       	ldi	r19, 0x66	; 102
    683a:	46 e6       	ldi	r20, 0x66	; 102
    683c:	55 e4       	ldi	r21, 0x45	; 69
    683e:	fc 01       	movw	r30, r24
    6840:	60 81       	ld	r22, Z
    6842:	71 81       	ldd	r23, Z+1	; 0x01
    6844:	82 81       	ldd	r24, Z+2	; 0x02
    6846:	93 81       	ldd	r25, Z+3	; 0x03
    6848:	0e 94 65 50 	call	0xa0ca	; 0xa0ca <__mulsf3>
    684c:	dc 01       	movw	r26, r24
    684e:	cb 01       	movw	r24, r22
    6850:	f8 01       	movw	r30, r16
    6852:	80 83       	st	Z, r24
    6854:	91 83       	std	Z+1, r25	; 0x01
    6856:	a2 83       	std	Z+2, r26	; 0x02
    6858:	b3 83       	std	Z+3, r27	; 0x03
    685a:	ce 01       	movw	r24, r28
    685c:	85 5e       	subi	r24, 0xE5	; 229
    685e:	9c 4f       	sbci	r25, 0xFC	; 252
    6860:	20 e0       	ldi	r18, 0x00	; 0
    6862:	30 e0       	ldi	r19, 0x00	; 0
    6864:	40 e8       	ldi	r20, 0x80	; 128
    6866:	5f e3       	ldi	r21, 0x3F	; 63
    6868:	fc 01       	movw	r30, r24
    686a:	60 81       	ld	r22, Z
    686c:	71 81       	ldd	r23, Z+1	; 0x01
    686e:	82 81       	ldd	r24, Z+2	; 0x02
    6870:	93 81       	ldd	r25, Z+3	; 0x03
    6872:	0e 94 e4 4f 	call	0x9fc8	; 0x9fc8 <__cmpsf2>
    6876:	88 23       	and	r24, r24
    6878:	4c f4       	brge	.+18     	; 0x688c <__stack+0x468d>
    687a:	ce 01       	movw	r24, r28
    687c:	81 5e       	subi	r24, 0xE1	; 225
    687e:	9c 4f       	sbci	r25, 0xFC	; 252
    6880:	21 e0       	ldi	r18, 0x01	; 1
    6882:	30 e0       	ldi	r19, 0x00	; 0
    6884:	fc 01       	movw	r30, r24
    6886:	31 83       	std	Z+1, r19	; 0x01
    6888:	20 83       	st	Z, r18
    688a:	6d c0       	rjmp	.+218    	; 0x6966 <__stack+0x4767>
    688c:	ce 01       	movw	r24, r28
    688e:	85 5e       	subi	r24, 0xE5	; 229
    6890:	9c 4f       	sbci	r25, 0xFC	; 252
    6892:	20 e0       	ldi	r18, 0x00	; 0
    6894:	3f ef       	ldi	r19, 0xFF	; 255
    6896:	4f e7       	ldi	r20, 0x7F	; 127
    6898:	57 e4       	ldi	r21, 0x47	; 71
    689a:	fc 01       	movw	r30, r24
    689c:	60 81       	ld	r22, Z
    689e:	71 81       	ldd	r23, Z+1	; 0x01
    68a0:	82 81       	ldd	r24, Z+2	; 0x02
    68a2:	93 81       	ldd	r25, Z+3	; 0x03
    68a4:	0e 94 61 50 	call	0xa0c2	; 0xa0c2 <__gesf2>
    68a8:	18 16       	cp	r1, r24
    68aa:	0c f0       	brlt	.+2      	; 0x68ae <__stack+0x46af>
    68ac:	4a c0       	rjmp	.+148    	; 0x6942 <__stack+0x4743>
    68ae:	ce 01       	movw	r24, r28
    68b0:	81 54       	subi	r24, 0x41	; 65
    68b2:	9f 4f       	sbci	r25, 0xFF	; 255
    68b4:	20 e0       	ldi	r18, 0x00	; 0
    68b6:	30 e0       	ldi	r19, 0x00	; 0
    68b8:	40 e2       	ldi	r20, 0x20	; 32
    68ba:	51 e4       	ldi	r21, 0x41	; 65
    68bc:	fc 01       	movw	r30, r24
    68be:	60 81       	ld	r22, Z
    68c0:	71 81       	ldd	r23, Z+1	; 0x01
    68c2:	82 81       	ldd	r24, Z+2	; 0x02
    68c4:	93 81       	ldd	r25, Z+3	; 0x03
    68c6:	0e 94 65 50 	call	0xa0ca	; 0xa0ca <__mulsf3>
    68ca:	dc 01       	movw	r26, r24
    68cc:	cb 01       	movw	r24, r22
    68ce:	8e 01       	movw	r16, r28
    68d0:	01 5e       	subi	r16, 0xE1	; 225
    68d2:	1c 4f       	sbci	r17, 0xFC	; 252
    68d4:	bc 01       	movw	r22, r24
    68d6:	cd 01       	movw	r24, r26
    68d8:	0e 94 e8 4f 	call	0x9fd0	; 0x9fd0 <__fixunssfsi>
    68dc:	dc 01       	movw	r26, r24
    68de:	cb 01       	movw	r24, r22
    68e0:	f8 01       	movw	r30, r16
    68e2:	91 83       	std	Z+1, r25	; 0x01
    68e4:	80 83       	st	Z, r24
    68e6:	24 c0       	rjmp	.+72     	; 0x6930 <__stack+0x4731>
    68e8:	ce 01       	movw	r24, r28
    68ea:	8f 5d       	subi	r24, 0xDF	; 223
    68ec:	9c 4f       	sbci	r25, 0xFC	; 252
    68ee:	20 e7       	ldi	r18, 0x70	; 112
    68f0:	31 e0       	ldi	r19, 0x01	; 1
    68f2:	fc 01       	movw	r30, r24
    68f4:	31 83       	std	Z+1, r19	; 0x01
    68f6:	20 83       	st	Z, r18
    68f8:	ce 01       	movw	r24, r28
    68fa:	8f 5d       	subi	r24, 0xDF	; 223
    68fc:	9c 4f       	sbci	r25, 0xFC	; 252
    68fe:	fc 01       	movw	r30, r24
    6900:	80 81       	ld	r24, Z
    6902:	91 81       	ldd	r25, Z+1	; 0x01
    6904:	01 97       	sbiw	r24, 0x01	; 1
    6906:	f1 f7       	brne	.-4      	; 0x6904 <__stack+0x4705>
    6908:	9e 01       	movw	r18, r28
    690a:	2f 5d       	subi	r18, 0xDF	; 223
    690c:	3c 4f       	sbci	r19, 0xFC	; 252
    690e:	f9 01       	movw	r30, r18
    6910:	91 83       	std	Z+1, r25	; 0x01
    6912:	80 83       	st	Z, r24
    6914:	ce 01       	movw	r24, r28
    6916:	81 5e       	subi	r24, 0xE1	; 225
    6918:	9c 4f       	sbci	r25, 0xFC	; 252
    691a:	9e 01       	movw	r18, r28
    691c:	21 5e       	subi	r18, 0xE1	; 225
    691e:	3c 4f       	sbci	r19, 0xFC	; 252
    6920:	f9 01       	movw	r30, r18
    6922:	20 81       	ld	r18, Z
    6924:	31 81       	ldd	r19, Z+1	; 0x01
    6926:	21 50       	subi	r18, 0x01	; 1
    6928:	31 09       	sbc	r19, r1
    692a:	fc 01       	movw	r30, r24
    692c:	31 83       	std	Z+1, r19	; 0x01
    692e:	20 83       	st	Z, r18
    6930:	ce 01       	movw	r24, r28
    6932:	81 5e       	subi	r24, 0xE1	; 225
    6934:	9c 4f       	sbci	r25, 0xFC	; 252
    6936:	fc 01       	movw	r30, r24
    6938:	80 81       	ld	r24, Z
    693a:	91 81       	ldd	r25, Z+1	; 0x01
    693c:	89 2b       	or	r24, r25
    693e:	a1 f6       	brne	.-88     	; 0x68e8 <__stack+0x46e9>
    6940:	2c c0       	rjmp	.+88     	; 0x699a <__stack+0x479b>
    6942:	8e 01       	movw	r16, r28
    6944:	01 5e       	subi	r16, 0xE1	; 225
    6946:	1c 4f       	sbci	r17, 0xFC	; 252
    6948:	ce 01       	movw	r24, r28
    694a:	85 5e       	subi	r24, 0xE5	; 229
    694c:	9c 4f       	sbci	r25, 0xFC	; 252
    694e:	fc 01       	movw	r30, r24
    6950:	60 81       	ld	r22, Z
    6952:	71 81       	ldd	r23, Z+1	; 0x01
    6954:	82 81       	ldd	r24, Z+2	; 0x02
    6956:	93 81       	ldd	r25, Z+3	; 0x03
    6958:	0e 94 e8 4f 	call	0x9fd0	; 0x9fd0 <__fixunssfsi>
    695c:	dc 01       	movw	r26, r24
    695e:	cb 01       	movw	r24, r22
    6960:	f8 01       	movw	r30, r16
    6962:	91 83       	std	Z+1, r25	; 0x01
    6964:	80 83       	st	Z, r24
    6966:	ce 01       	movw	r24, r28
    6968:	8d 5d       	subi	r24, 0xDD	; 221
    696a:	9c 4f       	sbci	r25, 0xFC	; 252
    696c:	9e 01       	movw	r18, r28
    696e:	21 5e       	subi	r18, 0xE1	; 225
    6970:	3c 4f       	sbci	r19, 0xFC	; 252
    6972:	f9 01       	movw	r30, r18
    6974:	20 81       	ld	r18, Z
    6976:	31 81       	ldd	r19, Z+1	; 0x01
    6978:	fc 01       	movw	r30, r24
    697a:	31 83       	std	Z+1, r19	; 0x01
    697c:	20 83       	st	Z, r18
    697e:	ce 01       	movw	r24, r28
    6980:	8d 5d       	subi	r24, 0xDD	; 221
    6982:	9c 4f       	sbci	r25, 0xFC	; 252
    6984:	fc 01       	movw	r30, r24
    6986:	80 81       	ld	r24, Z
    6988:	91 81       	ldd	r25, Z+1	; 0x01
    698a:	01 97       	sbiw	r24, 0x01	; 1
    698c:	f1 f7       	brne	.-4      	; 0x698a <__stack+0x478b>
    698e:	9e 01       	movw	r18, r28
    6990:	2d 5d       	subi	r18, 0xDD	; 221
    6992:	3c 4f       	sbci	r19, 0xFC	; 252
    6994:	f9 01       	movw	r30, r18
    6996:	91 83       	std	Z+1, r25	; 0x01
    6998:	80 83       	st	Z, r24
    699a:	0e 94 1d 0d 	call	0x1a3a	; 0x1a3a <buzzer_off>
    699e:	9e 01       	movw	r18, r28
    69a0:	2d 53       	subi	r18, 0x3D	; 61
    69a2:	3f 4f       	sbci	r19, 0xFF	; 255
    69a4:	80 e0       	ldi	r24, 0x00	; 0
    69a6:	90 e0       	ldi	r25, 0x00	; 0
    69a8:	a8 e4       	ldi	r26, 0x48	; 72
    69aa:	b2 e4       	ldi	r27, 0x42	; 66
    69ac:	f9 01       	movw	r30, r18
    69ae:	80 83       	st	Z, r24
    69b0:	91 83       	std	Z+1, r25	; 0x01
    69b2:	a2 83       	std	Z+2, r26	; 0x02
    69b4:	b3 83       	std	Z+3, r27	; 0x03
    69b6:	8e 01       	movw	r16, r28
    69b8:	0f 5e       	subi	r16, 0xEF	; 239
    69ba:	1c 4f       	sbci	r17, 0xFC	; 252
    69bc:	ce 01       	movw	r24, r28
    69be:	8d 53       	subi	r24, 0x3D	; 61
    69c0:	9f 4f       	sbci	r25, 0xFF	; 255
    69c2:	26 e6       	ldi	r18, 0x66	; 102
    69c4:	36 e6       	ldi	r19, 0x66	; 102
    69c6:	46 e6       	ldi	r20, 0x66	; 102
    69c8:	55 e4       	ldi	r21, 0x45	; 69
    69ca:	fc 01       	movw	r30, r24
    69cc:	60 81       	ld	r22, Z
    69ce:	71 81       	ldd	r23, Z+1	; 0x01
    69d0:	82 81       	ldd	r24, Z+2	; 0x02
    69d2:	93 81       	ldd	r25, Z+3	; 0x03
    69d4:	0e 94 65 50 	call	0xa0ca	; 0xa0ca <__mulsf3>
    69d8:	dc 01       	movw	r26, r24
    69da:	cb 01       	movw	r24, r22
    69dc:	f8 01       	movw	r30, r16
    69de:	80 83       	st	Z, r24
    69e0:	91 83       	std	Z+1, r25	; 0x01
    69e2:	a2 83       	std	Z+2, r26	; 0x02
    69e4:	b3 83       	std	Z+3, r27	; 0x03
    69e6:	ce 01       	movw	r24, r28
    69e8:	8f 5e       	subi	r24, 0xEF	; 239
    69ea:	9c 4f       	sbci	r25, 0xFC	; 252
    69ec:	20 e0       	ldi	r18, 0x00	; 0
    69ee:	30 e0       	ldi	r19, 0x00	; 0
    69f0:	40 e8       	ldi	r20, 0x80	; 128
    69f2:	5f e3       	ldi	r21, 0x3F	; 63
    69f4:	fc 01       	movw	r30, r24
    69f6:	60 81       	ld	r22, Z
    69f8:	71 81       	ldd	r23, Z+1	; 0x01
    69fa:	82 81       	ldd	r24, Z+2	; 0x02
    69fc:	93 81       	ldd	r25, Z+3	; 0x03
    69fe:	0e 94 e4 4f 	call	0x9fc8	; 0x9fc8 <__cmpsf2>
    6a02:	88 23       	and	r24, r24
    6a04:	4c f4       	brge	.+18     	; 0x6a18 <__stack+0x4819>
    6a06:	ce 01       	movw	r24, r28
    6a08:	8b 5e       	subi	r24, 0xEB	; 235
    6a0a:	9c 4f       	sbci	r25, 0xFC	; 252
    6a0c:	21 e0       	ldi	r18, 0x01	; 1
    6a0e:	30 e0       	ldi	r19, 0x00	; 0
    6a10:	fc 01       	movw	r30, r24
    6a12:	31 83       	std	Z+1, r19	; 0x01
    6a14:	20 83       	st	Z, r18
    6a16:	6d c0       	rjmp	.+218    	; 0x6af2 <__stack+0x48f3>
    6a18:	ce 01       	movw	r24, r28
    6a1a:	8f 5e       	subi	r24, 0xEF	; 239
    6a1c:	9c 4f       	sbci	r25, 0xFC	; 252
    6a1e:	20 e0       	ldi	r18, 0x00	; 0
    6a20:	3f ef       	ldi	r19, 0xFF	; 255
    6a22:	4f e7       	ldi	r20, 0x7F	; 127
    6a24:	57 e4       	ldi	r21, 0x47	; 71
    6a26:	fc 01       	movw	r30, r24
    6a28:	60 81       	ld	r22, Z
    6a2a:	71 81       	ldd	r23, Z+1	; 0x01
    6a2c:	82 81       	ldd	r24, Z+2	; 0x02
    6a2e:	93 81       	ldd	r25, Z+3	; 0x03
    6a30:	0e 94 61 50 	call	0xa0c2	; 0xa0c2 <__gesf2>
    6a34:	18 16       	cp	r1, r24
    6a36:	0c f0       	brlt	.+2      	; 0x6a3a <__stack+0x483b>
    6a38:	4a c0       	rjmp	.+148    	; 0x6ace <__stack+0x48cf>
    6a3a:	ce 01       	movw	r24, r28
    6a3c:	8d 53       	subi	r24, 0x3D	; 61
    6a3e:	9f 4f       	sbci	r25, 0xFF	; 255
    6a40:	20 e0       	ldi	r18, 0x00	; 0
    6a42:	30 e0       	ldi	r19, 0x00	; 0
    6a44:	40 e2       	ldi	r20, 0x20	; 32
    6a46:	51 e4       	ldi	r21, 0x41	; 65
    6a48:	fc 01       	movw	r30, r24
    6a4a:	60 81       	ld	r22, Z
    6a4c:	71 81       	ldd	r23, Z+1	; 0x01
    6a4e:	82 81       	ldd	r24, Z+2	; 0x02
    6a50:	93 81       	ldd	r25, Z+3	; 0x03
    6a52:	0e 94 65 50 	call	0xa0ca	; 0xa0ca <__mulsf3>
    6a56:	dc 01       	movw	r26, r24
    6a58:	cb 01       	movw	r24, r22
    6a5a:	8e 01       	movw	r16, r28
    6a5c:	0b 5e       	subi	r16, 0xEB	; 235
    6a5e:	1c 4f       	sbci	r17, 0xFC	; 252
    6a60:	bc 01       	movw	r22, r24
    6a62:	cd 01       	movw	r24, r26
    6a64:	0e 94 e8 4f 	call	0x9fd0	; 0x9fd0 <__fixunssfsi>
    6a68:	dc 01       	movw	r26, r24
    6a6a:	cb 01       	movw	r24, r22
    6a6c:	f8 01       	movw	r30, r16
    6a6e:	91 83       	std	Z+1, r25	; 0x01
    6a70:	80 83       	st	Z, r24
    6a72:	24 c0       	rjmp	.+72     	; 0x6abc <__stack+0x48bd>
    6a74:	ce 01       	movw	r24, r28
    6a76:	89 5e       	subi	r24, 0xE9	; 233
    6a78:	9c 4f       	sbci	r25, 0xFC	; 252
    6a7a:	20 e7       	ldi	r18, 0x70	; 112
    6a7c:	31 e0       	ldi	r19, 0x01	; 1
    6a7e:	fc 01       	movw	r30, r24
    6a80:	31 83       	std	Z+1, r19	; 0x01
    6a82:	20 83       	st	Z, r18
    6a84:	ce 01       	movw	r24, r28
    6a86:	89 5e       	subi	r24, 0xE9	; 233
    6a88:	9c 4f       	sbci	r25, 0xFC	; 252
    6a8a:	fc 01       	movw	r30, r24
    6a8c:	80 81       	ld	r24, Z
    6a8e:	91 81       	ldd	r25, Z+1	; 0x01
    6a90:	01 97       	sbiw	r24, 0x01	; 1
    6a92:	f1 f7       	brne	.-4      	; 0x6a90 <__stack+0x4891>
    6a94:	9e 01       	movw	r18, r28
    6a96:	29 5e       	subi	r18, 0xE9	; 233
    6a98:	3c 4f       	sbci	r19, 0xFC	; 252
    6a9a:	f9 01       	movw	r30, r18
    6a9c:	91 83       	std	Z+1, r25	; 0x01
    6a9e:	80 83       	st	Z, r24
    6aa0:	ce 01       	movw	r24, r28
    6aa2:	8b 5e       	subi	r24, 0xEB	; 235
    6aa4:	9c 4f       	sbci	r25, 0xFC	; 252
    6aa6:	9e 01       	movw	r18, r28
    6aa8:	2b 5e       	subi	r18, 0xEB	; 235
    6aaa:	3c 4f       	sbci	r19, 0xFC	; 252
    6aac:	f9 01       	movw	r30, r18
    6aae:	20 81       	ld	r18, Z
    6ab0:	31 81       	ldd	r19, Z+1	; 0x01
    6ab2:	21 50       	subi	r18, 0x01	; 1
    6ab4:	31 09       	sbc	r19, r1
    6ab6:	fc 01       	movw	r30, r24
    6ab8:	31 83       	std	Z+1, r19	; 0x01
    6aba:	20 83       	st	Z, r18
    6abc:	ce 01       	movw	r24, r28
    6abe:	8b 5e       	subi	r24, 0xEB	; 235
    6ac0:	9c 4f       	sbci	r25, 0xFC	; 252
    6ac2:	fc 01       	movw	r30, r24
    6ac4:	80 81       	ld	r24, Z
    6ac6:	91 81       	ldd	r25, Z+1	; 0x01
    6ac8:	89 2b       	or	r24, r25
    6aca:	a1 f6       	brne	.-88     	; 0x6a74 <__stack+0x4875>
    6acc:	2c c0       	rjmp	.+88     	; 0x6b26 <__stack+0x4927>
    6ace:	8e 01       	movw	r16, r28
    6ad0:	0b 5e       	subi	r16, 0xEB	; 235
    6ad2:	1c 4f       	sbci	r17, 0xFC	; 252
    6ad4:	ce 01       	movw	r24, r28
    6ad6:	8f 5e       	subi	r24, 0xEF	; 239
    6ad8:	9c 4f       	sbci	r25, 0xFC	; 252
    6ada:	fc 01       	movw	r30, r24
    6adc:	60 81       	ld	r22, Z
    6ade:	71 81       	ldd	r23, Z+1	; 0x01
    6ae0:	82 81       	ldd	r24, Z+2	; 0x02
    6ae2:	93 81       	ldd	r25, Z+3	; 0x03
    6ae4:	0e 94 e8 4f 	call	0x9fd0	; 0x9fd0 <__fixunssfsi>
    6ae8:	dc 01       	movw	r26, r24
    6aea:	cb 01       	movw	r24, r22
    6aec:	f8 01       	movw	r30, r16
    6aee:	91 83       	std	Z+1, r25	; 0x01
    6af0:	80 83       	st	Z, r24
    6af2:	ce 01       	movw	r24, r28
    6af4:	87 5e       	subi	r24, 0xE7	; 231
    6af6:	9c 4f       	sbci	r25, 0xFC	; 252
    6af8:	9e 01       	movw	r18, r28
    6afa:	2b 5e       	subi	r18, 0xEB	; 235
    6afc:	3c 4f       	sbci	r19, 0xFC	; 252
    6afe:	f9 01       	movw	r30, r18
    6b00:	20 81       	ld	r18, Z
    6b02:	31 81       	ldd	r19, Z+1	; 0x01
    6b04:	fc 01       	movw	r30, r24
    6b06:	31 83       	std	Z+1, r19	; 0x01
    6b08:	20 83       	st	Z, r18
    6b0a:	ce 01       	movw	r24, r28
    6b0c:	87 5e       	subi	r24, 0xE7	; 231
    6b0e:	9c 4f       	sbci	r25, 0xFC	; 252
    6b10:	fc 01       	movw	r30, r24
    6b12:	80 81       	ld	r24, Z
    6b14:	91 81       	ldd	r25, Z+1	; 0x01
    6b16:	01 97       	sbiw	r24, 0x01	; 1
    6b18:	f1 f7       	brne	.-4      	; 0x6b16 <__stack+0x4917>
    6b1a:	9e 01       	movw	r18, r28
    6b1c:	27 5e       	subi	r18, 0xE7	; 231
    6b1e:	3c 4f       	sbci	r19, 0xFC	; 252
    6b20:	f9 01       	movw	r30, r18
    6b22:	91 83       	std	Z+1, r25	; 0x01
    6b24:	80 83       	st	Z, r24
    6b26:	0e 94 8c 0e 	call	0x1d18	; 0x1d18 <forward>
    6b2a:	66 e9       	ldi	r22, 0x96	; 150
    6b2c:	86 e9       	ldi	r24, 0x96	; 150
    6b2e:	0e 94 52 0e 	call	0x1ca4	; 0x1ca4 <velocity>
    6b32:	9e 01       	movw	r18, r28
    6b34:	29 53       	subi	r18, 0x39	; 57
    6b36:	3f 4f       	sbci	r19, 0xFF	; 255
    6b38:	80 e0       	ldi	r24, 0x00	; 0
    6b3a:	90 e0       	ldi	r25, 0x00	; 0
    6b3c:	af e2       	ldi	r26, 0x2F	; 47
    6b3e:	b4 e4       	ldi	r27, 0x44	; 68
    6b40:	f9 01       	movw	r30, r18
    6b42:	80 83       	st	Z, r24
    6b44:	91 83       	std	Z+1, r25	; 0x01
    6b46:	a2 83       	std	Z+2, r26	; 0x02
    6b48:	b3 83       	std	Z+3, r27	; 0x03
    6b4a:	8e 01       	movw	r16, r28
    6b4c:	09 5f       	subi	r16, 0xF9	; 249
    6b4e:	1c 4f       	sbci	r17, 0xFC	; 252
    6b50:	ce 01       	movw	r24, r28
    6b52:	89 53       	subi	r24, 0x39	; 57
    6b54:	9f 4f       	sbci	r25, 0xFF	; 255
    6b56:	26 e6       	ldi	r18, 0x66	; 102
    6b58:	36 e6       	ldi	r19, 0x66	; 102
    6b5a:	46 e6       	ldi	r20, 0x66	; 102
    6b5c:	55 e4       	ldi	r21, 0x45	; 69
    6b5e:	fc 01       	movw	r30, r24
    6b60:	60 81       	ld	r22, Z
    6b62:	71 81       	ldd	r23, Z+1	; 0x01
    6b64:	82 81       	ldd	r24, Z+2	; 0x02
    6b66:	93 81       	ldd	r25, Z+3	; 0x03
    6b68:	0e 94 65 50 	call	0xa0ca	; 0xa0ca <__mulsf3>
    6b6c:	dc 01       	movw	r26, r24
    6b6e:	cb 01       	movw	r24, r22
    6b70:	f8 01       	movw	r30, r16
    6b72:	80 83       	st	Z, r24
    6b74:	91 83       	std	Z+1, r25	; 0x01
    6b76:	a2 83       	std	Z+2, r26	; 0x02
    6b78:	b3 83       	std	Z+3, r27	; 0x03
    6b7a:	ce 01       	movw	r24, r28
    6b7c:	89 5f       	subi	r24, 0xF9	; 249
    6b7e:	9c 4f       	sbci	r25, 0xFC	; 252
    6b80:	20 e0       	ldi	r18, 0x00	; 0
    6b82:	30 e0       	ldi	r19, 0x00	; 0
    6b84:	40 e8       	ldi	r20, 0x80	; 128
    6b86:	5f e3       	ldi	r21, 0x3F	; 63
    6b88:	fc 01       	movw	r30, r24
    6b8a:	60 81       	ld	r22, Z
    6b8c:	71 81       	ldd	r23, Z+1	; 0x01
    6b8e:	82 81       	ldd	r24, Z+2	; 0x02
    6b90:	93 81       	ldd	r25, Z+3	; 0x03
    6b92:	0e 94 e4 4f 	call	0x9fc8	; 0x9fc8 <__cmpsf2>
    6b96:	88 23       	and	r24, r24
    6b98:	4c f4       	brge	.+18     	; 0x6bac <__stack+0x49ad>
    6b9a:	ce 01       	movw	r24, r28
    6b9c:	85 5f       	subi	r24, 0xF5	; 245
    6b9e:	9c 4f       	sbci	r25, 0xFC	; 252
    6ba0:	21 e0       	ldi	r18, 0x01	; 1
    6ba2:	30 e0       	ldi	r19, 0x00	; 0
    6ba4:	fc 01       	movw	r30, r24
    6ba6:	31 83       	std	Z+1, r19	; 0x01
    6ba8:	20 83       	st	Z, r18
    6baa:	6d c0       	rjmp	.+218    	; 0x6c86 <__stack+0x4a87>
    6bac:	ce 01       	movw	r24, r28
    6bae:	89 5f       	subi	r24, 0xF9	; 249
    6bb0:	9c 4f       	sbci	r25, 0xFC	; 252
    6bb2:	20 e0       	ldi	r18, 0x00	; 0
    6bb4:	3f ef       	ldi	r19, 0xFF	; 255
    6bb6:	4f e7       	ldi	r20, 0x7F	; 127
    6bb8:	57 e4       	ldi	r21, 0x47	; 71
    6bba:	fc 01       	movw	r30, r24
    6bbc:	60 81       	ld	r22, Z
    6bbe:	71 81       	ldd	r23, Z+1	; 0x01
    6bc0:	82 81       	ldd	r24, Z+2	; 0x02
    6bc2:	93 81       	ldd	r25, Z+3	; 0x03
    6bc4:	0e 94 61 50 	call	0xa0c2	; 0xa0c2 <__gesf2>
    6bc8:	18 16       	cp	r1, r24
    6bca:	0c f0       	brlt	.+2      	; 0x6bce <__stack+0x49cf>
    6bcc:	4a c0       	rjmp	.+148    	; 0x6c62 <__stack+0x4a63>
    6bce:	ce 01       	movw	r24, r28
    6bd0:	89 53       	subi	r24, 0x39	; 57
    6bd2:	9f 4f       	sbci	r25, 0xFF	; 255
    6bd4:	20 e0       	ldi	r18, 0x00	; 0
    6bd6:	30 e0       	ldi	r19, 0x00	; 0
    6bd8:	40 e2       	ldi	r20, 0x20	; 32
    6bda:	51 e4       	ldi	r21, 0x41	; 65
    6bdc:	fc 01       	movw	r30, r24
    6bde:	60 81       	ld	r22, Z
    6be0:	71 81       	ldd	r23, Z+1	; 0x01
    6be2:	82 81       	ldd	r24, Z+2	; 0x02
    6be4:	93 81       	ldd	r25, Z+3	; 0x03
    6be6:	0e 94 65 50 	call	0xa0ca	; 0xa0ca <__mulsf3>
    6bea:	dc 01       	movw	r26, r24
    6bec:	cb 01       	movw	r24, r22
    6bee:	8e 01       	movw	r16, r28
    6bf0:	05 5f       	subi	r16, 0xF5	; 245
    6bf2:	1c 4f       	sbci	r17, 0xFC	; 252
    6bf4:	bc 01       	movw	r22, r24
    6bf6:	cd 01       	movw	r24, r26
    6bf8:	0e 94 e8 4f 	call	0x9fd0	; 0x9fd0 <__fixunssfsi>
    6bfc:	dc 01       	movw	r26, r24
    6bfe:	cb 01       	movw	r24, r22
    6c00:	f8 01       	movw	r30, r16
    6c02:	91 83       	std	Z+1, r25	; 0x01
    6c04:	80 83       	st	Z, r24
    6c06:	24 c0       	rjmp	.+72     	; 0x6c50 <__stack+0x4a51>
    6c08:	ce 01       	movw	r24, r28
    6c0a:	83 5f       	subi	r24, 0xF3	; 243
    6c0c:	9c 4f       	sbci	r25, 0xFC	; 252
    6c0e:	20 e7       	ldi	r18, 0x70	; 112
    6c10:	31 e0       	ldi	r19, 0x01	; 1
    6c12:	fc 01       	movw	r30, r24
    6c14:	31 83       	std	Z+1, r19	; 0x01
    6c16:	20 83       	st	Z, r18
    6c18:	ce 01       	movw	r24, r28
    6c1a:	83 5f       	subi	r24, 0xF3	; 243
    6c1c:	9c 4f       	sbci	r25, 0xFC	; 252
    6c1e:	fc 01       	movw	r30, r24
    6c20:	80 81       	ld	r24, Z
    6c22:	91 81       	ldd	r25, Z+1	; 0x01
    6c24:	01 97       	sbiw	r24, 0x01	; 1
    6c26:	f1 f7       	brne	.-4      	; 0x6c24 <__stack+0x4a25>
    6c28:	9e 01       	movw	r18, r28
    6c2a:	23 5f       	subi	r18, 0xF3	; 243
    6c2c:	3c 4f       	sbci	r19, 0xFC	; 252
    6c2e:	f9 01       	movw	r30, r18
    6c30:	91 83       	std	Z+1, r25	; 0x01
    6c32:	80 83       	st	Z, r24
    6c34:	ce 01       	movw	r24, r28
    6c36:	85 5f       	subi	r24, 0xF5	; 245
    6c38:	9c 4f       	sbci	r25, 0xFC	; 252
    6c3a:	9e 01       	movw	r18, r28
    6c3c:	25 5f       	subi	r18, 0xF5	; 245
    6c3e:	3c 4f       	sbci	r19, 0xFC	; 252
    6c40:	f9 01       	movw	r30, r18
    6c42:	20 81       	ld	r18, Z
    6c44:	31 81       	ldd	r19, Z+1	; 0x01
    6c46:	21 50       	subi	r18, 0x01	; 1
    6c48:	31 09       	sbc	r19, r1
    6c4a:	fc 01       	movw	r30, r24
    6c4c:	31 83       	std	Z+1, r19	; 0x01
    6c4e:	20 83       	st	Z, r18
    6c50:	ce 01       	movw	r24, r28
    6c52:	85 5f       	subi	r24, 0xF5	; 245
    6c54:	9c 4f       	sbci	r25, 0xFC	; 252
    6c56:	fc 01       	movw	r30, r24
    6c58:	80 81       	ld	r24, Z
    6c5a:	91 81       	ldd	r25, Z+1	; 0x01
    6c5c:	89 2b       	or	r24, r25
    6c5e:	a1 f6       	brne	.-88     	; 0x6c08 <__stack+0x4a09>
    6c60:	2c c0       	rjmp	.+88     	; 0x6cba <__stack+0x4abb>
    6c62:	8e 01       	movw	r16, r28
    6c64:	05 5f       	subi	r16, 0xF5	; 245
    6c66:	1c 4f       	sbci	r17, 0xFC	; 252
    6c68:	ce 01       	movw	r24, r28
    6c6a:	89 5f       	subi	r24, 0xF9	; 249
    6c6c:	9c 4f       	sbci	r25, 0xFC	; 252
    6c6e:	fc 01       	movw	r30, r24
    6c70:	60 81       	ld	r22, Z
    6c72:	71 81       	ldd	r23, Z+1	; 0x01
    6c74:	82 81       	ldd	r24, Z+2	; 0x02
    6c76:	93 81       	ldd	r25, Z+3	; 0x03
    6c78:	0e 94 e8 4f 	call	0x9fd0	; 0x9fd0 <__fixunssfsi>
    6c7c:	dc 01       	movw	r26, r24
    6c7e:	cb 01       	movw	r24, r22
    6c80:	f8 01       	movw	r30, r16
    6c82:	91 83       	std	Z+1, r25	; 0x01
    6c84:	80 83       	st	Z, r24
    6c86:	ce 01       	movw	r24, r28
    6c88:	81 5f       	subi	r24, 0xF1	; 241
    6c8a:	9c 4f       	sbci	r25, 0xFC	; 252
    6c8c:	9e 01       	movw	r18, r28
    6c8e:	25 5f       	subi	r18, 0xF5	; 245
    6c90:	3c 4f       	sbci	r19, 0xFC	; 252
    6c92:	f9 01       	movw	r30, r18
    6c94:	20 81       	ld	r18, Z
    6c96:	31 81       	ldd	r19, Z+1	; 0x01
    6c98:	fc 01       	movw	r30, r24
    6c9a:	31 83       	std	Z+1, r19	; 0x01
    6c9c:	20 83       	st	Z, r18
    6c9e:	ce 01       	movw	r24, r28
    6ca0:	81 5f       	subi	r24, 0xF1	; 241
    6ca2:	9c 4f       	sbci	r25, 0xFC	; 252
    6ca4:	fc 01       	movw	r30, r24
    6ca6:	80 81       	ld	r24, Z
    6ca8:	91 81       	ldd	r25, Z+1	; 0x01
    6caa:	01 97       	sbiw	r24, 0x01	; 1
    6cac:	f1 f7       	brne	.-4      	; 0x6caa <__stack+0x4aab>
    6cae:	9e 01       	movw	r18, r28
    6cb0:	21 5f       	subi	r18, 0xF1	; 241
    6cb2:	3c 4f       	sbci	r19, 0xFC	; 252
    6cb4:	f9 01       	movw	r30, r18
    6cb6:	91 83       	std	Z+1, r25	; 0x01
    6cb8:	80 83       	st	Z, r24
    6cba:	0e 94 a0 0e 	call	0x1d40	; 0x1d40 <right>
    6cbe:	9e 01       	movw	r18, r28
    6cc0:	25 56       	subi	r18, 0x65	; 101
    6cc2:	3f 4f       	sbci	r19, 0xFF	; 255
    6cc4:	80 e0       	ldi	r24, 0x00	; 0
    6cc6:	90 e0       	ldi	r25, 0x00	; 0
    6cc8:	a6 e9       	ldi	r26, 0x96	; 150
    6cca:	b4 e4       	ldi	r27, 0x44	; 68
    6ccc:	f9 01       	movw	r30, r18
    6cce:	80 83       	st	Z, r24
    6cd0:	91 83       	std	Z+1, r25	; 0x01
    6cd2:	a2 83       	std	Z+2, r26	; 0x02
    6cd4:	b3 83       	std	Z+3, r27	; 0x03
    6cd6:	8e 01       	movw	r16, r28
    6cd8:	03 50       	subi	r16, 0x03	; 3
    6cda:	1d 4f       	sbci	r17, 0xFD	; 253
    6cdc:	ce 01       	movw	r24, r28
    6cde:	85 56       	subi	r24, 0x65	; 101
    6ce0:	9f 4f       	sbci	r25, 0xFF	; 255
    6ce2:	26 e6       	ldi	r18, 0x66	; 102
    6ce4:	36 e6       	ldi	r19, 0x66	; 102
    6ce6:	46 e6       	ldi	r20, 0x66	; 102
    6ce8:	55 e4       	ldi	r21, 0x45	; 69
    6cea:	fc 01       	movw	r30, r24
    6cec:	60 81       	ld	r22, Z
    6cee:	71 81       	ldd	r23, Z+1	; 0x01
    6cf0:	82 81       	ldd	r24, Z+2	; 0x02
    6cf2:	93 81       	ldd	r25, Z+3	; 0x03
    6cf4:	0e 94 65 50 	call	0xa0ca	; 0xa0ca <__mulsf3>
    6cf8:	dc 01       	movw	r26, r24
    6cfa:	cb 01       	movw	r24, r22
    6cfc:	f8 01       	movw	r30, r16
    6cfe:	80 83       	st	Z, r24
    6d00:	91 83       	std	Z+1, r25	; 0x01
    6d02:	a2 83       	std	Z+2, r26	; 0x02
    6d04:	b3 83       	std	Z+3, r27	; 0x03
    6d06:	ce 01       	movw	r24, r28
    6d08:	83 50       	subi	r24, 0x03	; 3
    6d0a:	9d 4f       	sbci	r25, 0xFD	; 253
    6d0c:	20 e0       	ldi	r18, 0x00	; 0
    6d0e:	30 e0       	ldi	r19, 0x00	; 0
    6d10:	40 e8       	ldi	r20, 0x80	; 128
    6d12:	5f e3       	ldi	r21, 0x3F	; 63
    6d14:	fc 01       	movw	r30, r24
    6d16:	60 81       	ld	r22, Z
    6d18:	71 81       	ldd	r23, Z+1	; 0x01
    6d1a:	82 81       	ldd	r24, Z+2	; 0x02
    6d1c:	93 81       	ldd	r25, Z+3	; 0x03
    6d1e:	0e 94 e4 4f 	call	0x9fc8	; 0x9fc8 <__cmpsf2>
    6d22:	88 23       	and	r24, r24
    6d24:	4c f4       	brge	.+18     	; 0x6d38 <__stack+0x4b39>
    6d26:	ce 01       	movw	r24, r28
    6d28:	8f 5f       	subi	r24, 0xFF	; 255
    6d2a:	9c 4f       	sbci	r25, 0xFC	; 252
    6d2c:	21 e0       	ldi	r18, 0x01	; 1
    6d2e:	30 e0       	ldi	r19, 0x00	; 0
    6d30:	fc 01       	movw	r30, r24
    6d32:	31 83       	std	Z+1, r19	; 0x01
    6d34:	20 83       	st	Z, r18
    6d36:	6d c0       	rjmp	.+218    	; 0x6e12 <__stack+0x4c13>
    6d38:	ce 01       	movw	r24, r28
    6d3a:	83 50       	subi	r24, 0x03	; 3
    6d3c:	9d 4f       	sbci	r25, 0xFD	; 253
    6d3e:	20 e0       	ldi	r18, 0x00	; 0
    6d40:	3f ef       	ldi	r19, 0xFF	; 255
    6d42:	4f e7       	ldi	r20, 0x7F	; 127
    6d44:	57 e4       	ldi	r21, 0x47	; 71
    6d46:	fc 01       	movw	r30, r24
    6d48:	60 81       	ld	r22, Z
    6d4a:	71 81       	ldd	r23, Z+1	; 0x01
    6d4c:	82 81       	ldd	r24, Z+2	; 0x02
    6d4e:	93 81       	ldd	r25, Z+3	; 0x03
    6d50:	0e 94 61 50 	call	0xa0c2	; 0xa0c2 <__gesf2>
    6d54:	18 16       	cp	r1, r24
    6d56:	0c f0       	brlt	.+2      	; 0x6d5a <__stack+0x4b5b>
    6d58:	4a c0       	rjmp	.+148    	; 0x6dee <__stack+0x4bef>
    6d5a:	ce 01       	movw	r24, r28
    6d5c:	85 56       	subi	r24, 0x65	; 101
    6d5e:	9f 4f       	sbci	r25, 0xFF	; 255
    6d60:	20 e0       	ldi	r18, 0x00	; 0
    6d62:	30 e0       	ldi	r19, 0x00	; 0
    6d64:	40 e2       	ldi	r20, 0x20	; 32
    6d66:	51 e4       	ldi	r21, 0x41	; 65
    6d68:	fc 01       	movw	r30, r24
    6d6a:	60 81       	ld	r22, Z
    6d6c:	71 81       	ldd	r23, Z+1	; 0x01
    6d6e:	82 81       	ldd	r24, Z+2	; 0x02
    6d70:	93 81       	ldd	r25, Z+3	; 0x03
    6d72:	0e 94 65 50 	call	0xa0ca	; 0xa0ca <__mulsf3>
    6d76:	dc 01       	movw	r26, r24
    6d78:	cb 01       	movw	r24, r22
    6d7a:	8e 01       	movw	r16, r28
    6d7c:	0f 5f       	subi	r16, 0xFF	; 255
    6d7e:	1c 4f       	sbci	r17, 0xFC	; 252
    6d80:	bc 01       	movw	r22, r24
    6d82:	cd 01       	movw	r24, r26
    6d84:	0e 94 e8 4f 	call	0x9fd0	; 0x9fd0 <__fixunssfsi>
    6d88:	dc 01       	movw	r26, r24
    6d8a:	cb 01       	movw	r24, r22
    6d8c:	f8 01       	movw	r30, r16
    6d8e:	91 83       	std	Z+1, r25	; 0x01
    6d90:	80 83       	st	Z, r24
    6d92:	24 c0       	rjmp	.+72     	; 0x6ddc <__stack+0x4bdd>
    6d94:	ce 01       	movw	r24, r28
    6d96:	8d 5f       	subi	r24, 0xFD	; 253
    6d98:	9c 4f       	sbci	r25, 0xFC	; 252
    6d9a:	20 e7       	ldi	r18, 0x70	; 112
    6d9c:	31 e0       	ldi	r19, 0x01	; 1
    6d9e:	fc 01       	movw	r30, r24
    6da0:	31 83       	std	Z+1, r19	; 0x01
    6da2:	20 83       	st	Z, r18
    6da4:	ce 01       	movw	r24, r28
    6da6:	8d 5f       	subi	r24, 0xFD	; 253
    6da8:	9c 4f       	sbci	r25, 0xFC	; 252
    6daa:	fc 01       	movw	r30, r24
    6dac:	80 81       	ld	r24, Z
    6dae:	91 81       	ldd	r25, Z+1	; 0x01
    6db0:	01 97       	sbiw	r24, 0x01	; 1
    6db2:	f1 f7       	brne	.-4      	; 0x6db0 <__stack+0x4bb1>
    6db4:	9e 01       	movw	r18, r28
    6db6:	2d 5f       	subi	r18, 0xFD	; 253
    6db8:	3c 4f       	sbci	r19, 0xFC	; 252
    6dba:	f9 01       	movw	r30, r18
    6dbc:	91 83       	std	Z+1, r25	; 0x01
    6dbe:	80 83       	st	Z, r24
    6dc0:	ce 01       	movw	r24, r28
    6dc2:	8f 5f       	subi	r24, 0xFF	; 255
    6dc4:	9c 4f       	sbci	r25, 0xFC	; 252
    6dc6:	9e 01       	movw	r18, r28
    6dc8:	2f 5f       	subi	r18, 0xFF	; 255
    6dca:	3c 4f       	sbci	r19, 0xFC	; 252
    6dcc:	f9 01       	movw	r30, r18
    6dce:	20 81       	ld	r18, Z
    6dd0:	31 81       	ldd	r19, Z+1	; 0x01
    6dd2:	21 50       	subi	r18, 0x01	; 1
    6dd4:	31 09       	sbc	r19, r1
    6dd6:	fc 01       	movw	r30, r24
    6dd8:	31 83       	std	Z+1, r19	; 0x01
    6dda:	20 83       	st	Z, r18
    6ddc:	ce 01       	movw	r24, r28
    6dde:	8f 5f       	subi	r24, 0xFF	; 255
    6de0:	9c 4f       	sbci	r25, 0xFC	; 252
    6de2:	fc 01       	movw	r30, r24
    6de4:	80 81       	ld	r24, Z
    6de6:	91 81       	ldd	r25, Z+1	; 0x01
    6de8:	89 2b       	or	r24, r25
    6dea:	a1 f6       	brne	.-88     	; 0x6d94 <__stack+0x4b95>
    6dec:	2c c0       	rjmp	.+88     	; 0x6e46 <__stack+0x4c47>
    6dee:	8e 01       	movw	r16, r28
    6df0:	0f 5f       	subi	r16, 0xFF	; 255
    6df2:	1c 4f       	sbci	r17, 0xFC	; 252
    6df4:	ce 01       	movw	r24, r28
    6df6:	83 50       	subi	r24, 0x03	; 3
    6df8:	9d 4f       	sbci	r25, 0xFD	; 253
    6dfa:	fc 01       	movw	r30, r24
    6dfc:	60 81       	ld	r22, Z
    6dfe:	71 81       	ldd	r23, Z+1	; 0x01
    6e00:	82 81       	ldd	r24, Z+2	; 0x02
    6e02:	93 81       	ldd	r25, Z+3	; 0x03
    6e04:	0e 94 e8 4f 	call	0x9fd0	; 0x9fd0 <__fixunssfsi>
    6e08:	dc 01       	movw	r26, r24
    6e0a:	cb 01       	movw	r24, r22
    6e0c:	f8 01       	movw	r30, r16
    6e0e:	91 83       	std	Z+1, r25	; 0x01
    6e10:	80 83       	st	Z, r24
    6e12:	ce 01       	movw	r24, r28
    6e14:	8b 5f       	subi	r24, 0xFB	; 251
    6e16:	9c 4f       	sbci	r25, 0xFC	; 252
    6e18:	9e 01       	movw	r18, r28
    6e1a:	2f 5f       	subi	r18, 0xFF	; 255
    6e1c:	3c 4f       	sbci	r19, 0xFC	; 252
    6e1e:	f9 01       	movw	r30, r18
    6e20:	20 81       	ld	r18, Z
    6e22:	31 81       	ldd	r19, Z+1	; 0x01
    6e24:	fc 01       	movw	r30, r24
    6e26:	31 83       	std	Z+1, r19	; 0x01
    6e28:	20 83       	st	Z, r18
    6e2a:	ce 01       	movw	r24, r28
    6e2c:	8b 5f       	subi	r24, 0xFB	; 251
    6e2e:	9c 4f       	sbci	r25, 0xFC	; 252
    6e30:	fc 01       	movw	r30, r24
    6e32:	80 81       	ld	r24, Z
    6e34:	91 81       	ldd	r25, Z+1	; 0x01
    6e36:	01 97       	sbiw	r24, 0x01	; 1
    6e38:	f1 f7       	brne	.-4      	; 0x6e36 <__stack+0x4c37>
    6e3a:	9e 01       	movw	r18, r28
    6e3c:	2b 5f       	subi	r18, 0xFB	; 251
    6e3e:	3c 4f       	sbci	r19, 0xFC	; 252
    6e40:	f9 01       	movw	r30, r18
    6e42:	91 83       	std	Z+1, r25	; 0x01
    6e44:	80 83       	st	Z, r24
    6e46:	89 81       	ldd	r24, Y+1	; 0x01
    6e48:	9a 81       	ldd	r25, Y+2	; 0x02
    6e4a:	88 36       	cpi	r24, 0x68	; 104
    6e4c:	91 05       	cpc	r25, r1
    6e4e:	09 f4       	brne	.+2      	; 0x6e52 <__stack+0x4c53>
    6e50:	4b cc       	rjmp	.-1898   	; 0x66e8 <__stack+0x44e9>
    6e52:	0c 94 97 4f 	jmp	0x9f2e	; 0x9f2e <__stack+0x7d2f>
    6e56:	83 e0       	ldi	r24, 0x03	; 3
    6e58:	0e 94 f1 0d 	call	0x1be2	; 0x1be2 <ADC_Conversion>
    6e5c:	80 93 33 02 	sts	0x0233, r24	; 0x800233 <Left_white_line>
    6e60:	82 e0       	ldi	r24, 0x02	; 2
    6e62:	0e 94 f1 0d 	call	0x1be2	; 0x1be2 <ADC_Conversion>
    6e66:	80 93 34 02 	sts	0x0234, r24	; 0x800234 <Center_white_line>
    6e6a:	81 e0       	ldi	r24, 0x01	; 1
    6e6c:	0e 94 f1 0d 	call	0x1be2	; 0x1be2 <ADC_Conversion>
    6e70:	80 93 35 02 	sts	0x0235, r24	; 0x800235 <Right_white_line>
    6e74:	10 92 32 02 	sts	0x0232, r1	; 0x800232 <__data_end>
    6e78:	43 e0       	ldi	r20, 0x03	; 3
    6e7a:	61 e0       	ldi	r22, 0x01	; 1
    6e7c:	81 e0       	ldi	r24, 0x01	; 1
    6e7e:	0e 94 35 0e 	call	0x1c6a	; 0x1c6a <print_sensor>
    6e82:	42 e0       	ldi	r20, 0x02	; 2
    6e84:	65 e0       	ldi	r22, 0x05	; 5
    6e86:	81 e0       	ldi	r24, 0x01	; 1
    6e88:	0e 94 35 0e 	call	0x1c6a	; 0x1c6a <print_sensor>
    6e8c:	41 e0       	ldi	r20, 0x01	; 1
    6e8e:	69 e0       	ldi	r22, 0x09	; 9
    6e90:	81 e0       	ldi	r24, 0x01	; 1
    6e92:	0e 94 35 0e 	call	0x1c6a	; 0x1c6a <print_sensor>
    6e96:	80 91 34 02 	lds	r24, 0x0234	; 0x800234 <Center_white_line>
    6e9a:	88 30       	cpi	r24, 0x08	; 8
    6e9c:	48 f0       	brcs	.+18     	; 0x6eb0 <__stack+0x4cb1>
    6e9e:	81 e0       	ldi	r24, 0x01	; 1
    6ea0:	80 93 32 02 	sts	0x0232, r24	; 0x800232 <__data_end>
    6ea4:	0e 94 8c 0e 	call	0x1d18	; 0x1d18 <forward>
    6ea8:	60 ea       	ldi	r22, 0xA0	; 160
    6eaa:	80 ea       	ldi	r24, 0xA0	; 160
    6eac:	0e 94 52 0e 	call	0x1ca4	; 0x1ca4 <velocity>
    6eb0:	80 91 33 02 	lds	r24, 0x0233	; 0x800233 <Left_white_line>
    6eb4:	87 30       	cpi	r24, 0x07	; 7
    6eb6:	68 f4       	brcc	.+26     	; 0x6ed2 <__stack+0x4cd3>
    6eb8:	80 91 32 02 	lds	r24, 0x0232	; 0x800232 <__data_end>
    6ebc:	88 23       	and	r24, r24
    6ebe:	49 f4       	brne	.+18     	; 0x6ed2 <__stack+0x4cd3>
    6ec0:	81 e0       	ldi	r24, 0x01	; 1
    6ec2:	80 93 32 02 	sts	0x0232, r24	; 0x800232 <__data_end>
    6ec6:	0e 94 8c 0e 	call	0x1d18	; 0x1d18 <forward>
    6eca:	62 e3       	ldi	r22, 0x32	; 50
    6ecc:	82 e8       	ldi	r24, 0x82	; 130
    6ece:	0e 94 52 0e 	call	0x1ca4	; 0x1ca4 <velocity>
    6ed2:	80 91 35 02 	lds	r24, 0x0235	; 0x800235 <Right_white_line>
    6ed6:	88 30       	cpi	r24, 0x08	; 8
    6ed8:	68 f4       	brcc	.+26     	; 0x6ef4 <__stack+0x4cf5>
    6eda:	80 91 32 02 	lds	r24, 0x0232	; 0x800232 <__data_end>
    6ede:	88 23       	and	r24, r24
    6ee0:	49 f4       	brne	.+18     	; 0x6ef4 <__stack+0x4cf5>
    6ee2:	81 e0       	ldi	r24, 0x01	; 1
    6ee4:	80 93 32 02 	sts	0x0232, r24	; 0x800232 <__data_end>
    6ee8:	0e 94 8c 0e 	call	0x1d18	; 0x1d18 <forward>
    6eec:	62 e8       	ldi	r22, 0x82	; 130
    6eee:	82 e3       	ldi	r24, 0x32	; 50
    6ef0:	0e 94 52 0e 	call	0x1ca4	; 0x1ca4 <velocity>
    6ef4:	80 91 34 02 	lds	r24, 0x0234	; 0x800234 <Center_white_line>
    6ef8:	87 30       	cpi	r24, 0x07	; 7
    6efa:	70 f4       	brcc	.+28     	; 0x6f18 <__stack+0x4d19>
    6efc:	80 91 33 02 	lds	r24, 0x0233	; 0x800233 <Left_white_line>
    6f00:	87 30       	cpi	r24, 0x07	; 7
    6f02:	50 f4       	brcc	.+20     	; 0x6f18 <__stack+0x4d19>
    6f04:	80 91 35 02 	lds	r24, 0x0235	; 0x800235 <Right_white_line>
    6f08:	87 30       	cpi	r24, 0x07	; 7
    6f0a:	30 f4       	brcc	.+12     	; 0x6f18 <__stack+0x4d19>
    6f0c:	0e 94 8c 0e 	call	0x1d18	; 0x1d18 <forward>
    6f10:	60 ea       	ldi	r22, 0xA0	; 160
    6f12:	80 ea       	ldi	r24, 0xA0	; 160
    6f14:	0e 94 52 0e 	call	0x1ca4	; 0x1ca4 <velocity>
    6f18:	80 91 34 02 	lds	r24, 0x0234	; 0x800234 <Center_white_line>
    6f1c:	88 30       	cpi	r24, 0x08	; 8
    6f1e:	10 f4       	brcc	.+4      	; 0x6f24 <__stack+0x4d25>
    6f20:	0c 94 97 4f 	jmp	0x9f2e	; 0x9f2e <__stack+0x7d2f>
    6f24:	80 91 33 02 	lds	r24, 0x0233	; 0x800233 <Left_white_line>
    6f28:	88 30       	cpi	r24, 0x08	; 8
    6f2a:	10 f4       	brcc	.+4      	; 0x6f30 <__stack+0x4d31>
    6f2c:	0c 94 97 4f 	jmp	0x9f2e	; 0x9f2e <__stack+0x7d2f>
    6f30:	80 91 35 02 	lds	r24, 0x0235	; 0x800235 <Right_white_line>
    6f34:	88 30       	cpi	r24, 0x08	; 8
    6f36:	10 f4       	brcc	.+4      	; 0x6f3c <__stack+0x4d3d>
    6f38:	0c 94 97 4f 	jmp	0x9f2e	; 0x9f2e <__stack+0x7d2f>
    6f3c:	8b 81       	ldd	r24, Y+3	; 0x03
    6f3e:	9c 81       	ldd	r25, Y+4	; 0x04
    6f40:	01 96       	adiw	r24, 0x01	; 1
    6f42:	9c 83       	std	Y+4, r25	; 0x04
    6f44:	8b 83       	std	Y+3, r24	; 0x03
    6f46:	8b 81       	ldd	r24, Y+3	; 0x03
    6f48:	9c 81       	ldd	r25, Y+4	; 0x04
    6f4a:	22 e0       	ldi	r18, 0x02	; 2
    6f4c:	30 e0       	ldi	r19, 0x00	; 0
    6f4e:	ac 01       	movw	r20, r24
    6f50:	61 e0       	ldi	r22, 0x01	; 1
    6f52:	82 e0       	ldi	r24, 0x02	; 2
    6f54:	0e 94 f7 09 	call	0x13ee	; 0x13ee <lcd_print>
    6f58:	0e 94 8c 0e 	call	0x1d18	; 0x1d18 <forward>
    6f5c:	9e 01       	movw	r18, r28
    6f5e:	21 53       	subi	r18, 0x31	; 49
    6f60:	3f 4f       	sbci	r19, 0xFF	; 255
    6f62:	80 e0       	ldi	r24, 0x00	; 0
    6f64:	90 e0       	ldi	r25, 0x00	; 0
    6f66:	a8 ec       	ldi	r26, 0xC8	; 200
    6f68:	b3 e4       	ldi	r27, 0x43	; 67
    6f6a:	f9 01       	movw	r30, r18
    6f6c:	80 83       	st	Z, r24
    6f6e:	91 83       	std	Z+1, r25	; 0x01
    6f70:	a2 83       	std	Z+2, r26	; 0x02
    6f72:	b3 83       	std	Z+3, r27	; 0x03
    6f74:	8e 01       	movw	r16, r28
    6f76:	01 5d       	subi	r16, 0xD1	; 209
    6f78:	1c 4f       	sbci	r17, 0xFC	; 252
    6f7a:	ce 01       	movw	r24, r28
    6f7c:	81 53       	subi	r24, 0x31	; 49
    6f7e:	9f 4f       	sbci	r25, 0xFF	; 255
    6f80:	26 e6       	ldi	r18, 0x66	; 102
    6f82:	36 e6       	ldi	r19, 0x66	; 102
    6f84:	46 e6       	ldi	r20, 0x66	; 102
    6f86:	55 e4       	ldi	r21, 0x45	; 69
    6f88:	fc 01       	movw	r30, r24
    6f8a:	60 81       	ld	r22, Z
    6f8c:	71 81       	ldd	r23, Z+1	; 0x01
    6f8e:	82 81       	ldd	r24, Z+2	; 0x02
    6f90:	93 81       	ldd	r25, Z+3	; 0x03
    6f92:	0e 94 65 50 	call	0xa0ca	; 0xa0ca <__mulsf3>
    6f96:	dc 01       	movw	r26, r24
    6f98:	cb 01       	movw	r24, r22
    6f9a:	f8 01       	movw	r30, r16
    6f9c:	80 83       	st	Z, r24
    6f9e:	91 83       	std	Z+1, r25	; 0x01
    6fa0:	a2 83       	std	Z+2, r26	; 0x02
    6fa2:	b3 83       	std	Z+3, r27	; 0x03
    6fa4:	ce 01       	movw	r24, r28
    6fa6:	81 5d       	subi	r24, 0xD1	; 209
    6fa8:	9c 4f       	sbci	r25, 0xFC	; 252
    6faa:	20 e0       	ldi	r18, 0x00	; 0
    6fac:	30 e0       	ldi	r19, 0x00	; 0
    6fae:	40 e8       	ldi	r20, 0x80	; 128
    6fb0:	5f e3       	ldi	r21, 0x3F	; 63
    6fb2:	fc 01       	movw	r30, r24
    6fb4:	60 81       	ld	r22, Z
    6fb6:	71 81       	ldd	r23, Z+1	; 0x01
    6fb8:	82 81       	ldd	r24, Z+2	; 0x02
    6fba:	93 81       	ldd	r25, Z+3	; 0x03
    6fbc:	0e 94 e4 4f 	call	0x9fc8	; 0x9fc8 <__cmpsf2>
    6fc0:	88 23       	and	r24, r24
    6fc2:	4c f4       	brge	.+18     	; 0x6fd6 <__stack+0x4dd7>
    6fc4:	ce 01       	movw	r24, r28
    6fc6:	8d 5c       	subi	r24, 0xCD	; 205
    6fc8:	9c 4f       	sbci	r25, 0xFC	; 252
    6fca:	21 e0       	ldi	r18, 0x01	; 1
    6fcc:	30 e0       	ldi	r19, 0x00	; 0
    6fce:	fc 01       	movw	r30, r24
    6fd0:	31 83       	std	Z+1, r19	; 0x01
    6fd2:	20 83       	st	Z, r18
    6fd4:	6d c0       	rjmp	.+218    	; 0x70b0 <__stack+0x4eb1>
    6fd6:	ce 01       	movw	r24, r28
    6fd8:	81 5d       	subi	r24, 0xD1	; 209
    6fda:	9c 4f       	sbci	r25, 0xFC	; 252
    6fdc:	20 e0       	ldi	r18, 0x00	; 0
    6fde:	3f ef       	ldi	r19, 0xFF	; 255
    6fe0:	4f e7       	ldi	r20, 0x7F	; 127
    6fe2:	57 e4       	ldi	r21, 0x47	; 71
    6fe4:	fc 01       	movw	r30, r24
    6fe6:	60 81       	ld	r22, Z
    6fe8:	71 81       	ldd	r23, Z+1	; 0x01
    6fea:	82 81       	ldd	r24, Z+2	; 0x02
    6fec:	93 81       	ldd	r25, Z+3	; 0x03
    6fee:	0e 94 61 50 	call	0xa0c2	; 0xa0c2 <__gesf2>
    6ff2:	18 16       	cp	r1, r24
    6ff4:	0c f0       	brlt	.+2      	; 0x6ff8 <__stack+0x4df9>
    6ff6:	4a c0       	rjmp	.+148    	; 0x708c <__stack+0x4e8d>
    6ff8:	ce 01       	movw	r24, r28
    6ffa:	81 53       	subi	r24, 0x31	; 49
    6ffc:	9f 4f       	sbci	r25, 0xFF	; 255
    6ffe:	20 e0       	ldi	r18, 0x00	; 0
    7000:	30 e0       	ldi	r19, 0x00	; 0
    7002:	40 e2       	ldi	r20, 0x20	; 32
    7004:	51 e4       	ldi	r21, 0x41	; 65
    7006:	fc 01       	movw	r30, r24
    7008:	60 81       	ld	r22, Z
    700a:	71 81       	ldd	r23, Z+1	; 0x01
    700c:	82 81       	ldd	r24, Z+2	; 0x02
    700e:	93 81       	ldd	r25, Z+3	; 0x03
    7010:	0e 94 65 50 	call	0xa0ca	; 0xa0ca <__mulsf3>
    7014:	dc 01       	movw	r26, r24
    7016:	cb 01       	movw	r24, r22
    7018:	8e 01       	movw	r16, r28
    701a:	0d 5c       	subi	r16, 0xCD	; 205
    701c:	1c 4f       	sbci	r17, 0xFC	; 252
    701e:	bc 01       	movw	r22, r24
    7020:	cd 01       	movw	r24, r26
    7022:	0e 94 e8 4f 	call	0x9fd0	; 0x9fd0 <__fixunssfsi>
    7026:	dc 01       	movw	r26, r24
    7028:	cb 01       	movw	r24, r22
    702a:	f8 01       	movw	r30, r16
    702c:	91 83       	std	Z+1, r25	; 0x01
    702e:	80 83       	st	Z, r24
    7030:	24 c0       	rjmp	.+72     	; 0x707a <__stack+0x4e7b>
    7032:	ce 01       	movw	r24, r28
    7034:	8b 5c       	subi	r24, 0xCB	; 203
    7036:	9c 4f       	sbci	r25, 0xFC	; 252
    7038:	20 e7       	ldi	r18, 0x70	; 112
    703a:	31 e0       	ldi	r19, 0x01	; 1
    703c:	fc 01       	movw	r30, r24
    703e:	31 83       	std	Z+1, r19	; 0x01
    7040:	20 83       	st	Z, r18
    7042:	ce 01       	movw	r24, r28
    7044:	8b 5c       	subi	r24, 0xCB	; 203
    7046:	9c 4f       	sbci	r25, 0xFC	; 252
    7048:	fc 01       	movw	r30, r24
    704a:	80 81       	ld	r24, Z
    704c:	91 81       	ldd	r25, Z+1	; 0x01
    704e:	01 97       	sbiw	r24, 0x01	; 1
    7050:	f1 f7       	brne	.-4      	; 0x704e <__stack+0x4e4f>
    7052:	9e 01       	movw	r18, r28
    7054:	2b 5c       	subi	r18, 0xCB	; 203
    7056:	3c 4f       	sbci	r19, 0xFC	; 252
    7058:	f9 01       	movw	r30, r18
    705a:	91 83       	std	Z+1, r25	; 0x01
    705c:	80 83       	st	Z, r24
    705e:	ce 01       	movw	r24, r28
    7060:	8d 5c       	subi	r24, 0xCD	; 205
    7062:	9c 4f       	sbci	r25, 0xFC	; 252
    7064:	9e 01       	movw	r18, r28
    7066:	2d 5c       	subi	r18, 0xCD	; 205
    7068:	3c 4f       	sbci	r19, 0xFC	; 252
    706a:	f9 01       	movw	r30, r18
    706c:	20 81       	ld	r18, Z
    706e:	31 81       	ldd	r19, Z+1	; 0x01
    7070:	21 50       	subi	r18, 0x01	; 1
    7072:	31 09       	sbc	r19, r1
    7074:	fc 01       	movw	r30, r24
    7076:	31 83       	std	Z+1, r19	; 0x01
    7078:	20 83       	st	Z, r18
    707a:	ce 01       	movw	r24, r28
    707c:	8d 5c       	subi	r24, 0xCD	; 205
    707e:	9c 4f       	sbci	r25, 0xFC	; 252
    7080:	fc 01       	movw	r30, r24
    7082:	80 81       	ld	r24, Z
    7084:	91 81       	ldd	r25, Z+1	; 0x01
    7086:	89 2b       	or	r24, r25
    7088:	a1 f6       	brne	.-88     	; 0x7032 <__stack+0x4e33>
    708a:	2c c0       	rjmp	.+88     	; 0x70e4 <__stack+0x4ee5>
    708c:	8e 01       	movw	r16, r28
    708e:	0d 5c       	subi	r16, 0xCD	; 205
    7090:	1c 4f       	sbci	r17, 0xFC	; 252
    7092:	ce 01       	movw	r24, r28
    7094:	81 5d       	subi	r24, 0xD1	; 209
    7096:	9c 4f       	sbci	r25, 0xFC	; 252
    7098:	fc 01       	movw	r30, r24
    709a:	60 81       	ld	r22, Z
    709c:	71 81       	ldd	r23, Z+1	; 0x01
    709e:	82 81       	ldd	r24, Z+2	; 0x02
    70a0:	93 81       	ldd	r25, Z+3	; 0x03
    70a2:	0e 94 e8 4f 	call	0x9fd0	; 0x9fd0 <__fixunssfsi>
    70a6:	dc 01       	movw	r26, r24
    70a8:	cb 01       	movw	r24, r22
    70aa:	f8 01       	movw	r30, r16
    70ac:	91 83       	std	Z+1, r25	; 0x01
    70ae:	80 83       	st	Z, r24
    70b0:	ce 01       	movw	r24, r28
    70b2:	89 5c       	subi	r24, 0xC9	; 201
    70b4:	9c 4f       	sbci	r25, 0xFC	; 252
    70b6:	9e 01       	movw	r18, r28
    70b8:	2d 5c       	subi	r18, 0xCD	; 205
    70ba:	3c 4f       	sbci	r19, 0xFC	; 252
    70bc:	f9 01       	movw	r30, r18
    70be:	20 81       	ld	r18, Z
    70c0:	31 81       	ldd	r19, Z+1	; 0x01
    70c2:	fc 01       	movw	r30, r24
    70c4:	31 83       	std	Z+1, r19	; 0x01
    70c6:	20 83       	st	Z, r18
    70c8:	ce 01       	movw	r24, r28
    70ca:	89 5c       	subi	r24, 0xC9	; 201
    70cc:	9c 4f       	sbci	r25, 0xFC	; 252
    70ce:	fc 01       	movw	r30, r24
    70d0:	80 81       	ld	r24, Z
    70d2:	91 81       	ldd	r25, Z+1	; 0x01
    70d4:	01 97       	sbiw	r24, 0x01	; 1
    70d6:	f1 f7       	brne	.-4      	; 0x70d4 <__stack+0x4ed5>
    70d8:	9e 01       	movw	r18, r28
    70da:	29 5c       	subi	r18, 0xC9	; 201
    70dc:	3c 4f       	sbci	r19, 0xFC	; 252
    70de:	f9 01       	movw	r30, r18
    70e0:	91 83       	std	Z+1, r25	; 0x01
    70e2:	80 83       	st	Z, r24
    70e4:	66 e9       	ldi	r22, 0x96	; 150
    70e6:	86 e9       	ldi	r24, 0x96	; 150
    70e8:	0e 94 52 0e 	call	0x1ca4	; 0x1ca4 <velocity>
    70ec:	0e 94 0c 0d 	call	0x1a18	; 0x1a18 <buzzer_on>
    70f0:	9e 01       	movw	r18, r28
    70f2:	25 54       	subi	r18, 0x45	; 69
    70f4:	3f 4f       	sbci	r19, 0xFF	; 255
    70f6:	80 e0       	ldi	r24, 0x00	; 0
    70f8:	90 e0       	ldi	r25, 0x00	; 0
    70fa:	a8 ec       	ldi	r26, 0xC8	; 200
    70fc:	b3 e4       	ldi	r27, 0x43	; 67
    70fe:	f9 01       	movw	r30, r18
    7100:	80 83       	st	Z, r24
    7102:	91 83       	std	Z+1, r25	; 0x01
    7104:	a2 83       	std	Z+2, r26	; 0x02
    7106:	b3 83       	std	Z+3, r27	; 0x03
    7108:	8e 01       	movw	r16, r28
    710a:	0b 5d       	subi	r16, 0xDB	; 219
    710c:	1c 4f       	sbci	r17, 0xFC	; 252
    710e:	ce 01       	movw	r24, r28
    7110:	85 54       	subi	r24, 0x45	; 69
    7112:	9f 4f       	sbci	r25, 0xFF	; 255
    7114:	26 e6       	ldi	r18, 0x66	; 102
    7116:	36 e6       	ldi	r19, 0x66	; 102
    7118:	46 e6       	ldi	r20, 0x66	; 102
    711a:	55 e4       	ldi	r21, 0x45	; 69
    711c:	fc 01       	movw	r30, r24
    711e:	60 81       	ld	r22, Z
    7120:	71 81       	ldd	r23, Z+1	; 0x01
    7122:	82 81       	ldd	r24, Z+2	; 0x02
    7124:	93 81       	ldd	r25, Z+3	; 0x03
    7126:	0e 94 65 50 	call	0xa0ca	; 0xa0ca <__mulsf3>
    712a:	dc 01       	movw	r26, r24
    712c:	cb 01       	movw	r24, r22
    712e:	f8 01       	movw	r30, r16
    7130:	80 83       	st	Z, r24
    7132:	91 83       	std	Z+1, r25	; 0x01
    7134:	a2 83       	std	Z+2, r26	; 0x02
    7136:	b3 83       	std	Z+3, r27	; 0x03
    7138:	ce 01       	movw	r24, r28
    713a:	8b 5d       	subi	r24, 0xDB	; 219
    713c:	9c 4f       	sbci	r25, 0xFC	; 252
    713e:	20 e0       	ldi	r18, 0x00	; 0
    7140:	30 e0       	ldi	r19, 0x00	; 0
    7142:	40 e8       	ldi	r20, 0x80	; 128
    7144:	5f e3       	ldi	r21, 0x3F	; 63
    7146:	fc 01       	movw	r30, r24
    7148:	60 81       	ld	r22, Z
    714a:	71 81       	ldd	r23, Z+1	; 0x01
    714c:	82 81       	ldd	r24, Z+2	; 0x02
    714e:	93 81       	ldd	r25, Z+3	; 0x03
    7150:	0e 94 e4 4f 	call	0x9fc8	; 0x9fc8 <__cmpsf2>
    7154:	88 23       	and	r24, r24
    7156:	4c f4       	brge	.+18     	; 0x716a <__stack+0x4f6b>
    7158:	ce 01       	movw	r24, r28
    715a:	87 5d       	subi	r24, 0xD7	; 215
    715c:	9c 4f       	sbci	r25, 0xFC	; 252
    715e:	21 e0       	ldi	r18, 0x01	; 1
    7160:	30 e0       	ldi	r19, 0x00	; 0
    7162:	fc 01       	movw	r30, r24
    7164:	31 83       	std	Z+1, r19	; 0x01
    7166:	20 83       	st	Z, r18
    7168:	6d c0       	rjmp	.+218    	; 0x7244 <__stack+0x5045>
    716a:	ce 01       	movw	r24, r28
    716c:	8b 5d       	subi	r24, 0xDB	; 219
    716e:	9c 4f       	sbci	r25, 0xFC	; 252
    7170:	20 e0       	ldi	r18, 0x00	; 0
    7172:	3f ef       	ldi	r19, 0xFF	; 255
    7174:	4f e7       	ldi	r20, 0x7F	; 127
    7176:	57 e4       	ldi	r21, 0x47	; 71
    7178:	fc 01       	movw	r30, r24
    717a:	60 81       	ld	r22, Z
    717c:	71 81       	ldd	r23, Z+1	; 0x01
    717e:	82 81       	ldd	r24, Z+2	; 0x02
    7180:	93 81       	ldd	r25, Z+3	; 0x03
    7182:	0e 94 61 50 	call	0xa0c2	; 0xa0c2 <__gesf2>
    7186:	18 16       	cp	r1, r24
    7188:	0c f0       	brlt	.+2      	; 0x718c <__stack+0x4f8d>
    718a:	4a c0       	rjmp	.+148    	; 0x7220 <__stack+0x5021>
    718c:	ce 01       	movw	r24, r28
    718e:	85 54       	subi	r24, 0x45	; 69
    7190:	9f 4f       	sbci	r25, 0xFF	; 255
    7192:	20 e0       	ldi	r18, 0x00	; 0
    7194:	30 e0       	ldi	r19, 0x00	; 0
    7196:	40 e2       	ldi	r20, 0x20	; 32
    7198:	51 e4       	ldi	r21, 0x41	; 65
    719a:	fc 01       	movw	r30, r24
    719c:	60 81       	ld	r22, Z
    719e:	71 81       	ldd	r23, Z+1	; 0x01
    71a0:	82 81       	ldd	r24, Z+2	; 0x02
    71a2:	93 81       	ldd	r25, Z+3	; 0x03
    71a4:	0e 94 65 50 	call	0xa0ca	; 0xa0ca <__mulsf3>
    71a8:	dc 01       	movw	r26, r24
    71aa:	cb 01       	movw	r24, r22
    71ac:	8e 01       	movw	r16, r28
    71ae:	07 5d       	subi	r16, 0xD7	; 215
    71b0:	1c 4f       	sbci	r17, 0xFC	; 252
    71b2:	bc 01       	movw	r22, r24
    71b4:	cd 01       	movw	r24, r26
    71b6:	0e 94 e8 4f 	call	0x9fd0	; 0x9fd0 <__fixunssfsi>
    71ba:	dc 01       	movw	r26, r24
    71bc:	cb 01       	movw	r24, r22
    71be:	f8 01       	movw	r30, r16
    71c0:	91 83       	std	Z+1, r25	; 0x01
    71c2:	80 83       	st	Z, r24
    71c4:	24 c0       	rjmp	.+72     	; 0x720e <__stack+0x500f>
    71c6:	ce 01       	movw	r24, r28
    71c8:	85 5d       	subi	r24, 0xD5	; 213
    71ca:	9c 4f       	sbci	r25, 0xFC	; 252
    71cc:	20 e7       	ldi	r18, 0x70	; 112
    71ce:	31 e0       	ldi	r19, 0x01	; 1
    71d0:	fc 01       	movw	r30, r24
    71d2:	31 83       	std	Z+1, r19	; 0x01
    71d4:	20 83       	st	Z, r18
    71d6:	ce 01       	movw	r24, r28
    71d8:	85 5d       	subi	r24, 0xD5	; 213
    71da:	9c 4f       	sbci	r25, 0xFC	; 252
    71dc:	fc 01       	movw	r30, r24
    71de:	80 81       	ld	r24, Z
    71e0:	91 81       	ldd	r25, Z+1	; 0x01
    71e2:	01 97       	sbiw	r24, 0x01	; 1
    71e4:	f1 f7       	brne	.-4      	; 0x71e2 <__stack+0x4fe3>
    71e6:	9e 01       	movw	r18, r28
    71e8:	25 5d       	subi	r18, 0xD5	; 213
    71ea:	3c 4f       	sbci	r19, 0xFC	; 252
    71ec:	f9 01       	movw	r30, r18
    71ee:	91 83       	std	Z+1, r25	; 0x01
    71f0:	80 83       	st	Z, r24
    71f2:	ce 01       	movw	r24, r28
    71f4:	87 5d       	subi	r24, 0xD7	; 215
    71f6:	9c 4f       	sbci	r25, 0xFC	; 252
    71f8:	9e 01       	movw	r18, r28
    71fa:	27 5d       	subi	r18, 0xD7	; 215
    71fc:	3c 4f       	sbci	r19, 0xFC	; 252
    71fe:	f9 01       	movw	r30, r18
    7200:	20 81       	ld	r18, Z
    7202:	31 81       	ldd	r19, Z+1	; 0x01
    7204:	21 50       	subi	r18, 0x01	; 1
    7206:	31 09       	sbc	r19, r1
    7208:	fc 01       	movw	r30, r24
    720a:	31 83       	std	Z+1, r19	; 0x01
    720c:	20 83       	st	Z, r18
    720e:	ce 01       	movw	r24, r28
    7210:	87 5d       	subi	r24, 0xD7	; 215
    7212:	9c 4f       	sbci	r25, 0xFC	; 252
    7214:	fc 01       	movw	r30, r24
    7216:	80 81       	ld	r24, Z
    7218:	91 81       	ldd	r25, Z+1	; 0x01
    721a:	89 2b       	or	r24, r25
    721c:	a1 f6       	brne	.-88     	; 0x71c6 <__stack+0x4fc7>
    721e:	2c c0       	rjmp	.+88     	; 0x7278 <__stack+0x5079>
    7220:	8e 01       	movw	r16, r28
    7222:	07 5d       	subi	r16, 0xD7	; 215
    7224:	1c 4f       	sbci	r17, 0xFC	; 252
    7226:	ce 01       	movw	r24, r28
    7228:	8b 5d       	subi	r24, 0xDB	; 219
    722a:	9c 4f       	sbci	r25, 0xFC	; 252
    722c:	fc 01       	movw	r30, r24
    722e:	60 81       	ld	r22, Z
    7230:	71 81       	ldd	r23, Z+1	; 0x01
    7232:	82 81       	ldd	r24, Z+2	; 0x02
    7234:	93 81       	ldd	r25, Z+3	; 0x03
    7236:	0e 94 e8 4f 	call	0x9fd0	; 0x9fd0 <__fixunssfsi>
    723a:	dc 01       	movw	r26, r24
    723c:	cb 01       	movw	r24, r22
    723e:	f8 01       	movw	r30, r16
    7240:	91 83       	std	Z+1, r25	; 0x01
    7242:	80 83       	st	Z, r24
    7244:	ce 01       	movw	r24, r28
    7246:	83 5d       	subi	r24, 0xD3	; 211
    7248:	9c 4f       	sbci	r25, 0xFC	; 252
    724a:	9e 01       	movw	r18, r28
    724c:	27 5d       	subi	r18, 0xD7	; 215
    724e:	3c 4f       	sbci	r19, 0xFC	; 252
    7250:	f9 01       	movw	r30, r18
    7252:	20 81       	ld	r18, Z
    7254:	31 81       	ldd	r19, Z+1	; 0x01
    7256:	fc 01       	movw	r30, r24
    7258:	31 83       	std	Z+1, r19	; 0x01
    725a:	20 83       	st	Z, r18
    725c:	ce 01       	movw	r24, r28
    725e:	83 5d       	subi	r24, 0xD3	; 211
    7260:	9c 4f       	sbci	r25, 0xFC	; 252
    7262:	fc 01       	movw	r30, r24
    7264:	80 81       	ld	r24, Z
    7266:	91 81       	ldd	r25, Z+1	; 0x01
    7268:	01 97       	sbiw	r24, 0x01	; 1
    726a:	f1 f7       	brne	.-4      	; 0x7268 <__stack+0x5069>
    726c:	9e 01       	movw	r18, r28
    726e:	23 5d       	subi	r18, 0xD3	; 211
    7270:	3c 4f       	sbci	r19, 0xFC	; 252
    7272:	f9 01       	movw	r30, r18
    7274:	91 83       	std	Z+1, r25	; 0x01
    7276:	80 83       	st	Z, r24
    7278:	0e 94 1d 0d 	call	0x1a3a	; 0x1a3a <buzzer_off>
    727c:	8b 81       	ldd	r24, Y+3	; 0x03
    727e:	9c 81       	ldd	r25, Y+4	; 0x04
    7280:	05 97       	sbiw	r24, 0x05	; 5
    7282:	69 f0       	breq	.+26     	; 0x729e <__stack+0x509f>
    7284:	8b 81       	ldd	r24, Y+3	; 0x03
    7286:	9c 81       	ldd	r25, Y+4	; 0x04
    7288:	06 97       	sbiw	r24, 0x06	; 6
    728a:	49 f0       	breq	.+18     	; 0x729e <__stack+0x509f>
    728c:	8b 81       	ldd	r24, Y+3	; 0x03
    728e:	9c 81       	ldd	r25, Y+4	; 0x04
    7290:	0f 97       	sbiw	r24, 0x0f	; 15
    7292:	29 f0       	breq	.+10     	; 0x729e <__stack+0x509f>
    7294:	8b 81       	ldd	r24, Y+3	; 0x03
    7296:	9c 81       	ldd	r25, Y+4	; 0x04
    7298:	40 97       	sbiw	r24, 0x10	; 16
    729a:	09 f0       	breq	.+2      	; 0x729e <__stack+0x509f>
    729c:	8c c1       	rjmp	.+792    	; 0x75b6 <__stack+0x53b7>
    729e:	0e 94 8c 0e 	call	0x1d18	; 0x1d18 <forward>
    72a2:	9e 01       	movw	r18, r28
    72a4:	29 52       	subi	r18, 0x29	; 41
    72a6:	3f 4f       	sbci	r19, 0xFF	; 255
    72a8:	80 e0       	ldi	r24, 0x00	; 0
    72aa:	90 e0       	ldi	r25, 0x00	; 0
    72ac:	a8 ec       	ldi	r26, 0xC8	; 200
    72ae:	b2 e4       	ldi	r27, 0x42	; 66
    72b0:	f9 01       	movw	r30, r18
    72b2:	80 83       	st	Z, r24
    72b4:	91 83       	std	Z+1, r25	; 0x01
    72b6:	a2 83       	std	Z+2, r26	; 0x02
    72b8:	b3 83       	std	Z+3, r27	; 0x03
    72ba:	8e 01       	movw	r16, r28
    72bc:	0d 5b       	subi	r16, 0xBD	; 189
    72be:	1c 4f       	sbci	r17, 0xFC	; 252
    72c0:	ce 01       	movw	r24, r28
    72c2:	89 52       	subi	r24, 0x29	; 41
    72c4:	9f 4f       	sbci	r25, 0xFF	; 255
    72c6:	26 e6       	ldi	r18, 0x66	; 102
    72c8:	36 e6       	ldi	r19, 0x66	; 102
    72ca:	46 e6       	ldi	r20, 0x66	; 102
    72cc:	55 e4       	ldi	r21, 0x45	; 69
    72ce:	fc 01       	movw	r30, r24
    72d0:	60 81       	ld	r22, Z
    72d2:	71 81       	ldd	r23, Z+1	; 0x01
    72d4:	82 81       	ldd	r24, Z+2	; 0x02
    72d6:	93 81       	ldd	r25, Z+3	; 0x03
    72d8:	0e 94 65 50 	call	0xa0ca	; 0xa0ca <__mulsf3>
    72dc:	dc 01       	movw	r26, r24
    72de:	cb 01       	movw	r24, r22
    72e0:	f8 01       	movw	r30, r16
    72e2:	80 83       	st	Z, r24
    72e4:	91 83       	std	Z+1, r25	; 0x01
    72e6:	a2 83       	std	Z+2, r26	; 0x02
    72e8:	b3 83       	std	Z+3, r27	; 0x03
    72ea:	ce 01       	movw	r24, r28
    72ec:	8d 5b       	subi	r24, 0xBD	; 189
    72ee:	9c 4f       	sbci	r25, 0xFC	; 252
    72f0:	20 e0       	ldi	r18, 0x00	; 0
    72f2:	30 e0       	ldi	r19, 0x00	; 0
    72f4:	40 e8       	ldi	r20, 0x80	; 128
    72f6:	5f e3       	ldi	r21, 0x3F	; 63
    72f8:	fc 01       	movw	r30, r24
    72fa:	60 81       	ld	r22, Z
    72fc:	71 81       	ldd	r23, Z+1	; 0x01
    72fe:	82 81       	ldd	r24, Z+2	; 0x02
    7300:	93 81       	ldd	r25, Z+3	; 0x03
    7302:	0e 94 e4 4f 	call	0x9fc8	; 0x9fc8 <__cmpsf2>
    7306:	88 23       	and	r24, r24
    7308:	4c f4       	brge	.+18     	; 0x731c <__stack+0x511d>
    730a:	ce 01       	movw	r24, r28
    730c:	89 5b       	subi	r24, 0xB9	; 185
    730e:	9c 4f       	sbci	r25, 0xFC	; 252
    7310:	21 e0       	ldi	r18, 0x01	; 1
    7312:	30 e0       	ldi	r19, 0x00	; 0
    7314:	fc 01       	movw	r30, r24
    7316:	31 83       	std	Z+1, r19	; 0x01
    7318:	20 83       	st	Z, r18
    731a:	6d c0       	rjmp	.+218    	; 0x73f6 <__stack+0x51f7>
    731c:	ce 01       	movw	r24, r28
    731e:	8d 5b       	subi	r24, 0xBD	; 189
    7320:	9c 4f       	sbci	r25, 0xFC	; 252
    7322:	20 e0       	ldi	r18, 0x00	; 0
    7324:	3f ef       	ldi	r19, 0xFF	; 255
    7326:	4f e7       	ldi	r20, 0x7F	; 127
    7328:	57 e4       	ldi	r21, 0x47	; 71
    732a:	fc 01       	movw	r30, r24
    732c:	60 81       	ld	r22, Z
    732e:	71 81       	ldd	r23, Z+1	; 0x01
    7330:	82 81       	ldd	r24, Z+2	; 0x02
    7332:	93 81       	ldd	r25, Z+3	; 0x03
    7334:	0e 94 61 50 	call	0xa0c2	; 0xa0c2 <__gesf2>
    7338:	18 16       	cp	r1, r24
    733a:	0c f0       	brlt	.+2      	; 0x733e <__stack+0x513f>
    733c:	4a c0       	rjmp	.+148    	; 0x73d2 <__stack+0x51d3>
    733e:	ce 01       	movw	r24, r28
    7340:	89 52       	subi	r24, 0x29	; 41
    7342:	9f 4f       	sbci	r25, 0xFF	; 255
    7344:	20 e0       	ldi	r18, 0x00	; 0
    7346:	30 e0       	ldi	r19, 0x00	; 0
    7348:	40 e2       	ldi	r20, 0x20	; 32
    734a:	51 e4       	ldi	r21, 0x41	; 65
    734c:	fc 01       	movw	r30, r24
    734e:	60 81       	ld	r22, Z
    7350:	71 81       	ldd	r23, Z+1	; 0x01
    7352:	82 81       	ldd	r24, Z+2	; 0x02
    7354:	93 81       	ldd	r25, Z+3	; 0x03
    7356:	0e 94 65 50 	call	0xa0ca	; 0xa0ca <__mulsf3>
    735a:	dc 01       	movw	r26, r24
    735c:	cb 01       	movw	r24, r22
    735e:	8e 01       	movw	r16, r28
    7360:	09 5b       	subi	r16, 0xB9	; 185
    7362:	1c 4f       	sbci	r17, 0xFC	; 252
    7364:	bc 01       	movw	r22, r24
    7366:	cd 01       	movw	r24, r26
    7368:	0e 94 e8 4f 	call	0x9fd0	; 0x9fd0 <__fixunssfsi>
    736c:	dc 01       	movw	r26, r24
    736e:	cb 01       	movw	r24, r22
    7370:	f8 01       	movw	r30, r16
    7372:	91 83       	std	Z+1, r25	; 0x01
    7374:	80 83       	st	Z, r24
    7376:	24 c0       	rjmp	.+72     	; 0x73c0 <__stack+0x51c1>
    7378:	ce 01       	movw	r24, r28
    737a:	87 5b       	subi	r24, 0xB7	; 183
    737c:	9c 4f       	sbci	r25, 0xFC	; 252
    737e:	20 e7       	ldi	r18, 0x70	; 112
    7380:	31 e0       	ldi	r19, 0x01	; 1
    7382:	fc 01       	movw	r30, r24
    7384:	31 83       	std	Z+1, r19	; 0x01
    7386:	20 83       	st	Z, r18
    7388:	ce 01       	movw	r24, r28
    738a:	87 5b       	subi	r24, 0xB7	; 183
    738c:	9c 4f       	sbci	r25, 0xFC	; 252
    738e:	fc 01       	movw	r30, r24
    7390:	80 81       	ld	r24, Z
    7392:	91 81       	ldd	r25, Z+1	; 0x01
    7394:	01 97       	sbiw	r24, 0x01	; 1
    7396:	f1 f7       	brne	.-4      	; 0x7394 <__stack+0x5195>
    7398:	9e 01       	movw	r18, r28
    739a:	27 5b       	subi	r18, 0xB7	; 183
    739c:	3c 4f       	sbci	r19, 0xFC	; 252
    739e:	f9 01       	movw	r30, r18
    73a0:	91 83       	std	Z+1, r25	; 0x01
    73a2:	80 83       	st	Z, r24
    73a4:	ce 01       	movw	r24, r28
    73a6:	89 5b       	subi	r24, 0xB9	; 185
    73a8:	9c 4f       	sbci	r25, 0xFC	; 252
    73aa:	9e 01       	movw	r18, r28
    73ac:	29 5b       	subi	r18, 0xB9	; 185
    73ae:	3c 4f       	sbci	r19, 0xFC	; 252
    73b0:	f9 01       	movw	r30, r18
    73b2:	20 81       	ld	r18, Z
    73b4:	31 81       	ldd	r19, Z+1	; 0x01
    73b6:	21 50       	subi	r18, 0x01	; 1
    73b8:	31 09       	sbc	r19, r1
    73ba:	fc 01       	movw	r30, r24
    73bc:	31 83       	std	Z+1, r19	; 0x01
    73be:	20 83       	st	Z, r18
    73c0:	ce 01       	movw	r24, r28
    73c2:	89 5b       	subi	r24, 0xB9	; 185
    73c4:	9c 4f       	sbci	r25, 0xFC	; 252
    73c6:	fc 01       	movw	r30, r24
    73c8:	80 81       	ld	r24, Z
    73ca:	91 81       	ldd	r25, Z+1	; 0x01
    73cc:	89 2b       	or	r24, r25
    73ce:	a1 f6       	brne	.-88     	; 0x7378 <__stack+0x5179>
    73d0:	2c c0       	rjmp	.+88     	; 0x742a <__stack+0x522b>
    73d2:	8e 01       	movw	r16, r28
    73d4:	09 5b       	subi	r16, 0xB9	; 185
    73d6:	1c 4f       	sbci	r17, 0xFC	; 252
    73d8:	ce 01       	movw	r24, r28
    73da:	8d 5b       	subi	r24, 0xBD	; 189
    73dc:	9c 4f       	sbci	r25, 0xFC	; 252
    73de:	fc 01       	movw	r30, r24
    73e0:	60 81       	ld	r22, Z
    73e2:	71 81       	ldd	r23, Z+1	; 0x01
    73e4:	82 81       	ldd	r24, Z+2	; 0x02
    73e6:	93 81       	ldd	r25, Z+3	; 0x03
    73e8:	0e 94 e8 4f 	call	0x9fd0	; 0x9fd0 <__fixunssfsi>
    73ec:	dc 01       	movw	r26, r24
    73ee:	cb 01       	movw	r24, r22
    73f0:	f8 01       	movw	r30, r16
    73f2:	91 83       	std	Z+1, r25	; 0x01
    73f4:	80 83       	st	Z, r24
    73f6:	ce 01       	movw	r24, r28
    73f8:	85 5b       	subi	r24, 0xB5	; 181
    73fa:	9c 4f       	sbci	r25, 0xFC	; 252
    73fc:	9e 01       	movw	r18, r28
    73fe:	29 5b       	subi	r18, 0xB9	; 185
    7400:	3c 4f       	sbci	r19, 0xFC	; 252
    7402:	f9 01       	movw	r30, r18
    7404:	20 81       	ld	r18, Z
    7406:	31 81       	ldd	r19, Z+1	; 0x01
    7408:	fc 01       	movw	r30, r24
    740a:	31 83       	std	Z+1, r19	; 0x01
    740c:	20 83       	st	Z, r18
    740e:	ce 01       	movw	r24, r28
    7410:	85 5b       	subi	r24, 0xB5	; 181
    7412:	9c 4f       	sbci	r25, 0xFC	; 252
    7414:	fc 01       	movw	r30, r24
    7416:	80 81       	ld	r24, Z
    7418:	91 81       	ldd	r25, Z+1	; 0x01
    741a:	01 97       	sbiw	r24, 0x01	; 1
    741c:	f1 f7       	brne	.-4      	; 0x741a <__stack+0x521b>
    741e:	9e 01       	movw	r18, r28
    7420:	25 5b       	subi	r18, 0xB5	; 181
    7422:	3c 4f       	sbci	r19, 0xFC	; 252
    7424:	f9 01       	movw	r30, r18
    7426:	91 83       	std	Z+1, r25	; 0x01
    7428:	80 83       	st	Z, r24
    742a:	0e 94 96 0e 	call	0x1d2c	; 0x1d2c <left>
    742e:	9e 01       	movw	r18, r28
    7430:	25 53       	subi	r18, 0x35	; 53
    7432:	3f 4f       	sbci	r19, 0xFF	; 255
    7434:	80 e0       	ldi	r24, 0x00	; 0
    7436:	90 e8       	ldi	r25, 0x80	; 128
    7438:	a2 ea       	ldi	r26, 0xA2	; 162
    743a:	b4 e4       	ldi	r27, 0x44	; 68
    743c:	f9 01       	movw	r30, r18
    743e:	80 83       	st	Z, r24
    7440:	91 83       	std	Z+1, r25	; 0x01
    7442:	a2 83       	std	Z+2, r26	; 0x02
    7444:	b3 83       	std	Z+3, r27	; 0x03
    7446:	8e 01       	movw	r16, r28
    7448:	07 5c       	subi	r16, 0xC7	; 199
    744a:	1c 4f       	sbci	r17, 0xFC	; 252
    744c:	ce 01       	movw	r24, r28
    744e:	85 53       	subi	r24, 0x35	; 53
    7450:	9f 4f       	sbci	r25, 0xFF	; 255
    7452:	26 e6       	ldi	r18, 0x66	; 102
    7454:	36 e6       	ldi	r19, 0x66	; 102
    7456:	46 e6       	ldi	r20, 0x66	; 102
    7458:	55 e4       	ldi	r21, 0x45	; 69
    745a:	fc 01       	movw	r30, r24
    745c:	60 81       	ld	r22, Z
    745e:	71 81       	ldd	r23, Z+1	; 0x01
    7460:	82 81       	ldd	r24, Z+2	; 0x02
    7462:	93 81       	ldd	r25, Z+3	; 0x03
    7464:	0e 94 65 50 	call	0xa0ca	; 0xa0ca <__mulsf3>
    7468:	dc 01       	movw	r26, r24
    746a:	cb 01       	movw	r24, r22
    746c:	f8 01       	movw	r30, r16
    746e:	80 83       	st	Z, r24
    7470:	91 83       	std	Z+1, r25	; 0x01
    7472:	a2 83       	std	Z+2, r26	; 0x02
    7474:	b3 83       	std	Z+3, r27	; 0x03
    7476:	ce 01       	movw	r24, r28
    7478:	87 5c       	subi	r24, 0xC7	; 199
    747a:	9c 4f       	sbci	r25, 0xFC	; 252
    747c:	20 e0       	ldi	r18, 0x00	; 0
    747e:	30 e0       	ldi	r19, 0x00	; 0
    7480:	40 e8       	ldi	r20, 0x80	; 128
    7482:	5f e3       	ldi	r21, 0x3F	; 63
    7484:	fc 01       	movw	r30, r24
    7486:	60 81       	ld	r22, Z
    7488:	71 81       	ldd	r23, Z+1	; 0x01
    748a:	82 81       	ldd	r24, Z+2	; 0x02
    748c:	93 81       	ldd	r25, Z+3	; 0x03
    748e:	0e 94 e4 4f 	call	0x9fc8	; 0x9fc8 <__cmpsf2>
    7492:	88 23       	and	r24, r24
    7494:	4c f4       	brge	.+18     	; 0x74a8 <__stack+0x52a9>
    7496:	ce 01       	movw	r24, r28
    7498:	83 5c       	subi	r24, 0xC3	; 195
    749a:	9c 4f       	sbci	r25, 0xFC	; 252
    749c:	21 e0       	ldi	r18, 0x01	; 1
    749e:	30 e0       	ldi	r19, 0x00	; 0
    74a0:	fc 01       	movw	r30, r24
    74a2:	31 83       	std	Z+1, r19	; 0x01
    74a4:	20 83       	st	Z, r18
    74a6:	6d c0       	rjmp	.+218    	; 0x7582 <__stack+0x5383>
    74a8:	ce 01       	movw	r24, r28
    74aa:	87 5c       	subi	r24, 0xC7	; 199
    74ac:	9c 4f       	sbci	r25, 0xFC	; 252
    74ae:	20 e0       	ldi	r18, 0x00	; 0
    74b0:	3f ef       	ldi	r19, 0xFF	; 255
    74b2:	4f e7       	ldi	r20, 0x7F	; 127
    74b4:	57 e4       	ldi	r21, 0x47	; 71
    74b6:	fc 01       	movw	r30, r24
    74b8:	60 81       	ld	r22, Z
    74ba:	71 81       	ldd	r23, Z+1	; 0x01
    74bc:	82 81       	ldd	r24, Z+2	; 0x02
    74be:	93 81       	ldd	r25, Z+3	; 0x03
    74c0:	0e 94 61 50 	call	0xa0c2	; 0xa0c2 <__gesf2>
    74c4:	18 16       	cp	r1, r24
    74c6:	0c f0       	brlt	.+2      	; 0x74ca <__stack+0x52cb>
    74c8:	4a c0       	rjmp	.+148    	; 0x755e <__stack+0x535f>
    74ca:	ce 01       	movw	r24, r28
    74cc:	85 53       	subi	r24, 0x35	; 53
    74ce:	9f 4f       	sbci	r25, 0xFF	; 255
    74d0:	20 e0       	ldi	r18, 0x00	; 0
    74d2:	30 e0       	ldi	r19, 0x00	; 0
    74d4:	40 e2       	ldi	r20, 0x20	; 32
    74d6:	51 e4       	ldi	r21, 0x41	; 65
    74d8:	fc 01       	movw	r30, r24
    74da:	60 81       	ld	r22, Z
    74dc:	71 81       	ldd	r23, Z+1	; 0x01
    74de:	82 81       	ldd	r24, Z+2	; 0x02
    74e0:	93 81       	ldd	r25, Z+3	; 0x03
    74e2:	0e 94 65 50 	call	0xa0ca	; 0xa0ca <__mulsf3>
    74e6:	dc 01       	movw	r26, r24
    74e8:	cb 01       	movw	r24, r22
    74ea:	8e 01       	movw	r16, r28
    74ec:	03 5c       	subi	r16, 0xC3	; 195
    74ee:	1c 4f       	sbci	r17, 0xFC	; 252
    74f0:	bc 01       	movw	r22, r24
    74f2:	cd 01       	movw	r24, r26
    74f4:	0e 94 e8 4f 	call	0x9fd0	; 0x9fd0 <__fixunssfsi>
    74f8:	dc 01       	movw	r26, r24
    74fa:	cb 01       	movw	r24, r22
    74fc:	f8 01       	movw	r30, r16
    74fe:	91 83       	std	Z+1, r25	; 0x01
    7500:	80 83       	st	Z, r24
    7502:	24 c0       	rjmp	.+72     	; 0x754c <__stack+0x534d>
    7504:	ce 01       	movw	r24, r28
    7506:	81 5c       	subi	r24, 0xC1	; 193
    7508:	9c 4f       	sbci	r25, 0xFC	; 252
    750a:	20 e7       	ldi	r18, 0x70	; 112
    750c:	31 e0       	ldi	r19, 0x01	; 1
    750e:	fc 01       	movw	r30, r24
    7510:	31 83       	std	Z+1, r19	; 0x01
    7512:	20 83       	st	Z, r18
    7514:	ce 01       	movw	r24, r28
    7516:	81 5c       	subi	r24, 0xC1	; 193
    7518:	9c 4f       	sbci	r25, 0xFC	; 252
    751a:	fc 01       	movw	r30, r24
    751c:	80 81       	ld	r24, Z
    751e:	91 81       	ldd	r25, Z+1	; 0x01
    7520:	01 97       	sbiw	r24, 0x01	; 1
    7522:	f1 f7       	brne	.-4      	; 0x7520 <__stack+0x5321>
    7524:	9e 01       	movw	r18, r28
    7526:	21 5c       	subi	r18, 0xC1	; 193
    7528:	3c 4f       	sbci	r19, 0xFC	; 252
    752a:	f9 01       	movw	r30, r18
    752c:	91 83       	std	Z+1, r25	; 0x01
    752e:	80 83       	st	Z, r24
    7530:	ce 01       	movw	r24, r28
    7532:	83 5c       	subi	r24, 0xC3	; 195
    7534:	9c 4f       	sbci	r25, 0xFC	; 252
    7536:	9e 01       	movw	r18, r28
    7538:	23 5c       	subi	r18, 0xC3	; 195
    753a:	3c 4f       	sbci	r19, 0xFC	; 252
    753c:	f9 01       	movw	r30, r18
    753e:	20 81       	ld	r18, Z
    7540:	31 81       	ldd	r19, Z+1	; 0x01
    7542:	21 50       	subi	r18, 0x01	; 1
    7544:	31 09       	sbc	r19, r1
    7546:	fc 01       	movw	r30, r24
    7548:	31 83       	std	Z+1, r19	; 0x01
    754a:	20 83       	st	Z, r18
    754c:	ce 01       	movw	r24, r28
    754e:	83 5c       	subi	r24, 0xC3	; 195
    7550:	9c 4f       	sbci	r25, 0xFC	; 252
    7552:	fc 01       	movw	r30, r24
    7554:	80 81       	ld	r24, Z
    7556:	91 81       	ldd	r25, Z+1	; 0x01
    7558:	89 2b       	or	r24, r25
    755a:	a1 f6       	brne	.-88     	; 0x7504 <__stack+0x5305>
    755c:	2c c0       	rjmp	.+88     	; 0x75b6 <__stack+0x53b7>
    755e:	8e 01       	movw	r16, r28
    7560:	03 5c       	subi	r16, 0xC3	; 195
    7562:	1c 4f       	sbci	r17, 0xFC	; 252
    7564:	ce 01       	movw	r24, r28
    7566:	87 5c       	subi	r24, 0xC7	; 199
    7568:	9c 4f       	sbci	r25, 0xFC	; 252
    756a:	fc 01       	movw	r30, r24
    756c:	60 81       	ld	r22, Z
    756e:	71 81       	ldd	r23, Z+1	; 0x01
    7570:	82 81       	ldd	r24, Z+2	; 0x02
    7572:	93 81       	ldd	r25, Z+3	; 0x03
    7574:	0e 94 e8 4f 	call	0x9fd0	; 0x9fd0 <__fixunssfsi>
    7578:	dc 01       	movw	r26, r24
    757a:	cb 01       	movw	r24, r22
    757c:	f8 01       	movw	r30, r16
    757e:	91 83       	std	Z+1, r25	; 0x01
    7580:	80 83       	st	Z, r24
    7582:	ce 01       	movw	r24, r28
    7584:	8f 5b       	subi	r24, 0xBF	; 191
    7586:	9c 4f       	sbci	r25, 0xFC	; 252
    7588:	9e 01       	movw	r18, r28
    758a:	23 5c       	subi	r18, 0xC3	; 195
    758c:	3c 4f       	sbci	r19, 0xFC	; 252
    758e:	f9 01       	movw	r30, r18
    7590:	20 81       	ld	r18, Z
    7592:	31 81       	ldd	r19, Z+1	; 0x01
    7594:	fc 01       	movw	r30, r24
    7596:	31 83       	std	Z+1, r19	; 0x01
    7598:	20 83       	st	Z, r18
    759a:	ce 01       	movw	r24, r28
    759c:	8f 5b       	subi	r24, 0xBF	; 191
    759e:	9c 4f       	sbci	r25, 0xFC	; 252
    75a0:	fc 01       	movw	r30, r24
    75a2:	80 81       	ld	r24, Z
    75a4:	91 81       	ldd	r25, Z+1	; 0x01
    75a6:	01 97       	sbiw	r24, 0x01	; 1
    75a8:	f1 f7       	brne	.-4      	; 0x75a6 <__stack+0x53a7>
    75aa:	9e 01       	movw	r18, r28
    75ac:	2f 5b       	subi	r18, 0xBF	; 191
    75ae:	3c 4f       	sbci	r19, 0xFC	; 252
    75b0:	f9 01       	movw	r30, r18
    75b2:	91 83       	std	Z+1, r25	; 0x01
    75b4:	80 83       	st	Z, r24
    75b6:	8b 81       	ldd	r24, Y+3	; 0x03
    75b8:	9c 81       	ldd	r25, Y+4	; 0x04
    75ba:	0a 97       	sbiw	r24, 0x0a	; 10
    75bc:	69 f0       	breq	.+26     	; 0x75d8 <__stack+0x53d9>
    75be:	8b 81       	ldd	r24, Y+3	; 0x03
    75c0:	9c 81       	ldd	r25, Y+4	; 0x04
    75c2:	0b 97       	sbiw	r24, 0x0b	; 11
    75c4:	49 f0       	breq	.+18     	; 0x75d8 <__stack+0x53d9>
    75c6:	8b 81       	ldd	r24, Y+3	; 0x03
    75c8:	9c 81       	ldd	r25, Y+4	; 0x04
    75ca:	44 97       	sbiw	r24, 0x14	; 20
    75cc:	29 f0       	breq	.+10     	; 0x75d8 <__stack+0x53d9>
    75ce:	8b 81       	ldd	r24, Y+3	; 0x03
    75d0:	9c 81       	ldd	r25, Y+4	; 0x04
    75d2:	45 97       	sbiw	r24, 0x15	; 21
    75d4:	09 f0       	breq	.+2      	; 0x75d8 <__stack+0x53d9>
    75d6:	8c c1       	rjmp	.+792    	; 0x78f0 <__stack+0x56f1>
    75d8:	0e 94 8c 0e 	call	0x1d18	; 0x1d18 <forward>
    75dc:	9e 01       	movw	r18, r28
    75de:	21 52       	subi	r18, 0x21	; 33
    75e0:	3f 4f       	sbci	r19, 0xFF	; 255
    75e2:	80 e0       	ldi	r24, 0x00	; 0
    75e4:	90 e0       	ldi	r25, 0x00	; 0
    75e6:	a8 ec       	ldi	r26, 0xC8	; 200
    75e8:	b2 e4       	ldi	r27, 0x42	; 66
    75ea:	f9 01       	movw	r30, r18
    75ec:	80 83       	st	Z, r24
    75ee:	91 83       	std	Z+1, r25	; 0x01
    75f0:	a2 83       	std	Z+2, r26	; 0x02
    75f2:	b3 83       	std	Z+3, r27	; 0x03
    75f4:	8e 01       	movw	r16, r28
    75f6:	09 5a       	subi	r16, 0xA9	; 169
    75f8:	1c 4f       	sbci	r17, 0xFC	; 252
    75fa:	ce 01       	movw	r24, r28
    75fc:	81 52       	subi	r24, 0x21	; 33
    75fe:	9f 4f       	sbci	r25, 0xFF	; 255
    7600:	26 e6       	ldi	r18, 0x66	; 102
    7602:	36 e6       	ldi	r19, 0x66	; 102
    7604:	46 e6       	ldi	r20, 0x66	; 102
    7606:	55 e4       	ldi	r21, 0x45	; 69
    7608:	fc 01       	movw	r30, r24
    760a:	60 81       	ld	r22, Z
    760c:	71 81       	ldd	r23, Z+1	; 0x01
    760e:	82 81       	ldd	r24, Z+2	; 0x02
    7610:	93 81       	ldd	r25, Z+3	; 0x03
    7612:	0e 94 65 50 	call	0xa0ca	; 0xa0ca <__mulsf3>
    7616:	dc 01       	movw	r26, r24
    7618:	cb 01       	movw	r24, r22
    761a:	f8 01       	movw	r30, r16
    761c:	80 83       	st	Z, r24
    761e:	91 83       	std	Z+1, r25	; 0x01
    7620:	a2 83       	std	Z+2, r26	; 0x02
    7622:	b3 83       	std	Z+3, r27	; 0x03
    7624:	ce 01       	movw	r24, r28
    7626:	89 5a       	subi	r24, 0xA9	; 169
    7628:	9c 4f       	sbci	r25, 0xFC	; 252
    762a:	20 e0       	ldi	r18, 0x00	; 0
    762c:	30 e0       	ldi	r19, 0x00	; 0
    762e:	40 e8       	ldi	r20, 0x80	; 128
    7630:	5f e3       	ldi	r21, 0x3F	; 63
    7632:	fc 01       	movw	r30, r24
    7634:	60 81       	ld	r22, Z
    7636:	71 81       	ldd	r23, Z+1	; 0x01
    7638:	82 81       	ldd	r24, Z+2	; 0x02
    763a:	93 81       	ldd	r25, Z+3	; 0x03
    763c:	0e 94 e4 4f 	call	0x9fc8	; 0x9fc8 <__cmpsf2>
    7640:	88 23       	and	r24, r24
    7642:	4c f4       	brge	.+18     	; 0x7656 <__stack+0x5457>
    7644:	ce 01       	movw	r24, r28
    7646:	85 5a       	subi	r24, 0xA5	; 165
    7648:	9c 4f       	sbci	r25, 0xFC	; 252
    764a:	21 e0       	ldi	r18, 0x01	; 1
    764c:	30 e0       	ldi	r19, 0x00	; 0
    764e:	fc 01       	movw	r30, r24
    7650:	31 83       	std	Z+1, r19	; 0x01
    7652:	20 83       	st	Z, r18
    7654:	6d c0       	rjmp	.+218    	; 0x7730 <__stack+0x5531>
    7656:	ce 01       	movw	r24, r28
    7658:	89 5a       	subi	r24, 0xA9	; 169
    765a:	9c 4f       	sbci	r25, 0xFC	; 252
    765c:	20 e0       	ldi	r18, 0x00	; 0
    765e:	3f ef       	ldi	r19, 0xFF	; 255
    7660:	4f e7       	ldi	r20, 0x7F	; 127
    7662:	57 e4       	ldi	r21, 0x47	; 71
    7664:	fc 01       	movw	r30, r24
    7666:	60 81       	ld	r22, Z
    7668:	71 81       	ldd	r23, Z+1	; 0x01
    766a:	82 81       	ldd	r24, Z+2	; 0x02
    766c:	93 81       	ldd	r25, Z+3	; 0x03
    766e:	0e 94 61 50 	call	0xa0c2	; 0xa0c2 <__gesf2>
    7672:	18 16       	cp	r1, r24
    7674:	0c f0       	brlt	.+2      	; 0x7678 <__stack+0x5479>
    7676:	4a c0       	rjmp	.+148    	; 0x770c <__stack+0x550d>
    7678:	ce 01       	movw	r24, r28
    767a:	81 52       	subi	r24, 0x21	; 33
    767c:	9f 4f       	sbci	r25, 0xFF	; 255
    767e:	20 e0       	ldi	r18, 0x00	; 0
    7680:	30 e0       	ldi	r19, 0x00	; 0
    7682:	40 e2       	ldi	r20, 0x20	; 32
    7684:	51 e4       	ldi	r21, 0x41	; 65
    7686:	fc 01       	movw	r30, r24
    7688:	60 81       	ld	r22, Z
    768a:	71 81       	ldd	r23, Z+1	; 0x01
    768c:	82 81       	ldd	r24, Z+2	; 0x02
    768e:	93 81       	ldd	r25, Z+3	; 0x03
    7690:	0e 94 65 50 	call	0xa0ca	; 0xa0ca <__mulsf3>
    7694:	dc 01       	movw	r26, r24
    7696:	cb 01       	movw	r24, r22
    7698:	8e 01       	movw	r16, r28
    769a:	05 5a       	subi	r16, 0xA5	; 165
    769c:	1c 4f       	sbci	r17, 0xFC	; 252
    769e:	bc 01       	movw	r22, r24
    76a0:	cd 01       	movw	r24, r26
    76a2:	0e 94 e8 4f 	call	0x9fd0	; 0x9fd0 <__fixunssfsi>
    76a6:	dc 01       	movw	r26, r24
    76a8:	cb 01       	movw	r24, r22
    76aa:	f8 01       	movw	r30, r16
    76ac:	91 83       	std	Z+1, r25	; 0x01
    76ae:	80 83       	st	Z, r24
    76b0:	24 c0       	rjmp	.+72     	; 0x76fa <__stack+0x54fb>
    76b2:	ce 01       	movw	r24, r28
    76b4:	83 5a       	subi	r24, 0xA3	; 163
    76b6:	9c 4f       	sbci	r25, 0xFC	; 252
    76b8:	20 e7       	ldi	r18, 0x70	; 112
    76ba:	31 e0       	ldi	r19, 0x01	; 1
    76bc:	fc 01       	movw	r30, r24
    76be:	31 83       	std	Z+1, r19	; 0x01
    76c0:	20 83       	st	Z, r18
    76c2:	ce 01       	movw	r24, r28
    76c4:	83 5a       	subi	r24, 0xA3	; 163
    76c6:	9c 4f       	sbci	r25, 0xFC	; 252
    76c8:	fc 01       	movw	r30, r24
    76ca:	80 81       	ld	r24, Z
    76cc:	91 81       	ldd	r25, Z+1	; 0x01
    76ce:	01 97       	sbiw	r24, 0x01	; 1
    76d0:	f1 f7       	brne	.-4      	; 0x76ce <__stack+0x54cf>
    76d2:	9e 01       	movw	r18, r28
    76d4:	23 5a       	subi	r18, 0xA3	; 163
    76d6:	3c 4f       	sbci	r19, 0xFC	; 252
    76d8:	f9 01       	movw	r30, r18
    76da:	91 83       	std	Z+1, r25	; 0x01
    76dc:	80 83       	st	Z, r24
    76de:	ce 01       	movw	r24, r28
    76e0:	85 5a       	subi	r24, 0xA5	; 165
    76e2:	9c 4f       	sbci	r25, 0xFC	; 252
    76e4:	9e 01       	movw	r18, r28
    76e6:	25 5a       	subi	r18, 0xA5	; 165
    76e8:	3c 4f       	sbci	r19, 0xFC	; 252
    76ea:	f9 01       	movw	r30, r18
    76ec:	20 81       	ld	r18, Z
    76ee:	31 81       	ldd	r19, Z+1	; 0x01
    76f0:	21 50       	subi	r18, 0x01	; 1
    76f2:	31 09       	sbc	r19, r1
    76f4:	fc 01       	movw	r30, r24
    76f6:	31 83       	std	Z+1, r19	; 0x01
    76f8:	20 83       	st	Z, r18
    76fa:	ce 01       	movw	r24, r28
    76fc:	85 5a       	subi	r24, 0xA5	; 165
    76fe:	9c 4f       	sbci	r25, 0xFC	; 252
    7700:	fc 01       	movw	r30, r24
    7702:	80 81       	ld	r24, Z
    7704:	91 81       	ldd	r25, Z+1	; 0x01
    7706:	89 2b       	or	r24, r25
    7708:	a1 f6       	brne	.-88     	; 0x76b2 <__stack+0x54b3>
    770a:	2c c0       	rjmp	.+88     	; 0x7764 <__stack+0x5565>
    770c:	8e 01       	movw	r16, r28
    770e:	05 5a       	subi	r16, 0xA5	; 165
    7710:	1c 4f       	sbci	r17, 0xFC	; 252
    7712:	ce 01       	movw	r24, r28
    7714:	89 5a       	subi	r24, 0xA9	; 169
    7716:	9c 4f       	sbci	r25, 0xFC	; 252
    7718:	fc 01       	movw	r30, r24
    771a:	60 81       	ld	r22, Z
    771c:	71 81       	ldd	r23, Z+1	; 0x01
    771e:	82 81       	ldd	r24, Z+2	; 0x02
    7720:	93 81       	ldd	r25, Z+3	; 0x03
    7722:	0e 94 e8 4f 	call	0x9fd0	; 0x9fd0 <__fixunssfsi>
    7726:	dc 01       	movw	r26, r24
    7728:	cb 01       	movw	r24, r22
    772a:	f8 01       	movw	r30, r16
    772c:	91 83       	std	Z+1, r25	; 0x01
    772e:	80 83       	st	Z, r24
    7730:	ce 01       	movw	r24, r28
    7732:	81 5a       	subi	r24, 0xA1	; 161
    7734:	9c 4f       	sbci	r25, 0xFC	; 252
    7736:	9e 01       	movw	r18, r28
    7738:	25 5a       	subi	r18, 0xA5	; 165
    773a:	3c 4f       	sbci	r19, 0xFC	; 252
    773c:	f9 01       	movw	r30, r18
    773e:	20 81       	ld	r18, Z
    7740:	31 81       	ldd	r19, Z+1	; 0x01
    7742:	fc 01       	movw	r30, r24
    7744:	31 83       	std	Z+1, r19	; 0x01
    7746:	20 83       	st	Z, r18
    7748:	ce 01       	movw	r24, r28
    774a:	81 5a       	subi	r24, 0xA1	; 161
    774c:	9c 4f       	sbci	r25, 0xFC	; 252
    774e:	fc 01       	movw	r30, r24
    7750:	80 81       	ld	r24, Z
    7752:	91 81       	ldd	r25, Z+1	; 0x01
    7754:	01 97       	sbiw	r24, 0x01	; 1
    7756:	f1 f7       	brne	.-4      	; 0x7754 <__stack+0x5555>
    7758:	9e 01       	movw	r18, r28
    775a:	21 5a       	subi	r18, 0xA1	; 161
    775c:	3c 4f       	sbci	r19, 0xFC	; 252
    775e:	f9 01       	movw	r30, r18
    7760:	91 83       	std	Z+1, r25	; 0x01
    7762:	80 83       	st	Z, r24
    7764:	0e 94 a0 0e 	call	0x1d40	; 0x1d40 <right>
    7768:	9e 01       	movw	r18, r28
    776a:	2d 52       	subi	r18, 0x2D	; 45
    776c:	3f 4f       	sbci	r19, 0xFF	; 255
    776e:	80 e0       	ldi	r24, 0x00	; 0
    7770:	90 e8       	ldi	r25, 0x80	; 128
    7772:	a2 ea       	ldi	r26, 0xA2	; 162
    7774:	b4 e4       	ldi	r27, 0x44	; 68
    7776:	f9 01       	movw	r30, r18
    7778:	80 83       	st	Z, r24
    777a:	91 83       	std	Z+1, r25	; 0x01
    777c:	a2 83       	std	Z+2, r26	; 0x02
    777e:	b3 83       	std	Z+3, r27	; 0x03
    7780:	8e 01       	movw	r16, r28
    7782:	03 5b       	subi	r16, 0xB3	; 179
    7784:	1c 4f       	sbci	r17, 0xFC	; 252
    7786:	ce 01       	movw	r24, r28
    7788:	8d 52       	subi	r24, 0x2D	; 45
    778a:	9f 4f       	sbci	r25, 0xFF	; 255
    778c:	26 e6       	ldi	r18, 0x66	; 102
    778e:	36 e6       	ldi	r19, 0x66	; 102
    7790:	46 e6       	ldi	r20, 0x66	; 102
    7792:	55 e4       	ldi	r21, 0x45	; 69
    7794:	fc 01       	movw	r30, r24
    7796:	60 81       	ld	r22, Z
    7798:	71 81       	ldd	r23, Z+1	; 0x01
    779a:	82 81       	ldd	r24, Z+2	; 0x02
    779c:	93 81       	ldd	r25, Z+3	; 0x03
    779e:	0e 94 65 50 	call	0xa0ca	; 0xa0ca <__mulsf3>
    77a2:	dc 01       	movw	r26, r24
    77a4:	cb 01       	movw	r24, r22
    77a6:	f8 01       	movw	r30, r16
    77a8:	80 83       	st	Z, r24
    77aa:	91 83       	std	Z+1, r25	; 0x01
    77ac:	a2 83       	std	Z+2, r26	; 0x02
    77ae:	b3 83       	std	Z+3, r27	; 0x03
    77b0:	ce 01       	movw	r24, r28
    77b2:	83 5b       	subi	r24, 0xB3	; 179
    77b4:	9c 4f       	sbci	r25, 0xFC	; 252
    77b6:	20 e0       	ldi	r18, 0x00	; 0
    77b8:	30 e0       	ldi	r19, 0x00	; 0
    77ba:	40 e8       	ldi	r20, 0x80	; 128
    77bc:	5f e3       	ldi	r21, 0x3F	; 63
    77be:	fc 01       	movw	r30, r24
    77c0:	60 81       	ld	r22, Z
    77c2:	71 81       	ldd	r23, Z+1	; 0x01
    77c4:	82 81       	ldd	r24, Z+2	; 0x02
    77c6:	93 81       	ldd	r25, Z+3	; 0x03
    77c8:	0e 94 e4 4f 	call	0x9fc8	; 0x9fc8 <__cmpsf2>
    77cc:	88 23       	and	r24, r24
    77ce:	4c f4       	brge	.+18     	; 0x77e2 <__stack+0x55e3>
    77d0:	ce 01       	movw	r24, r28
    77d2:	8f 5a       	subi	r24, 0xAF	; 175
    77d4:	9c 4f       	sbci	r25, 0xFC	; 252
    77d6:	21 e0       	ldi	r18, 0x01	; 1
    77d8:	30 e0       	ldi	r19, 0x00	; 0
    77da:	fc 01       	movw	r30, r24
    77dc:	31 83       	std	Z+1, r19	; 0x01
    77de:	20 83       	st	Z, r18
    77e0:	6d c0       	rjmp	.+218    	; 0x78bc <__stack+0x56bd>
    77e2:	ce 01       	movw	r24, r28
    77e4:	83 5b       	subi	r24, 0xB3	; 179
    77e6:	9c 4f       	sbci	r25, 0xFC	; 252
    77e8:	20 e0       	ldi	r18, 0x00	; 0
    77ea:	3f ef       	ldi	r19, 0xFF	; 255
    77ec:	4f e7       	ldi	r20, 0x7F	; 127
    77ee:	57 e4       	ldi	r21, 0x47	; 71
    77f0:	fc 01       	movw	r30, r24
    77f2:	60 81       	ld	r22, Z
    77f4:	71 81       	ldd	r23, Z+1	; 0x01
    77f6:	82 81       	ldd	r24, Z+2	; 0x02
    77f8:	93 81       	ldd	r25, Z+3	; 0x03
    77fa:	0e 94 61 50 	call	0xa0c2	; 0xa0c2 <__gesf2>
    77fe:	18 16       	cp	r1, r24
    7800:	0c f0       	brlt	.+2      	; 0x7804 <__stack+0x5605>
    7802:	4a c0       	rjmp	.+148    	; 0x7898 <__stack+0x5699>
    7804:	ce 01       	movw	r24, r28
    7806:	8d 52       	subi	r24, 0x2D	; 45
    7808:	9f 4f       	sbci	r25, 0xFF	; 255
    780a:	20 e0       	ldi	r18, 0x00	; 0
    780c:	30 e0       	ldi	r19, 0x00	; 0
    780e:	40 e2       	ldi	r20, 0x20	; 32
    7810:	51 e4       	ldi	r21, 0x41	; 65
    7812:	fc 01       	movw	r30, r24
    7814:	60 81       	ld	r22, Z
    7816:	71 81       	ldd	r23, Z+1	; 0x01
    7818:	82 81       	ldd	r24, Z+2	; 0x02
    781a:	93 81       	ldd	r25, Z+3	; 0x03
    781c:	0e 94 65 50 	call	0xa0ca	; 0xa0ca <__mulsf3>
    7820:	dc 01       	movw	r26, r24
    7822:	cb 01       	movw	r24, r22
    7824:	8e 01       	movw	r16, r28
    7826:	0f 5a       	subi	r16, 0xAF	; 175
    7828:	1c 4f       	sbci	r17, 0xFC	; 252
    782a:	bc 01       	movw	r22, r24
    782c:	cd 01       	movw	r24, r26
    782e:	0e 94 e8 4f 	call	0x9fd0	; 0x9fd0 <__fixunssfsi>
    7832:	dc 01       	movw	r26, r24
    7834:	cb 01       	movw	r24, r22
    7836:	f8 01       	movw	r30, r16
    7838:	91 83       	std	Z+1, r25	; 0x01
    783a:	80 83       	st	Z, r24
    783c:	24 c0       	rjmp	.+72     	; 0x7886 <__stack+0x5687>
    783e:	ce 01       	movw	r24, r28
    7840:	8d 5a       	subi	r24, 0xAD	; 173
    7842:	9c 4f       	sbci	r25, 0xFC	; 252
    7844:	20 e7       	ldi	r18, 0x70	; 112
    7846:	31 e0       	ldi	r19, 0x01	; 1
    7848:	fc 01       	movw	r30, r24
    784a:	31 83       	std	Z+1, r19	; 0x01
    784c:	20 83       	st	Z, r18
    784e:	ce 01       	movw	r24, r28
    7850:	8d 5a       	subi	r24, 0xAD	; 173
    7852:	9c 4f       	sbci	r25, 0xFC	; 252
    7854:	fc 01       	movw	r30, r24
    7856:	80 81       	ld	r24, Z
    7858:	91 81       	ldd	r25, Z+1	; 0x01
    785a:	01 97       	sbiw	r24, 0x01	; 1
    785c:	f1 f7       	brne	.-4      	; 0x785a <__stack+0x565b>
    785e:	9e 01       	movw	r18, r28
    7860:	2d 5a       	subi	r18, 0xAD	; 173
    7862:	3c 4f       	sbci	r19, 0xFC	; 252
    7864:	f9 01       	movw	r30, r18
    7866:	91 83       	std	Z+1, r25	; 0x01
    7868:	80 83       	st	Z, r24
    786a:	ce 01       	movw	r24, r28
    786c:	8f 5a       	subi	r24, 0xAF	; 175
    786e:	9c 4f       	sbci	r25, 0xFC	; 252
    7870:	9e 01       	movw	r18, r28
    7872:	2f 5a       	subi	r18, 0xAF	; 175
    7874:	3c 4f       	sbci	r19, 0xFC	; 252
    7876:	f9 01       	movw	r30, r18
    7878:	20 81       	ld	r18, Z
    787a:	31 81       	ldd	r19, Z+1	; 0x01
    787c:	21 50       	subi	r18, 0x01	; 1
    787e:	31 09       	sbc	r19, r1
    7880:	fc 01       	movw	r30, r24
    7882:	31 83       	std	Z+1, r19	; 0x01
    7884:	20 83       	st	Z, r18
    7886:	ce 01       	movw	r24, r28
    7888:	8f 5a       	subi	r24, 0xAF	; 175
    788a:	9c 4f       	sbci	r25, 0xFC	; 252
    788c:	fc 01       	movw	r30, r24
    788e:	80 81       	ld	r24, Z
    7890:	91 81       	ldd	r25, Z+1	; 0x01
    7892:	89 2b       	or	r24, r25
    7894:	a1 f6       	brne	.-88     	; 0x783e <__stack+0x563f>
    7896:	2c c0       	rjmp	.+88     	; 0x78f0 <__stack+0x56f1>
    7898:	8e 01       	movw	r16, r28
    789a:	0f 5a       	subi	r16, 0xAF	; 175
    789c:	1c 4f       	sbci	r17, 0xFC	; 252
    789e:	ce 01       	movw	r24, r28
    78a0:	83 5b       	subi	r24, 0xB3	; 179
    78a2:	9c 4f       	sbci	r25, 0xFC	; 252
    78a4:	fc 01       	movw	r30, r24
    78a6:	60 81       	ld	r22, Z
    78a8:	71 81       	ldd	r23, Z+1	; 0x01
    78aa:	82 81       	ldd	r24, Z+2	; 0x02
    78ac:	93 81       	ldd	r25, Z+3	; 0x03
    78ae:	0e 94 e8 4f 	call	0x9fd0	; 0x9fd0 <__fixunssfsi>
    78b2:	dc 01       	movw	r26, r24
    78b4:	cb 01       	movw	r24, r22
    78b6:	f8 01       	movw	r30, r16
    78b8:	91 83       	std	Z+1, r25	; 0x01
    78ba:	80 83       	st	Z, r24
    78bc:	ce 01       	movw	r24, r28
    78be:	8b 5a       	subi	r24, 0xAB	; 171
    78c0:	9c 4f       	sbci	r25, 0xFC	; 252
    78c2:	9e 01       	movw	r18, r28
    78c4:	2f 5a       	subi	r18, 0xAF	; 175
    78c6:	3c 4f       	sbci	r19, 0xFC	; 252
    78c8:	f9 01       	movw	r30, r18
    78ca:	20 81       	ld	r18, Z
    78cc:	31 81       	ldd	r19, Z+1	; 0x01
    78ce:	fc 01       	movw	r30, r24
    78d0:	31 83       	std	Z+1, r19	; 0x01
    78d2:	20 83       	st	Z, r18
    78d4:	ce 01       	movw	r24, r28
    78d6:	8b 5a       	subi	r24, 0xAB	; 171
    78d8:	9c 4f       	sbci	r25, 0xFC	; 252
    78da:	fc 01       	movw	r30, r24
    78dc:	80 81       	ld	r24, Z
    78de:	91 81       	ldd	r25, Z+1	; 0x01
    78e0:	01 97       	sbiw	r24, 0x01	; 1
    78e2:	f1 f7       	brne	.-4      	; 0x78e0 <__stack+0x56e1>
    78e4:	9e 01       	movw	r18, r28
    78e6:	2b 5a       	subi	r18, 0xAB	; 171
    78e8:	3c 4f       	sbci	r19, 0xFC	; 252
    78ea:	f9 01       	movw	r30, r18
    78ec:	91 83       	std	Z+1, r25	; 0x01
    78ee:	80 83       	st	Z, r24
    78f0:	8b 81       	ldd	r24, Y+3	; 0x03
    78f2:	9c 81       	ldd	r25, Y+4	; 0x04
    78f4:	4a 97       	sbiw	r24, 0x1a	; 26
    78f6:	11 f0       	breq	.+4      	; 0x78fc <__stack+0x56fd>
    78f8:	0c 94 97 4f 	jmp	0x9f2e	; 0x9f2e <__stack+0x7d2f>
    78fc:	0e 94 8c 0e 	call	0x1d18	; 0x1d18 <forward>
    7900:	9e 01       	movw	r18, r28
    7902:	29 51       	subi	r18, 0x19	; 25
    7904:	3f 4f       	sbci	r19, 0xFF	; 255
    7906:	80 e0       	ldi	r24, 0x00	; 0
    7908:	90 e0       	ldi	r25, 0x00	; 0
    790a:	a8 ec       	ldi	r26, 0xC8	; 200
    790c:	b2 e4       	ldi	r27, 0x42	; 66
    790e:	f9 01       	movw	r30, r18
    7910:	80 83       	st	Z, r24
    7912:	91 83       	std	Z+1, r25	; 0x01
    7914:	a2 83       	std	Z+2, r26	; 0x02
    7916:	b3 83       	std	Z+3, r27	; 0x03
    7918:	8e 01       	movw	r16, r28
    791a:	0f 54       	subi	r16, 0x4F	; 79
    791c:	1c 4f       	sbci	r17, 0xFC	; 252
    791e:	ce 01       	movw	r24, r28
    7920:	89 51       	subi	r24, 0x19	; 25
    7922:	9f 4f       	sbci	r25, 0xFF	; 255
    7924:	26 e6       	ldi	r18, 0x66	; 102
    7926:	36 e6       	ldi	r19, 0x66	; 102
    7928:	46 e6       	ldi	r20, 0x66	; 102
    792a:	55 e4       	ldi	r21, 0x45	; 69
    792c:	fc 01       	movw	r30, r24
    792e:	60 81       	ld	r22, Z
    7930:	71 81       	ldd	r23, Z+1	; 0x01
    7932:	82 81       	ldd	r24, Z+2	; 0x02
    7934:	93 81       	ldd	r25, Z+3	; 0x03
    7936:	0e 94 65 50 	call	0xa0ca	; 0xa0ca <__mulsf3>
    793a:	dc 01       	movw	r26, r24
    793c:	cb 01       	movw	r24, r22
    793e:	f8 01       	movw	r30, r16
    7940:	80 83       	st	Z, r24
    7942:	91 83       	std	Z+1, r25	; 0x01
    7944:	a2 83       	std	Z+2, r26	; 0x02
    7946:	b3 83       	std	Z+3, r27	; 0x03
    7948:	ce 01       	movw	r24, r28
    794a:	8f 54       	subi	r24, 0x4F	; 79
    794c:	9c 4f       	sbci	r25, 0xFC	; 252
    794e:	20 e0       	ldi	r18, 0x00	; 0
    7950:	30 e0       	ldi	r19, 0x00	; 0
    7952:	40 e8       	ldi	r20, 0x80	; 128
    7954:	5f e3       	ldi	r21, 0x3F	; 63
    7956:	fc 01       	movw	r30, r24
    7958:	60 81       	ld	r22, Z
    795a:	71 81       	ldd	r23, Z+1	; 0x01
    795c:	82 81       	ldd	r24, Z+2	; 0x02
    795e:	93 81       	ldd	r25, Z+3	; 0x03
    7960:	0e 94 e4 4f 	call	0x9fc8	; 0x9fc8 <__cmpsf2>
    7964:	88 23       	and	r24, r24
    7966:	4c f4       	brge	.+18     	; 0x797a <__stack+0x577b>
    7968:	ce 01       	movw	r24, r28
    796a:	8b 54       	subi	r24, 0x4B	; 75
    796c:	9c 4f       	sbci	r25, 0xFC	; 252
    796e:	21 e0       	ldi	r18, 0x01	; 1
    7970:	30 e0       	ldi	r19, 0x00	; 0
    7972:	fc 01       	movw	r30, r24
    7974:	31 83       	std	Z+1, r19	; 0x01
    7976:	20 83       	st	Z, r18
    7978:	6d c0       	rjmp	.+218    	; 0x7a54 <__stack+0x5855>
    797a:	ce 01       	movw	r24, r28
    797c:	8f 54       	subi	r24, 0x4F	; 79
    797e:	9c 4f       	sbci	r25, 0xFC	; 252
    7980:	20 e0       	ldi	r18, 0x00	; 0
    7982:	3f ef       	ldi	r19, 0xFF	; 255
    7984:	4f e7       	ldi	r20, 0x7F	; 127
    7986:	57 e4       	ldi	r21, 0x47	; 71
    7988:	fc 01       	movw	r30, r24
    798a:	60 81       	ld	r22, Z
    798c:	71 81       	ldd	r23, Z+1	; 0x01
    798e:	82 81       	ldd	r24, Z+2	; 0x02
    7990:	93 81       	ldd	r25, Z+3	; 0x03
    7992:	0e 94 61 50 	call	0xa0c2	; 0xa0c2 <__gesf2>
    7996:	18 16       	cp	r1, r24
    7998:	0c f0       	brlt	.+2      	; 0x799c <__stack+0x579d>
    799a:	4a c0       	rjmp	.+148    	; 0x7a30 <__stack+0x5831>
    799c:	ce 01       	movw	r24, r28
    799e:	89 51       	subi	r24, 0x19	; 25
    79a0:	9f 4f       	sbci	r25, 0xFF	; 255
    79a2:	20 e0       	ldi	r18, 0x00	; 0
    79a4:	30 e0       	ldi	r19, 0x00	; 0
    79a6:	40 e2       	ldi	r20, 0x20	; 32
    79a8:	51 e4       	ldi	r21, 0x41	; 65
    79aa:	fc 01       	movw	r30, r24
    79ac:	60 81       	ld	r22, Z
    79ae:	71 81       	ldd	r23, Z+1	; 0x01
    79b0:	82 81       	ldd	r24, Z+2	; 0x02
    79b2:	93 81       	ldd	r25, Z+3	; 0x03
    79b4:	0e 94 65 50 	call	0xa0ca	; 0xa0ca <__mulsf3>
    79b8:	dc 01       	movw	r26, r24
    79ba:	cb 01       	movw	r24, r22
    79bc:	8e 01       	movw	r16, r28
    79be:	0b 54       	subi	r16, 0x4B	; 75
    79c0:	1c 4f       	sbci	r17, 0xFC	; 252
    79c2:	bc 01       	movw	r22, r24
    79c4:	cd 01       	movw	r24, r26
    79c6:	0e 94 e8 4f 	call	0x9fd0	; 0x9fd0 <__fixunssfsi>
    79ca:	dc 01       	movw	r26, r24
    79cc:	cb 01       	movw	r24, r22
    79ce:	f8 01       	movw	r30, r16
    79d0:	91 83       	std	Z+1, r25	; 0x01
    79d2:	80 83       	st	Z, r24
    79d4:	24 c0       	rjmp	.+72     	; 0x7a1e <__stack+0x581f>
    79d6:	ce 01       	movw	r24, r28
    79d8:	89 54       	subi	r24, 0x49	; 73
    79da:	9c 4f       	sbci	r25, 0xFC	; 252
    79dc:	20 e7       	ldi	r18, 0x70	; 112
    79de:	31 e0       	ldi	r19, 0x01	; 1
    79e0:	fc 01       	movw	r30, r24
    79e2:	31 83       	std	Z+1, r19	; 0x01
    79e4:	20 83       	st	Z, r18
    79e6:	ce 01       	movw	r24, r28
    79e8:	89 54       	subi	r24, 0x49	; 73
    79ea:	9c 4f       	sbci	r25, 0xFC	; 252
    79ec:	fc 01       	movw	r30, r24
    79ee:	80 81       	ld	r24, Z
    79f0:	91 81       	ldd	r25, Z+1	; 0x01
    79f2:	01 97       	sbiw	r24, 0x01	; 1
    79f4:	f1 f7       	brne	.-4      	; 0x79f2 <__stack+0x57f3>
    79f6:	9e 01       	movw	r18, r28
    79f8:	29 54       	subi	r18, 0x49	; 73
    79fa:	3c 4f       	sbci	r19, 0xFC	; 252
    79fc:	f9 01       	movw	r30, r18
    79fe:	91 83       	std	Z+1, r25	; 0x01
    7a00:	80 83       	st	Z, r24
    7a02:	ce 01       	movw	r24, r28
    7a04:	8b 54       	subi	r24, 0x4B	; 75
    7a06:	9c 4f       	sbci	r25, 0xFC	; 252
    7a08:	9e 01       	movw	r18, r28
    7a0a:	2b 54       	subi	r18, 0x4B	; 75
    7a0c:	3c 4f       	sbci	r19, 0xFC	; 252
    7a0e:	f9 01       	movw	r30, r18
    7a10:	20 81       	ld	r18, Z
    7a12:	31 81       	ldd	r19, Z+1	; 0x01
    7a14:	21 50       	subi	r18, 0x01	; 1
    7a16:	31 09       	sbc	r19, r1
    7a18:	fc 01       	movw	r30, r24
    7a1a:	31 83       	std	Z+1, r19	; 0x01
    7a1c:	20 83       	st	Z, r18
    7a1e:	ce 01       	movw	r24, r28
    7a20:	8b 54       	subi	r24, 0x4B	; 75
    7a22:	9c 4f       	sbci	r25, 0xFC	; 252
    7a24:	fc 01       	movw	r30, r24
    7a26:	80 81       	ld	r24, Z
    7a28:	91 81       	ldd	r25, Z+1	; 0x01
    7a2a:	89 2b       	or	r24, r25
    7a2c:	a1 f6       	brne	.-88     	; 0x79d6 <__stack+0x57d7>
    7a2e:	2c c0       	rjmp	.+88     	; 0x7a88 <__stack+0x5889>
    7a30:	8e 01       	movw	r16, r28
    7a32:	0b 54       	subi	r16, 0x4B	; 75
    7a34:	1c 4f       	sbci	r17, 0xFC	; 252
    7a36:	ce 01       	movw	r24, r28
    7a38:	8f 54       	subi	r24, 0x4F	; 79
    7a3a:	9c 4f       	sbci	r25, 0xFC	; 252
    7a3c:	fc 01       	movw	r30, r24
    7a3e:	60 81       	ld	r22, Z
    7a40:	71 81       	ldd	r23, Z+1	; 0x01
    7a42:	82 81       	ldd	r24, Z+2	; 0x02
    7a44:	93 81       	ldd	r25, Z+3	; 0x03
    7a46:	0e 94 e8 4f 	call	0x9fd0	; 0x9fd0 <__fixunssfsi>
    7a4a:	dc 01       	movw	r26, r24
    7a4c:	cb 01       	movw	r24, r22
    7a4e:	f8 01       	movw	r30, r16
    7a50:	91 83       	std	Z+1, r25	; 0x01
    7a52:	80 83       	st	Z, r24
    7a54:	ce 01       	movw	r24, r28
    7a56:	87 54       	subi	r24, 0x47	; 71
    7a58:	9c 4f       	sbci	r25, 0xFC	; 252
    7a5a:	9e 01       	movw	r18, r28
    7a5c:	2b 54       	subi	r18, 0x4B	; 75
    7a5e:	3c 4f       	sbci	r19, 0xFC	; 252
    7a60:	f9 01       	movw	r30, r18
    7a62:	20 81       	ld	r18, Z
    7a64:	31 81       	ldd	r19, Z+1	; 0x01
    7a66:	fc 01       	movw	r30, r24
    7a68:	31 83       	std	Z+1, r19	; 0x01
    7a6a:	20 83       	st	Z, r18
    7a6c:	ce 01       	movw	r24, r28
    7a6e:	87 54       	subi	r24, 0x47	; 71
    7a70:	9c 4f       	sbci	r25, 0xFC	; 252
    7a72:	fc 01       	movw	r30, r24
    7a74:	80 81       	ld	r24, Z
    7a76:	91 81       	ldd	r25, Z+1	; 0x01
    7a78:	01 97       	sbiw	r24, 0x01	; 1
    7a7a:	f1 f7       	brne	.-4      	; 0x7a78 <__stack+0x5879>
    7a7c:	9e 01       	movw	r18, r28
    7a7e:	27 54       	subi	r18, 0x47	; 71
    7a80:	3c 4f       	sbci	r19, 0xFC	; 252
    7a82:	f9 01       	movw	r30, r18
    7a84:	91 83       	std	Z+1, r25	; 0x01
    7a86:	80 83       	st	Z, r24
    7a88:	0e 94 aa 0e 	call	0x1d54	; 0x1d54 <stop>
    7a8c:	0e 94 0c 0d 	call	0x1a18	; 0x1a18 <buzzer_on>
    7a90:	9e 01       	movw	r18, r28
    7a92:	25 51       	subi	r18, 0x15	; 21
    7a94:	3f 4f       	sbci	r19, 0xFF	; 255
    7a96:	80 e0       	ldi	r24, 0x00	; 0
    7a98:	90 e0       	ldi	r25, 0x00	; 0
    7a9a:	a8 ec       	ldi	r26, 0xC8	; 200
    7a9c:	b2 e4       	ldi	r27, 0x42	; 66
    7a9e:	f9 01       	movw	r30, r18
    7aa0:	80 83       	st	Z, r24
    7aa2:	91 83       	std	Z+1, r25	; 0x01
    7aa4:	a2 83       	std	Z+2, r26	; 0x02
    7aa6:	b3 83       	std	Z+3, r27	; 0x03
    7aa8:	8e 01       	movw	r16, r28
    7aaa:	09 55       	subi	r16, 0x59	; 89
    7aac:	1c 4f       	sbci	r17, 0xFC	; 252
    7aae:	ce 01       	movw	r24, r28
    7ab0:	85 51       	subi	r24, 0x15	; 21
    7ab2:	9f 4f       	sbci	r25, 0xFF	; 255
    7ab4:	26 e6       	ldi	r18, 0x66	; 102
    7ab6:	36 e6       	ldi	r19, 0x66	; 102
    7ab8:	46 e6       	ldi	r20, 0x66	; 102
    7aba:	55 e4       	ldi	r21, 0x45	; 69
    7abc:	fc 01       	movw	r30, r24
    7abe:	60 81       	ld	r22, Z
    7ac0:	71 81       	ldd	r23, Z+1	; 0x01
    7ac2:	82 81       	ldd	r24, Z+2	; 0x02
    7ac4:	93 81       	ldd	r25, Z+3	; 0x03
    7ac6:	0e 94 65 50 	call	0xa0ca	; 0xa0ca <__mulsf3>
    7aca:	dc 01       	movw	r26, r24
    7acc:	cb 01       	movw	r24, r22
    7ace:	f8 01       	movw	r30, r16
    7ad0:	80 83       	st	Z, r24
    7ad2:	91 83       	std	Z+1, r25	; 0x01
    7ad4:	a2 83       	std	Z+2, r26	; 0x02
    7ad6:	b3 83       	std	Z+3, r27	; 0x03
    7ad8:	ce 01       	movw	r24, r28
    7ada:	89 55       	subi	r24, 0x59	; 89
    7adc:	9c 4f       	sbci	r25, 0xFC	; 252
    7ade:	20 e0       	ldi	r18, 0x00	; 0
    7ae0:	30 e0       	ldi	r19, 0x00	; 0
    7ae2:	40 e8       	ldi	r20, 0x80	; 128
    7ae4:	5f e3       	ldi	r21, 0x3F	; 63
    7ae6:	fc 01       	movw	r30, r24
    7ae8:	60 81       	ld	r22, Z
    7aea:	71 81       	ldd	r23, Z+1	; 0x01
    7aec:	82 81       	ldd	r24, Z+2	; 0x02
    7aee:	93 81       	ldd	r25, Z+3	; 0x03
    7af0:	0e 94 e4 4f 	call	0x9fc8	; 0x9fc8 <__cmpsf2>
    7af4:	88 23       	and	r24, r24
    7af6:	4c f4       	brge	.+18     	; 0x7b0a <__stack+0x590b>
    7af8:	ce 01       	movw	r24, r28
    7afa:	85 55       	subi	r24, 0x55	; 85
    7afc:	9c 4f       	sbci	r25, 0xFC	; 252
    7afe:	21 e0       	ldi	r18, 0x01	; 1
    7b00:	30 e0       	ldi	r19, 0x00	; 0
    7b02:	fc 01       	movw	r30, r24
    7b04:	31 83       	std	Z+1, r19	; 0x01
    7b06:	20 83       	st	Z, r18
    7b08:	6d c0       	rjmp	.+218    	; 0x7be4 <__stack+0x59e5>
    7b0a:	ce 01       	movw	r24, r28
    7b0c:	89 55       	subi	r24, 0x59	; 89
    7b0e:	9c 4f       	sbci	r25, 0xFC	; 252
    7b10:	20 e0       	ldi	r18, 0x00	; 0
    7b12:	3f ef       	ldi	r19, 0xFF	; 255
    7b14:	4f e7       	ldi	r20, 0x7F	; 127
    7b16:	57 e4       	ldi	r21, 0x47	; 71
    7b18:	fc 01       	movw	r30, r24
    7b1a:	60 81       	ld	r22, Z
    7b1c:	71 81       	ldd	r23, Z+1	; 0x01
    7b1e:	82 81       	ldd	r24, Z+2	; 0x02
    7b20:	93 81       	ldd	r25, Z+3	; 0x03
    7b22:	0e 94 61 50 	call	0xa0c2	; 0xa0c2 <__gesf2>
    7b26:	18 16       	cp	r1, r24
    7b28:	0c f0       	brlt	.+2      	; 0x7b2c <__stack+0x592d>
    7b2a:	4a c0       	rjmp	.+148    	; 0x7bc0 <__stack+0x59c1>
    7b2c:	ce 01       	movw	r24, r28
    7b2e:	85 51       	subi	r24, 0x15	; 21
    7b30:	9f 4f       	sbci	r25, 0xFF	; 255
    7b32:	20 e0       	ldi	r18, 0x00	; 0
    7b34:	30 e0       	ldi	r19, 0x00	; 0
    7b36:	40 e2       	ldi	r20, 0x20	; 32
    7b38:	51 e4       	ldi	r21, 0x41	; 65
    7b3a:	fc 01       	movw	r30, r24
    7b3c:	60 81       	ld	r22, Z
    7b3e:	71 81       	ldd	r23, Z+1	; 0x01
    7b40:	82 81       	ldd	r24, Z+2	; 0x02
    7b42:	93 81       	ldd	r25, Z+3	; 0x03
    7b44:	0e 94 65 50 	call	0xa0ca	; 0xa0ca <__mulsf3>
    7b48:	dc 01       	movw	r26, r24
    7b4a:	cb 01       	movw	r24, r22
    7b4c:	8e 01       	movw	r16, r28
    7b4e:	05 55       	subi	r16, 0x55	; 85
    7b50:	1c 4f       	sbci	r17, 0xFC	; 252
    7b52:	bc 01       	movw	r22, r24
    7b54:	cd 01       	movw	r24, r26
    7b56:	0e 94 e8 4f 	call	0x9fd0	; 0x9fd0 <__fixunssfsi>
    7b5a:	dc 01       	movw	r26, r24
    7b5c:	cb 01       	movw	r24, r22
    7b5e:	f8 01       	movw	r30, r16
    7b60:	91 83       	std	Z+1, r25	; 0x01
    7b62:	80 83       	st	Z, r24
    7b64:	24 c0       	rjmp	.+72     	; 0x7bae <__stack+0x59af>
    7b66:	ce 01       	movw	r24, r28
    7b68:	83 55       	subi	r24, 0x53	; 83
    7b6a:	9c 4f       	sbci	r25, 0xFC	; 252
    7b6c:	20 e7       	ldi	r18, 0x70	; 112
    7b6e:	31 e0       	ldi	r19, 0x01	; 1
    7b70:	fc 01       	movw	r30, r24
    7b72:	31 83       	std	Z+1, r19	; 0x01
    7b74:	20 83       	st	Z, r18
    7b76:	ce 01       	movw	r24, r28
    7b78:	83 55       	subi	r24, 0x53	; 83
    7b7a:	9c 4f       	sbci	r25, 0xFC	; 252
    7b7c:	fc 01       	movw	r30, r24
    7b7e:	80 81       	ld	r24, Z
    7b80:	91 81       	ldd	r25, Z+1	; 0x01
    7b82:	01 97       	sbiw	r24, 0x01	; 1
    7b84:	f1 f7       	brne	.-4      	; 0x7b82 <__stack+0x5983>
    7b86:	9e 01       	movw	r18, r28
    7b88:	23 55       	subi	r18, 0x53	; 83
    7b8a:	3c 4f       	sbci	r19, 0xFC	; 252
    7b8c:	f9 01       	movw	r30, r18
    7b8e:	91 83       	std	Z+1, r25	; 0x01
    7b90:	80 83       	st	Z, r24
    7b92:	ce 01       	movw	r24, r28
    7b94:	85 55       	subi	r24, 0x55	; 85
    7b96:	9c 4f       	sbci	r25, 0xFC	; 252
    7b98:	9e 01       	movw	r18, r28
    7b9a:	25 55       	subi	r18, 0x55	; 85
    7b9c:	3c 4f       	sbci	r19, 0xFC	; 252
    7b9e:	f9 01       	movw	r30, r18
    7ba0:	20 81       	ld	r18, Z
    7ba2:	31 81       	ldd	r19, Z+1	; 0x01
    7ba4:	21 50       	subi	r18, 0x01	; 1
    7ba6:	31 09       	sbc	r19, r1
    7ba8:	fc 01       	movw	r30, r24
    7baa:	31 83       	std	Z+1, r19	; 0x01
    7bac:	20 83       	st	Z, r18
    7bae:	ce 01       	movw	r24, r28
    7bb0:	85 55       	subi	r24, 0x55	; 85
    7bb2:	9c 4f       	sbci	r25, 0xFC	; 252
    7bb4:	fc 01       	movw	r30, r24
    7bb6:	80 81       	ld	r24, Z
    7bb8:	91 81       	ldd	r25, Z+1	; 0x01
    7bba:	89 2b       	or	r24, r25
    7bbc:	a1 f6       	brne	.-88     	; 0x7b66 <__stack+0x5967>
    7bbe:	2c c0       	rjmp	.+88     	; 0x7c18 <__stack+0x5a19>
    7bc0:	8e 01       	movw	r16, r28
    7bc2:	05 55       	subi	r16, 0x55	; 85
    7bc4:	1c 4f       	sbci	r17, 0xFC	; 252
    7bc6:	ce 01       	movw	r24, r28
    7bc8:	89 55       	subi	r24, 0x59	; 89
    7bca:	9c 4f       	sbci	r25, 0xFC	; 252
    7bcc:	fc 01       	movw	r30, r24
    7bce:	60 81       	ld	r22, Z
    7bd0:	71 81       	ldd	r23, Z+1	; 0x01
    7bd2:	82 81       	ldd	r24, Z+2	; 0x02
    7bd4:	93 81       	ldd	r25, Z+3	; 0x03
    7bd6:	0e 94 e8 4f 	call	0x9fd0	; 0x9fd0 <__fixunssfsi>
    7bda:	dc 01       	movw	r26, r24
    7bdc:	cb 01       	movw	r24, r22
    7bde:	f8 01       	movw	r30, r16
    7be0:	91 83       	std	Z+1, r25	; 0x01
    7be2:	80 83       	st	Z, r24
    7be4:	ce 01       	movw	r24, r28
    7be6:	81 55       	subi	r24, 0x51	; 81
    7be8:	9c 4f       	sbci	r25, 0xFC	; 252
    7bea:	9e 01       	movw	r18, r28
    7bec:	25 55       	subi	r18, 0x55	; 85
    7bee:	3c 4f       	sbci	r19, 0xFC	; 252
    7bf0:	f9 01       	movw	r30, r18
    7bf2:	20 81       	ld	r18, Z
    7bf4:	31 81       	ldd	r19, Z+1	; 0x01
    7bf6:	fc 01       	movw	r30, r24
    7bf8:	31 83       	std	Z+1, r19	; 0x01
    7bfa:	20 83       	st	Z, r18
    7bfc:	ce 01       	movw	r24, r28
    7bfe:	81 55       	subi	r24, 0x51	; 81
    7c00:	9c 4f       	sbci	r25, 0xFC	; 252
    7c02:	fc 01       	movw	r30, r24
    7c04:	80 81       	ld	r24, Z
    7c06:	91 81       	ldd	r25, Z+1	; 0x01
    7c08:	01 97       	sbiw	r24, 0x01	; 1
    7c0a:	f1 f7       	brne	.-4      	; 0x7c08 <__stack+0x5a09>
    7c0c:	9e 01       	movw	r18, r28
    7c0e:	21 55       	subi	r18, 0x51	; 81
    7c10:	3c 4f       	sbci	r19, 0xFC	; 252
    7c12:	f9 01       	movw	r30, r18
    7c14:	91 83       	std	Z+1, r25	; 0x01
    7c16:	80 83       	st	Z, r24
    7c18:	0e 94 1d 0d 	call	0x1a3a	; 0x1a3a <buzzer_off>
    7c1c:	9e 01       	movw	r18, r28
    7c1e:	21 51       	subi	r18, 0x11	; 17
    7c20:	3f 4f       	sbci	r19, 0xFF	; 255
    7c22:	80 e0       	ldi	r24, 0x00	; 0
    7c24:	90 e0       	ldi	r25, 0x00	; 0
    7c26:	a8 e4       	ldi	r26, 0x48	; 72
    7c28:	b2 e4       	ldi	r27, 0x42	; 66
    7c2a:	f9 01       	movw	r30, r18
    7c2c:	80 83       	st	Z, r24
    7c2e:	91 83       	std	Z+1, r25	; 0x01
    7c30:	a2 83       	std	Z+2, r26	; 0x02
    7c32:	b3 83       	std	Z+3, r27	; 0x03
    7c34:	8e 01       	movw	r16, r28
    7c36:	03 56       	subi	r16, 0x63	; 99
    7c38:	1c 4f       	sbci	r17, 0xFC	; 252
    7c3a:	ce 01       	movw	r24, r28
    7c3c:	81 51       	subi	r24, 0x11	; 17
    7c3e:	9f 4f       	sbci	r25, 0xFF	; 255
    7c40:	26 e6       	ldi	r18, 0x66	; 102
    7c42:	36 e6       	ldi	r19, 0x66	; 102
    7c44:	46 e6       	ldi	r20, 0x66	; 102
    7c46:	55 e4       	ldi	r21, 0x45	; 69
    7c48:	fc 01       	movw	r30, r24
    7c4a:	60 81       	ld	r22, Z
    7c4c:	71 81       	ldd	r23, Z+1	; 0x01
    7c4e:	82 81       	ldd	r24, Z+2	; 0x02
    7c50:	93 81       	ldd	r25, Z+3	; 0x03
    7c52:	0e 94 65 50 	call	0xa0ca	; 0xa0ca <__mulsf3>
    7c56:	dc 01       	movw	r26, r24
    7c58:	cb 01       	movw	r24, r22
    7c5a:	f8 01       	movw	r30, r16
    7c5c:	80 83       	st	Z, r24
    7c5e:	91 83       	std	Z+1, r25	; 0x01
    7c60:	a2 83       	std	Z+2, r26	; 0x02
    7c62:	b3 83       	std	Z+3, r27	; 0x03
    7c64:	ce 01       	movw	r24, r28
    7c66:	83 56       	subi	r24, 0x63	; 99
    7c68:	9c 4f       	sbci	r25, 0xFC	; 252
    7c6a:	20 e0       	ldi	r18, 0x00	; 0
    7c6c:	30 e0       	ldi	r19, 0x00	; 0
    7c6e:	40 e8       	ldi	r20, 0x80	; 128
    7c70:	5f e3       	ldi	r21, 0x3F	; 63
    7c72:	fc 01       	movw	r30, r24
    7c74:	60 81       	ld	r22, Z
    7c76:	71 81       	ldd	r23, Z+1	; 0x01
    7c78:	82 81       	ldd	r24, Z+2	; 0x02
    7c7a:	93 81       	ldd	r25, Z+3	; 0x03
    7c7c:	0e 94 e4 4f 	call	0x9fc8	; 0x9fc8 <__cmpsf2>
    7c80:	88 23       	and	r24, r24
    7c82:	4c f4       	brge	.+18     	; 0x7c96 <__stack+0x5a97>
    7c84:	ce 01       	movw	r24, r28
    7c86:	8f 55       	subi	r24, 0x5F	; 95
    7c88:	9c 4f       	sbci	r25, 0xFC	; 252
    7c8a:	21 e0       	ldi	r18, 0x01	; 1
    7c8c:	30 e0       	ldi	r19, 0x00	; 0
    7c8e:	fc 01       	movw	r30, r24
    7c90:	31 83       	std	Z+1, r19	; 0x01
    7c92:	20 83       	st	Z, r18
    7c94:	6d c0       	rjmp	.+218    	; 0x7d70 <__stack+0x5b71>
    7c96:	ce 01       	movw	r24, r28
    7c98:	83 56       	subi	r24, 0x63	; 99
    7c9a:	9c 4f       	sbci	r25, 0xFC	; 252
    7c9c:	20 e0       	ldi	r18, 0x00	; 0
    7c9e:	3f ef       	ldi	r19, 0xFF	; 255
    7ca0:	4f e7       	ldi	r20, 0x7F	; 127
    7ca2:	57 e4       	ldi	r21, 0x47	; 71
    7ca4:	fc 01       	movw	r30, r24
    7ca6:	60 81       	ld	r22, Z
    7ca8:	71 81       	ldd	r23, Z+1	; 0x01
    7caa:	82 81       	ldd	r24, Z+2	; 0x02
    7cac:	93 81       	ldd	r25, Z+3	; 0x03
    7cae:	0e 94 61 50 	call	0xa0c2	; 0xa0c2 <__gesf2>
    7cb2:	18 16       	cp	r1, r24
    7cb4:	0c f0       	brlt	.+2      	; 0x7cb8 <__stack+0x5ab9>
    7cb6:	4a c0       	rjmp	.+148    	; 0x7d4c <__stack+0x5b4d>
    7cb8:	ce 01       	movw	r24, r28
    7cba:	81 51       	subi	r24, 0x11	; 17
    7cbc:	9f 4f       	sbci	r25, 0xFF	; 255
    7cbe:	20 e0       	ldi	r18, 0x00	; 0
    7cc0:	30 e0       	ldi	r19, 0x00	; 0
    7cc2:	40 e2       	ldi	r20, 0x20	; 32
    7cc4:	51 e4       	ldi	r21, 0x41	; 65
    7cc6:	fc 01       	movw	r30, r24
    7cc8:	60 81       	ld	r22, Z
    7cca:	71 81       	ldd	r23, Z+1	; 0x01
    7ccc:	82 81       	ldd	r24, Z+2	; 0x02
    7cce:	93 81       	ldd	r25, Z+3	; 0x03
    7cd0:	0e 94 65 50 	call	0xa0ca	; 0xa0ca <__mulsf3>
    7cd4:	dc 01       	movw	r26, r24
    7cd6:	cb 01       	movw	r24, r22
    7cd8:	8e 01       	movw	r16, r28
    7cda:	0f 55       	subi	r16, 0x5F	; 95
    7cdc:	1c 4f       	sbci	r17, 0xFC	; 252
    7cde:	bc 01       	movw	r22, r24
    7ce0:	cd 01       	movw	r24, r26
    7ce2:	0e 94 e8 4f 	call	0x9fd0	; 0x9fd0 <__fixunssfsi>
    7ce6:	dc 01       	movw	r26, r24
    7ce8:	cb 01       	movw	r24, r22
    7cea:	f8 01       	movw	r30, r16
    7cec:	91 83       	std	Z+1, r25	; 0x01
    7cee:	80 83       	st	Z, r24
    7cf0:	24 c0       	rjmp	.+72     	; 0x7d3a <__stack+0x5b3b>
    7cf2:	ce 01       	movw	r24, r28
    7cf4:	8d 55       	subi	r24, 0x5D	; 93
    7cf6:	9c 4f       	sbci	r25, 0xFC	; 252
    7cf8:	20 e7       	ldi	r18, 0x70	; 112
    7cfa:	31 e0       	ldi	r19, 0x01	; 1
    7cfc:	fc 01       	movw	r30, r24
    7cfe:	31 83       	std	Z+1, r19	; 0x01
    7d00:	20 83       	st	Z, r18
    7d02:	ce 01       	movw	r24, r28
    7d04:	8d 55       	subi	r24, 0x5D	; 93
    7d06:	9c 4f       	sbci	r25, 0xFC	; 252
    7d08:	fc 01       	movw	r30, r24
    7d0a:	80 81       	ld	r24, Z
    7d0c:	91 81       	ldd	r25, Z+1	; 0x01
    7d0e:	01 97       	sbiw	r24, 0x01	; 1
    7d10:	f1 f7       	brne	.-4      	; 0x7d0e <__stack+0x5b0f>
    7d12:	9e 01       	movw	r18, r28
    7d14:	2d 55       	subi	r18, 0x5D	; 93
    7d16:	3c 4f       	sbci	r19, 0xFC	; 252
    7d18:	f9 01       	movw	r30, r18
    7d1a:	91 83       	std	Z+1, r25	; 0x01
    7d1c:	80 83       	st	Z, r24
    7d1e:	ce 01       	movw	r24, r28
    7d20:	8f 55       	subi	r24, 0x5F	; 95
    7d22:	9c 4f       	sbci	r25, 0xFC	; 252
    7d24:	9e 01       	movw	r18, r28
    7d26:	2f 55       	subi	r18, 0x5F	; 95
    7d28:	3c 4f       	sbci	r19, 0xFC	; 252
    7d2a:	f9 01       	movw	r30, r18
    7d2c:	20 81       	ld	r18, Z
    7d2e:	31 81       	ldd	r19, Z+1	; 0x01
    7d30:	21 50       	subi	r18, 0x01	; 1
    7d32:	31 09       	sbc	r19, r1
    7d34:	fc 01       	movw	r30, r24
    7d36:	31 83       	std	Z+1, r19	; 0x01
    7d38:	20 83       	st	Z, r18
    7d3a:	ce 01       	movw	r24, r28
    7d3c:	8f 55       	subi	r24, 0x5F	; 95
    7d3e:	9c 4f       	sbci	r25, 0xFC	; 252
    7d40:	fc 01       	movw	r30, r24
    7d42:	80 81       	ld	r24, Z
    7d44:	91 81       	ldd	r25, Z+1	; 0x01
    7d46:	89 2b       	or	r24, r25
    7d48:	a1 f6       	brne	.-88     	; 0x7cf2 <__stack+0x5af3>
    7d4a:	2c c0       	rjmp	.+88     	; 0x7da4 <__stack+0x5ba5>
    7d4c:	8e 01       	movw	r16, r28
    7d4e:	0f 55       	subi	r16, 0x5F	; 95
    7d50:	1c 4f       	sbci	r17, 0xFC	; 252
    7d52:	ce 01       	movw	r24, r28
    7d54:	83 56       	subi	r24, 0x63	; 99
    7d56:	9c 4f       	sbci	r25, 0xFC	; 252
    7d58:	fc 01       	movw	r30, r24
    7d5a:	60 81       	ld	r22, Z
    7d5c:	71 81       	ldd	r23, Z+1	; 0x01
    7d5e:	82 81       	ldd	r24, Z+2	; 0x02
    7d60:	93 81       	ldd	r25, Z+3	; 0x03
    7d62:	0e 94 e8 4f 	call	0x9fd0	; 0x9fd0 <__fixunssfsi>
    7d66:	dc 01       	movw	r26, r24
    7d68:	cb 01       	movw	r24, r22
    7d6a:	f8 01       	movw	r30, r16
    7d6c:	91 83       	std	Z+1, r25	; 0x01
    7d6e:	80 83       	st	Z, r24
    7d70:	ce 01       	movw	r24, r28
    7d72:	8b 55       	subi	r24, 0x5B	; 91
    7d74:	9c 4f       	sbci	r25, 0xFC	; 252
    7d76:	9e 01       	movw	r18, r28
    7d78:	2f 55       	subi	r18, 0x5F	; 95
    7d7a:	3c 4f       	sbci	r19, 0xFC	; 252
    7d7c:	f9 01       	movw	r30, r18
    7d7e:	20 81       	ld	r18, Z
    7d80:	31 81       	ldd	r19, Z+1	; 0x01
    7d82:	fc 01       	movw	r30, r24
    7d84:	31 83       	std	Z+1, r19	; 0x01
    7d86:	20 83       	st	Z, r18
    7d88:	ce 01       	movw	r24, r28
    7d8a:	8b 55       	subi	r24, 0x5B	; 91
    7d8c:	9c 4f       	sbci	r25, 0xFC	; 252
    7d8e:	fc 01       	movw	r30, r24
    7d90:	80 81       	ld	r24, Z
    7d92:	91 81       	ldd	r25, Z+1	; 0x01
    7d94:	01 97       	sbiw	r24, 0x01	; 1
    7d96:	f1 f7       	brne	.-4      	; 0x7d94 <__stack+0x5b95>
    7d98:	9e 01       	movw	r18, r28
    7d9a:	2b 55       	subi	r18, 0x5B	; 91
    7d9c:	3c 4f       	sbci	r19, 0xFC	; 252
    7d9e:	f9 01       	movw	r30, r18
    7da0:	91 83       	std	Z+1, r25	; 0x01
    7da2:	80 83       	st	Z, r24
    7da4:	0e 94 0c 0d 	call	0x1a18	; 0x1a18 <buzzer_on>
    7da8:	9e 01       	movw	r18, r28
    7daa:	2d 50       	subi	r18, 0x0D	; 13
    7dac:	3f 4f       	sbci	r19, 0xFF	; 255
    7dae:	80 e0       	ldi	r24, 0x00	; 0
    7db0:	90 e0       	ldi	r25, 0x00	; 0
    7db2:	a6 e9       	ldi	r26, 0x96	; 150
    7db4:	b3 e4       	ldi	r27, 0x43	; 67
    7db6:	f9 01       	movw	r30, r18
    7db8:	80 83       	st	Z, r24
    7dba:	91 83       	std	Z+1, r25	; 0x01
    7dbc:	a2 83       	std	Z+2, r26	; 0x02
    7dbe:	b3 83       	std	Z+3, r27	; 0x03
    7dc0:	8e 01       	movw	r16, r28
    7dc2:	0d 56       	subi	r16, 0x6D	; 109
    7dc4:	1c 4f       	sbci	r17, 0xFC	; 252
    7dc6:	ce 01       	movw	r24, r28
    7dc8:	8d 50       	subi	r24, 0x0D	; 13
    7dca:	9f 4f       	sbci	r25, 0xFF	; 255
    7dcc:	26 e6       	ldi	r18, 0x66	; 102
    7dce:	36 e6       	ldi	r19, 0x66	; 102
    7dd0:	46 e6       	ldi	r20, 0x66	; 102
    7dd2:	55 e4       	ldi	r21, 0x45	; 69
    7dd4:	fc 01       	movw	r30, r24
    7dd6:	60 81       	ld	r22, Z
    7dd8:	71 81       	ldd	r23, Z+1	; 0x01
    7dda:	82 81       	ldd	r24, Z+2	; 0x02
    7ddc:	93 81       	ldd	r25, Z+3	; 0x03
    7dde:	0e 94 65 50 	call	0xa0ca	; 0xa0ca <__mulsf3>
    7de2:	dc 01       	movw	r26, r24
    7de4:	cb 01       	movw	r24, r22
    7de6:	f8 01       	movw	r30, r16
    7de8:	80 83       	st	Z, r24
    7dea:	91 83       	std	Z+1, r25	; 0x01
    7dec:	a2 83       	std	Z+2, r26	; 0x02
    7dee:	b3 83       	std	Z+3, r27	; 0x03
    7df0:	ce 01       	movw	r24, r28
    7df2:	8d 56       	subi	r24, 0x6D	; 109
    7df4:	9c 4f       	sbci	r25, 0xFC	; 252
    7df6:	20 e0       	ldi	r18, 0x00	; 0
    7df8:	30 e0       	ldi	r19, 0x00	; 0
    7dfa:	40 e8       	ldi	r20, 0x80	; 128
    7dfc:	5f e3       	ldi	r21, 0x3F	; 63
    7dfe:	fc 01       	movw	r30, r24
    7e00:	60 81       	ld	r22, Z
    7e02:	71 81       	ldd	r23, Z+1	; 0x01
    7e04:	82 81       	ldd	r24, Z+2	; 0x02
    7e06:	93 81       	ldd	r25, Z+3	; 0x03
    7e08:	0e 94 e4 4f 	call	0x9fc8	; 0x9fc8 <__cmpsf2>
    7e0c:	88 23       	and	r24, r24
    7e0e:	4c f4       	brge	.+18     	; 0x7e22 <__stack+0x5c23>
    7e10:	ce 01       	movw	r24, r28
    7e12:	89 56       	subi	r24, 0x69	; 105
    7e14:	9c 4f       	sbci	r25, 0xFC	; 252
    7e16:	21 e0       	ldi	r18, 0x01	; 1
    7e18:	30 e0       	ldi	r19, 0x00	; 0
    7e1a:	fc 01       	movw	r30, r24
    7e1c:	31 83       	std	Z+1, r19	; 0x01
    7e1e:	20 83       	st	Z, r18
    7e20:	6d c0       	rjmp	.+218    	; 0x7efc <__stack+0x5cfd>
    7e22:	ce 01       	movw	r24, r28
    7e24:	8d 56       	subi	r24, 0x6D	; 109
    7e26:	9c 4f       	sbci	r25, 0xFC	; 252
    7e28:	20 e0       	ldi	r18, 0x00	; 0
    7e2a:	3f ef       	ldi	r19, 0xFF	; 255
    7e2c:	4f e7       	ldi	r20, 0x7F	; 127
    7e2e:	57 e4       	ldi	r21, 0x47	; 71
    7e30:	fc 01       	movw	r30, r24
    7e32:	60 81       	ld	r22, Z
    7e34:	71 81       	ldd	r23, Z+1	; 0x01
    7e36:	82 81       	ldd	r24, Z+2	; 0x02
    7e38:	93 81       	ldd	r25, Z+3	; 0x03
    7e3a:	0e 94 61 50 	call	0xa0c2	; 0xa0c2 <__gesf2>
    7e3e:	18 16       	cp	r1, r24
    7e40:	0c f0       	brlt	.+2      	; 0x7e44 <__stack+0x5c45>
    7e42:	4a c0       	rjmp	.+148    	; 0x7ed8 <__stack+0x5cd9>
    7e44:	ce 01       	movw	r24, r28
    7e46:	8d 50       	subi	r24, 0x0D	; 13
    7e48:	9f 4f       	sbci	r25, 0xFF	; 255
    7e4a:	20 e0       	ldi	r18, 0x00	; 0
    7e4c:	30 e0       	ldi	r19, 0x00	; 0
    7e4e:	40 e2       	ldi	r20, 0x20	; 32
    7e50:	51 e4       	ldi	r21, 0x41	; 65
    7e52:	fc 01       	movw	r30, r24
    7e54:	60 81       	ld	r22, Z
    7e56:	71 81       	ldd	r23, Z+1	; 0x01
    7e58:	82 81       	ldd	r24, Z+2	; 0x02
    7e5a:	93 81       	ldd	r25, Z+3	; 0x03
    7e5c:	0e 94 65 50 	call	0xa0ca	; 0xa0ca <__mulsf3>
    7e60:	dc 01       	movw	r26, r24
    7e62:	cb 01       	movw	r24, r22
    7e64:	8e 01       	movw	r16, r28
    7e66:	09 56       	subi	r16, 0x69	; 105
    7e68:	1c 4f       	sbci	r17, 0xFC	; 252
    7e6a:	bc 01       	movw	r22, r24
    7e6c:	cd 01       	movw	r24, r26
    7e6e:	0e 94 e8 4f 	call	0x9fd0	; 0x9fd0 <__fixunssfsi>
    7e72:	dc 01       	movw	r26, r24
    7e74:	cb 01       	movw	r24, r22
    7e76:	f8 01       	movw	r30, r16
    7e78:	91 83       	std	Z+1, r25	; 0x01
    7e7a:	80 83       	st	Z, r24
    7e7c:	24 c0       	rjmp	.+72     	; 0x7ec6 <__stack+0x5cc7>
    7e7e:	ce 01       	movw	r24, r28
    7e80:	87 56       	subi	r24, 0x67	; 103
    7e82:	9c 4f       	sbci	r25, 0xFC	; 252
    7e84:	20 e7       	ldi	r18, 0x70	; 112
    7e86:	31 e0       	ldi	r19, 0x01	; 1
    7e88:	fc 01       	movw	r30, r24
    7e8a:	31 83       	std	Z+1, r19	; 0x01
    7e8c:	20 83       	st	Z, r18
    7e8e:	ce 01       	movw	r24, r28
    7e90:	87 56       	subi	r24, 0x67	; 103
    7e92:	9c 4f       	sbci	r25, 0xFC	; 252
    7e94:	fc 01       	movw	r30, r24
    7e96:	80 81       	ld	r24, Z
    7e98:	91 81       	ldd	r25, Z+1	; 0x01
    7e9a:	01 97       	sbiw	r24, 0x01	; 1
    7e9c:	f1 f7       	brne	.-4      	; 0x7e9a <__stack+0x5c9b>
    7e9e:	9e 01       	movw	r18, r28
    7ea0:	27 56       	subi	r18, 0x67	; 103
    7ea2:	3c 4f       	sbci	r19, 0xFC	; 252
    7ea4:	f9 01       	movw	r30, r18
    7ea6:	91 83       	std	Z+1, r25	; 0x01
    7ea8:	80 83       	st	Z, r24
    7eaa:	ce 01       	movw	r24, r28
    7eac:	89 56       	subi	r24, 0x69	; 105
    7eae:	9c 4f       	sbci	r25, 0xFC	; 252
    7eb0:	9e 01       	movw	r18, r28
    7eb2:	29 56       	subi	r18, 0x69	; 105
    7eb4:	3c 4f       	sbci	r19, 0xFC	; 252
    7eb6:	f9 01       	movw	r30, r18
    7eb8:	20 81       	ld	r18, Z
    7eba:	31 81       	ldd	r19, Z+1	; 0x01
    7ebc:	21 50       	subi	r18, 0x01	; 1
    7ebe:	31 09       	sbc	r19, r1
    7ec0:	fc 01       	movw	r30, r24
    7ec2:	31 83       	std	Z+1, r19	; 0x01
    7ec4:	20 83       	st	Z, r18
    7ec6:	ce 01       	movw	r24, r28
    7ec8:	89 56       	subi	r24, 0x69	; 105
    7eca:	9c 4f       	sbci	r25, 0xFC	; 252
    7ecc:	fc 01       	movw	r30, r24
    7ece:	80 81       	ld	r24, Z
    7ed0:	91 81       	ldd	r25, Z+1	; 0x01
    7ed2:	89 2b       	or	r24, r25
    7ed4:	a1 f6       	brne	.-88     	; 0x7e7e <__stack+0x5c7f>
    7ed6:	2c c0       	rjmp	.+88     	; 0x7f30 <__stack+0x5d31>
    7ed8:	8e 01       	movw	r16, r28
    7eda:	09 56       	subi	r16, 0x69	; 105
    7edc:	1c 4f       	sbci	r17, 0xFC	; 252
    7ede:	ce 01       	movw	r24, r28
    7ee0:	8d 56       	subi	r24, 0x6D	; 109
    7ee2:	9c 4f       	sbci	r25, 0xFC	; 252
    7ee4:	fc 01       	movw	r30, r24
    7ee6:	60 81       	ld	r22, Z
    7ee8:	71 81       	ldd	r23, Z+1	; 0x01
    7eea:	82 81       	ldd	r24, Z+2	; 0x02
    7eec:	93 81       	ldd	r25, Z+3	; 0x03
    7eee:	0e 94 e8 4f 	call	0x9fd0	; 0x9fd0 <__fixunssfsi>
    7ef2:	dc 01       	movw	r26, r24
    7ef4:	cb 01       	movw	r24, r22
    7ef6:	f8 01       	movw	r30, r16
    7ef8:	91 83       	std	Z+1, r25	; 0x01
    7efa:	80 83       	st	Z, r24
    7efc:	ce 01       	movw	r24, r28
    7efe:	85 56       	subi	r24, 0x65	; 101
    7f00:	9c 4f       	sbci	r25, 0xFC	; 252
    7f02:	9e 01       	movw	r18, r28
    7f04:	29 56       	subi	r18, 0x69	; 105
    7f06:	3c 4f       	sbci	r19, 0xFC	; 252
    7f08:	f9 01       	movw	r30, r18
    7f0a:	20 81       	ld	r18, Z
    7f0c:	31 81       	ldd	r19, Z+1	; 0x01
    7f0e:	fc 01       	movw	r30, r24
    7f10:	31 83       	std	Z+1, r19	; 0x01
    7f12:	20 83       	st	Z, r18
    7f14:	ce 01       	movw	r24, r28
    7f16:	85 56       	subi	r24, 0x65	; 101
    7f18:	9c 4f       	sbci	r25, 0xFC	; 252
    7f1a:	fc 01       	movw	r30, r24
    7f1c:	80 81       	ld	r24, Z
    7f1e:	91 81       	ldd	r25, Z+1	; 0x01
    7f20:	01 97       	sbiw	r24, 0x01	; 1
    7f22:	f1 f7       	brne	.-4      	; 0x7f20 <__stack+0x5d21>
    7f24:	9e 01       	movw	r18, r28
    7f26:	25 56       	subi	r18, 0x65	; 101
    7f28:	3c 4f       	sbci	r19, 0xFC	; 252
    7f2a:	f9 01       	movw	r30, r18
    7f2c:	91 83       	std	Z+1, r25	; 0x01
    7f2e:	80 83       	st	Z, r24
    7f30:	0e 94 1d 0d 	call	0x1a3a	; 0x1a3a <buzzer_off>
    7f34:	9e 01       	movw	r18, r28
    7f36:	29 50       	subi	r18, 0x09	; 9
    7f38:	3f 4f       	sbci	r19, 0xFF	; 255
    7f3a:	80 e0       	ldi	r24, 0x00	; 0
    7f3c:	90 e0       	ldi	r25, 0x00	; 0
    7f3e:	a8 e4       	ldi	r26, 0x48	; 72
    7f40:	b2 e4       	ldi	r27, 0x42	; 66
    7f42:	f9 01       	movw	r30, r18
    7f44:	80 83       	st	Z, r24
    7f46:	91 83       	std	Z+1, r25	; 0x01
    7f48:	a2 83       	std	Z+2, r26	; 0x02
    7f4a:	b3 83       	std	Z+3, r27	; 0x03
    7f4c:	8e 01       	movw	r16, r28
    7f4e:	07 57       	subi	r16, 0x77	; 119
    7f50:	1c 4f       	sbci	r17, 0xFC	; 252
    7f52:	ce 01       	movw	r24, r28
    7f54:	89 50       	subi	r24, 0x09	; 9
    7f56:	9f 4f       	sbci	r25, 0xFF	; 255
    7f58:	26 e6       	ldi	r18, 0x66	; 102
    7f5a:	36 e6       	ldi	r19, 0x66	; 102
    7f5c:	46 e6       	ldi	r20, 0x66	; 102
    7f5e:	55 e4       	ldi	r21, 0x45	; 69
    7f60:	fc 01       	movw	r30, r24
    7f62:	60 81       	ld	r22, Z
    7f64:	71 81       	ldd	r23, Z+1	; 0x01
    7f66:	82 81       	ldd	r24, Z+2	; 0x02
    7f68:	93 81       	ldd	r25, Z+3	; 0x03
    7f6a:	0e 94 65 50 	call	0xa0ca	; 0xa0ca <__mulsf3>
    7f6e:	dc 01       	movw	r26, r24
    7f70:	cb 01       	movw	r24, r22
    7f72:	f8 01       	movw	r30, r16
    7f74:	80 83       	st	Z, r24
    7f76:	91 83       	std	Z+1, r25	; 0x01
    7f78:	a2 83       	std	Z+2, r26	; 0x02
    7f7a:	b3 83       	std	Z+3, r27	; 0x03
    7f7c:	ce 01       	movw	r24, r28
    7f7e:	87 57       	subi	r24, 0x77	; 119
    7f80:	9c 4f       	sbci	r25, 0xFC	; 252
    7f82:	20 e0       	ldi	r18, 0x00	; 0
    7f84:	30 e0       	ldi	r19, 0x00	; 0
    7f86:	40 e8       	ldi	r20, 0x80	; 128
    7f88:	5f e3       	ldi	r21, 0x3F	; 63
    7f8a:	fc 01       	movw	r30, r24
    7f8c:	60 81       	ld	r22, Z
    7f8e:	71 81       	ldd	r23, Z+1	; 0x01
    7f90:	82 81       	ldd	r24, Z+2	; 0x02
    7f92:	93 81       	ldd	r25, Z+3	; 0x03
    7f94:	0e 94 e4 4f 	call	0x9fc8	; 0x9fc8 <__cmpsf2>
    7f98:	88 23       	and	r24, r24
    7f9a:	4c f4       	brge	.+18     	; 0x7fae <__stack+0x5daf>
    7f9c:	ce 01       	movw	r24, r28
    7f9e:	83 57       	subi	r24, 0x73	; 115
    7fa0:	9c 4f       	sbci	r25, 0xFC	; 252
    7fa2:	21 e0       	ldi	r18, 0x01	; 1
    7fa4:	30 e0       	ldi	r19, 0x00	; 0
    7fa6:	fc 01       	movw	r30, r24
    7fa8:	31 83       	std	Z+1, r19	; 0x01
    7faa:	20 83       	st	Z, r18
    7fac:	6d c0       	rjmp	.+218    	; 0x8088 <__stack+0x5e89>
    7fae:	ce 01       	movw	r24, r28
    7fb0:	87 57       	subi	r24, 0x77	; 119
    7fb2:	9c 4f       	sbci	r25, 0xFC	; 252
    7fb4:	20 e0       	ldi	r18, 0x00	; 0
    7fb6:	3f ef       	ldi	r19, 0xFF	; 255
    7fb8:	4f e7       	ldi	r20, 0x7F	; 127
    7fba:	57 e4       	ldi	r21, 0x47	; 71
    7fbc:	fc 01       	movw	r30, r24
    7fbe:	60 81       	ld	r22, Z
    7fc0:	71 81       	ldd	r23, Z+1	; 0x01
    7fc2:	82 81       	ldd	r24, Z+2	; 0x02
    7fc4:	93 81       	ldd	r25, Z+3	; 0x03
    7fc6:	0e 94 61 50 	call	0xa0c2	; 0xa0c2 <__gesf2>
    7fca:	18 16       	cp	r1, r24
    7fcc:	0c f0       	brlt	.+2      	; 0x7fd0 <__stack+0x5dd1>
    7fce:	4a c0       	rjmp	.+148    	; 0x8064 <__stack+0x5e65>
    7fd0:	ce 01       	movw	r24, r28
    7fd2:	89 50       	subi	r24, 0x09	; 9
    7fd4:	9f 4f       	sbci	r25, 0xFF	; 255
    7fd6:	20 e0       	ldi	r18, 0x00	; 0
    7fd8:	30 e0       	ldi	r19, 0x00	; 0
    7fda:	40 e2       	ldi	r20, 0x20	; 32
    7fdc:	51 e4       	ldi	r21, 0x41	; 65
    7fde:	fc 01       	movw	r30, r24
    7fe0:	60 81       	ld	r22, Z
    7fe2:	71 81       	ldd	r23, Z+1	; 0x01
    7fe4:	82 81       	ldd	r24, Z+2	; 0x02
    7fe6:	93 81       	ldd	r25, Z+3	; 0x03
    7fe8:	0e 94 65 50 	call	0xa0ca	; 0xa0ca <__mulsf3>
    7fec:	dc 01       	movw	r26, r24
    7fee:	cb 01       	movw	r24, r22
    7ff0:	8e 01       	movw	r16, r28
    7ff2:	03 57       	subi	r16, 0x73	; 115
    7ff4:	1c 4f       	sbci	r17, 0xFC	; 252
    7ff6:	bc 01       	movw	r22, r24
    7ff8:	cd 01       	movw	r24, r26
    7ffa:	0e 94 e8 4f 	call	0x9fd0	; 0x9fd0 <__fixunssfsi>
    7ffe:	dc 01       	movw	r26, r24
    8000:	cb 01       	movw	r24, r22
    8002:	f8 01       	movw	r30, r16
    8004:	91 83       	std	Z+1, r25	; 0x01
    8006:	80 83       	st	Z, r24
    8008:	24 c0       	rjmp	.+72     	; 0x8052 <__stack+0x5e53>
    800a:	ce 01       	movw	r24, r28
    800c:	81 57       	subi	r24, 0x71	; 113
    800e:	9c 4f       	sbci	r25, 0xFC	; 252
    8010:	20 e7       	ldi	r18, 0x70	; 112
    8012:	31 e0       	ldi	r19, 0x01	; 1
    8014:	fc 01       	movw	r30, r24
    8016:	31 83       	std	Z+1, r19	; 0x01
    8018:	20 83       	st	Z, r18
    801a:	ce 01       	movw	r24, r28
    801c:	81 57       	subi	r24, 0x71	; 113
    801e:	9c 4f       	sbci	r25, 0xFC	; 252
    8020:	fc 01       	movw	r30, r24
    8022:	80 81       	ld	r24, Z
    8024:	91 81       	ldd	r25, Z+1	; 0x01
    8026:	01 97       	sbiw	r24, 0x01	; 1
    8028:	f1 f7       	brne	.-4      	; 0x8026 <__stack+0x5e27>
    802a:	9e 01       	movw	r18, r28
    802c:	21 57       	subi	r18, 0x71	; 113
    802e:	3c 4f       	sbci	r19, 0xFC	; 252
    8030:	f9 01       	movw	r30, r18
    8032:	91 83       	std	Z+1, r25	; 0x01
    8034:	80 83       	st	Z, r24
    8036:	ce 01       	movw	r24, r28
    8038:	83 57       	subi	r24, 0x73	; 115
    803a:	9c 4f       	sbci	r25, 0xFC	; 252
    803c:	9e 01       	movw	r18, r28
    803e:	23 57       	subi	r18, 0x73	; 115
    8040:	3c 4f       	sbci	r19, 0xFC	; 252
    8042:	f9 01       	movw	r30, r18
    8044:	20 81       	ld	r18, Z
    8046:	31 81       	ldd	r19, Z+1	; 0x01
    8048:	21 50       	subi	r18, 0x01	; 1
    804a:	31 09       	sbc	r19, r1
    804c:	fc 01       	movw	r30, r24
    804e:	31 83       	std	Z+1, r19	; 0x01
    8050:	20 83       	st	Z, r18
    8052:	ce 01       	movw	r24, r28
    8054:	83 57       	subi	r24, 0x73	; 115
    8056:	9c 4f       	sbci	r25, 0xFC	; 252
    8058:	fc 01       	movw	r30, r24
    805a:	80 81       	ld	r24, Z
    805c:	91 81       	ldd	r25, Z+1	; 0x01
    805e:	89 2b       	or	r24, r25
    8060:	a1 f6       	brne	.-88     	; 0x800a <__stack+0x5e0b>
    8062:	2c c0       	rjmp	.+88     	; 0x80bc <__stack+0x5ebd>
    8064:	8e 01       	movw	r16, r28
    8066:	03 57       	subi	r16, 0x73	; 115
    8068:	1c 4f       	sbci	r17, 0xFC	; 252
    806a:	ce 01       	movw	r24, r28
    806c:	87 57       	subi	r24, 0x77	; 119
    806e:	9c 4f       	sbci	r25, 0xFC	; 252
    8070:	fc 01       	movw	r30, r24
    8072:	60 81       	ld	r22, Z
    8074:	71 81       	ldd	r23, Z+1	; 0x01
    8076:	82 81       	ldd	r24, Z+2	; 0x02
    8078:	93 81       	ldd	r25, Z+3	; 0x03
    807a:	0e 94 e8 4f 	call	0x9fd0	; 0x9fd0 <__fixunssfsi>
    807e:	dc 01       	movw	r26, r24
    8080:	cb 01       	movw	r24, r22
    8082:	f8 01       	movw	r30, r16
    8084:	91 83       	std	Z+1, r25	; 0x01
    8086:	80 83       	st	Z, r24
    8088:	ce 01       	movw	r24, r28
    808a:	8f 56       	subi	r24, 0x6F	; 111
    808c:	9c 4f       	sbci	r25, 0xFC	; 252
    808e:	9e 01       	movw	r18, r28
    8090:	23 57       	subi	r18, 0x73	; 115
    8092:	3c 4f       	sbci	r19, 0xFC	; 252
    8094:	f9 01       	movw	r30, r18
    8096:	20 81       	ld	r18, Z
    8098:	31 81       	ldd	r19, Z+1	; 0x01
    809a:	fc 01       	movw	r30, r24
    809c:	31 83       	std	Z+1, r19	; 0x01
    809e:	20 83       	st	Z, r18
    80a0:	ce 01       	movw	r24, r28
    80a2:	8f 56       	subi	r24, 0x6F	; 111
    80a4:	9c 4f       	sbci	r25, 0xFC	; 252
    80a6:	fc 01       	movw	r30, r24
    80a8:	80 81       	ld	r24, Z
    80aa:	91 81       	ldd	r25, Z+1	; 0x01
    80ac:	01 97       	sbiw	r24, 0x01	; 1
    80ae:	f1 f7       	brne	.-4      	; 0x80ac <__stack+0x5ead>
    80b0:	9e 01       	movw	r18, r28
    80b2:	2f 56       	subi	r18, 0x6F	; 111
    80b4:	3c 4f       	sbci	r19, 0xFC	; 252
    80b6:	f9 01       	movw	r30, r18
    80b8:	91 83       	std	Z+1, r25	; 0x01
    80ba:	80 83       	st	Z, r24
    80bc:	0e 94 0c 0d 	call	0x1a18	; 0x1a18 <buzzer_on>
    80c0:	9e 01       	movw	r18, r28
    80c2:	25 50       	subi	r18, 0x05	; 5
    80c4:	3f 4f       	sbci	r19, 0xFF	; 255
    80c6:	80 e0       	ldi	r24, 0x00	; 0
    80c8:	90 e0       	ldi	r25, 0x00	; 0
    80ca:	a8 ec       	ldi	r26, 0xC8	; 200
    80cc:	b2 e4       	ldi	r27, 0x42	; 66
    80ce:	f9 01       	movw	r30, r18
    80d0:	80 83       	st	Z, r24
    80d2:	91 83       	std	Z+1, r25	; 0x01
    80d4:	a2 83       	std	Z+2, r26	; 0x02
    80d6:	b3 83       	std	Z+3, r27	; 0x03
    80d8:	8e 01       	movw	r16, r28
    80da:	01 58       	subi	r16, 0x81	; 129
    80dc:	1c 4f       	sbci	r17, 0xFC	; 252
    80de:	ce 01       	movw	r24, r28
    80e0:	85 50       	subi	r24, 0x05	; 5
    80e2:	9f 4f       	sbci	r25, 0xFF	; 255
    80e4:	26 e6       	ldi	r18, 0x66	; 102
    80e6:	36 e6       	ldi	r19, 0x66	; 102
    80e8:	46 e6       	ldi	r20, 0x66	; 102
    80ea:	55 e4       	ldi	r21, 0x45	; 69
    80ec:	fc 01       	movw	r30, r24
    80ee:	60 81       	ld	r22, Z
    80f0:	71 81       	ldd	r23, Z+1	; 0x01
    80f2:	82 81       	ldd	r24, Z+2	; 0x02
    80f4:	93 81       	ldd	r25, Z+3	; 0x03
    80f6:	0e 94 65 50 	call	0xa0ca	; 0xa0ca <__mulsf3>
    80fa:	dc 01       	movw	r26, r24
    80fc:	cb 01       	movw	r24, r22
    80fe:	f8 01       	movw	r30, r16
    8100:	80 83       	st	Z, r24
    8102:	91 83       	std	Z+1, r25	; 0x01
    8104:	a2 83       	std	Z+2, r26	; 0x02
    8106:	b3 83       	std	Z+3, r27	; 0x03
    8108:	ce 01       	movw	r24, r28
    810a:	81 58       	subi	r24, 0x81	; 129
    810c:	9c 4f       	sbci	r25, 0xFC	; 252
    810e:	20 e0       	ldi	r18, 0x00	; 0
    8110:	30 e0       	ldi	r19, 0x00	; 0
    8112:	40 e8       	ldi	r20, 0x80	; 128
    8114:	5f e3       	ldi	r21, 0x3F	; 63
    8116:	fc 01       	movw	r30, r24
    8118:	60 81       	ld	r22, Z
    811a:	71 81       	ldd	r23, Z+1	; 0x01
    811c:	82 81       	ldd	r24, Z+2	; 0x02
    811e:	93 81       	ldd	r25, Z+3	; 0x03
    8120:	0e 94 e4 4f 	call	0x9fc8	; 0x9fc8 <__cmpsf2>
    8124:	88 23       	and	r24, r24
    8126:	4c f4       	brge	.+18     	; 0x813a <__stack+0x5f3b>
    8128:	ce 01       	movw	r24, r28
    812a:	8d 57       	subi	r24, 0x7D	; 125
    812c:	9c 4f       	sbci	r25, 0xFC	; 252
    812e:	21 e0       	ldi	r18, 0x01	; 1
    8130:	30 e0       	ldi	r19, 0x00	; 0
    8132:	fc 01       	movw	r30, r24
    8134:	31 83       	std	Z+1, r19	; 0x01
    8136:	20 83       	st	Z, r18
    8138:	6d c0       	rjmp	.+218    	; 0x8214 <__stack+0x6015>
    813a:	ce 01       	movw	r24, r28
    813c:	81 58       	subi	r24, 0x81	; 129
    813e:	9c 4f       	sbci	r25, 0xFC	; 252
    8140:	20 e0       	ldi	r18, 0x00	; 0
    8142:	3f ef       	ldi	r19, 0xFF	; 255
    8144:	4f e7       	ldi	r20, 0x7F	; 127
    8146:	57 e4       	ldi	r21, 0x47	; 71
    8148:	fc 01       	movw	r30, r24
    814a:	60 81       	ld	r22, Z
    814c:	71 81       	ldd	r23, Z+1	; 0x01
    814e:	82 81       	ldd	r24, Z+2	; 0x02
    8150:	93 81       	ldd	r25, Z+3	; 0x03
    8152:	0e 94 61 50 	call	0xa0c2	; 0xa0c2 <__gesf2>
    8156:	18 16       	cp	r1, r24
    8158:	0c f0       	brlt	.+2      	; 0x815c <__stack+0x5f5d>
    815a:	4a c0       	rjmp	.+148    	; 0x81f0 <__stack+0x5ff1>
    815c:	ce 01       	movw	r24, r28
    815e:	85 50       	subi	r24, 0x05	; 5
    8160:	9f 4f       	sbci	r25, 0xFF	; 255
    8162:	20 e0       	ldi	r18, 0x00	; 0
    8164:	30 e0       	ldi	r19, 0x00	; 0
    8166:	40 e2       	ldi	r20, 0x20	; 32
    8168:	51 e4       	ldi	r21, 0x41	; 65
    816a:	fc 01       	movw	r30, r24
    816c:	60 81       	ld	r22, Z
    816e:	71 81       	ldd	r23, Z+1	; 0x01
    8170:	82 81       	ldd	r24, Z+2	; 0x02
    8172:	93 81       	ldd	r25, Z+3	; 0x03
    8174:	0e 94 65 50 	call	0xa0ca	; 0xa0ca <__mulsf3>
    8178:	dc 01       	movw	r26, r24
    817a:	cb 01       	movw	r24, r22
    817c:	8e 01       	movw	r16, r28
    817e:	0d 57       	subi	r16, 0x7D	; 125
    8180:	1c 4f       	sbci	r17, 0xFC	; 252
    8182:	bc 01       	movw	r22, r24
    8184:	cd 01       	movw	r24, r26
    8186:	0e 94 e8 4f 	call	0x9fd0	; 0x9fd0 <__fixunssfsi>
    818a:	dc 01       	movw	r26, r24
    818c:	cb 01       	movw	r24, r22
    818e:	f8 01       	movw	r30, r16
    8190:	91 83       	std	Z+1, r25	; 0x01
    8192:	80 83       	st	Z, r24
    8194:	24 c0       	rjmp	.+72     	; 0x81de <__stack+0x5fdf>
    8196:	ce 01       	movw	r24, r28
    8198:	8b 57       	subi	r24, 0x7B	; 123
    819a:	9c 4f       	sbci	r25, 0xFC	; 252
    819c:	20 e7       	ldi	r18, 0x70	; 112
    819e:	31 e0       	ldi	r19, 0x01	; 1
    81a0:	fc 01       	movw	r30, r24
    81a2:	31 83       	std	Z+1, r19	; 0x01
    81a4:	20 83       	st	Z, r18
    81a6:	ce 01       	movw	r24, r28
    81a8:	8b 57       	subi	r24, 0x7B	; 123
    81aa:	9c 4f       	sbci	r25, 0xFC	; 252
    81ac:	fc 01       	movw	r30, r24
    81ae:	80 81       	ld	r24, Z
    81b0:	91 81       	ldd	r25, Z+1	; 0x01
    81b2:	01 97       	sbiw	r24, 0x01	; 1
    81b4:	f1 f7       	brne	.-4      	; 0x81b2 <__stack+0x5fb3>
    81b6:	9e 01       	movw	r18, r28
    81b8:	2b 57       	subi	r18, 0x7B	; 123
    81ba:	3c 4f       	sbci	r19, 0xFC	; 252
    81bc:	f9 01       	movw	r30, r18
    81be:	91 83       	std	Z+1, r25	; 0x01
    81c0:	80 83       	st	Z, r24
    81c2:	ce 01       	movw	r24, r28
    81c4:	8d 57       	subi	r24, 0x7D	; 125
    81c6:	9c 4f       	sbci	r25, 0xFC	; 252
    81c8:	9e 01       	movw	r18, r28
    81ca:	2d 57       	subi	r18, 0x7D	; 125
    81cc:	3c 4f       	sbci	r19, 0xFC	; 252
    81ce:	f9 01       	movw	r30, r18
    81d0:	20 81       	ld	r18, Z
    81d2:	31 81       	ldd	r19, Z+1	; 0x01
    81d4:	21 50       	subi	r18, 0x01	; 1
    81d6:	31 09       	sbc	r19, r1
    81d8:	fc 01       	movw	r30, r24
    81da:	31 83       	std	Z+1, r19	; 0x01
    81dc:	20 83       	st	Z, r18
    81de:	ce 01       	movw	r24, r28
    81e0:	8d 57       	subi	r24, 0x7D	; 125
    81e2:	9c 4f       	sbci	r25, 0xFC	; 252
    81e4:	fc 01       	movw	r30, r24
    81e6:	80 81       	ld	r24, Z
    81e8:	91 81       	ldd	r25, Z+1	; 0x01
    81ea:	89 2b       	or	r24, r25
    81ec:	a1 f6       	brne	.-88     	; 0x8196 <__stack+0x5f97>
    81ee:	2c c0       	rjmp	.+88     	; 0x8248 <__stack+0x6049>
    81f0:	8e 01       	movw	r16, r28
    81f2:	0d 57       	subi	r16, 0x7D	; 125
    81f4:	1c 4f       	sbci	r17, 0xFC	; 252
    81f6:	ce 01       	movw	r24, r28
    81f8:	81 58       	subi	r24, 0x81	; 129
    81fa:	9c 4f       	sbci	r25, 0xFC	; 252
    81fc:	fc 01       	movw	r30, r24
    81fe:	60 81       	ld	r22, Z
    8200:	71 81       	ldd	r23, Z+1	; 0x01
    8202:	82 81       	ldd	r24, Z+2	; 0x02
    8204:	93 81       	ldd	r25, Z+3	; 0x03
    8206:	0e 94 e8 4f 	call	0x9fd0	; 0x9fd0 <__fixunssfsi>
    820a:	dc 01       	movw	r26, r24
    820c:	cb 01       	movw	r24, r22
    820e:	f8 01       	movw	r30, r16
    8210:	91 83       	std	Z+1, r25	; 0x01
    8212:	80 83       	st	Z, r24
    8214:	ce 01       	movw	r24, r28
    8216:	89 57       	subi	r24, 0x79	; 121
    8218:	9c 4f       	sbci	r25, 0xFC	; 252
    821a:	9e 01       	movw	r18, r28
    821c:	2d 57       	subi	r18, 0x7D	; 125
    821e:	3c 4f       	sbci	r19, 0xFC	; 252
    8220:	f9 01       	movw	r30, r18
    8222:	20 81       	ld	r18, Z
    8224:	31 81       	ldd	r19, Z+1	; 0x01
    8226:	fc 01       	movw	r30, r24
    8228:	31 83       	std	Z+1, r19	; 0x01
    822a:	20 83       	st	Z, r18
    822c:	ce 01       	movw	r24, r28
    822e:	89 57       	subi	r24, 0x79	; 121
    8230:	9c 4f       	sbci	r25, 0xFC	; 252
    8232:	fc 01       	movw	r30, r24
    8234:	80 81       	ld	r24, Z
    8236:	91 81       	ldd	r25, Z+1	; 0x01
    8238:	01 97       	sbiw	r24, 0x01	; 1
    823a:	f1 f7       	brne	.-4      	; 0x8238 <__stack+0x6039>
    823c:	9e 01       	movw	r18, r28
    823e:	29 57       	subi	r18, 0x79	; 121
    8240:	3c 4f       	sbci	r19, 0xFC	; 252
    8242:	f9 01       	movw	r30, r18
    8244:	91 83       	std	Z+1, r25	; 0x01
    8246:	80 83       	st	Z, r24
    8248:	0e 94 1d 0d 	call	0x1a3a	; 0x1a3a <buzzer_off>
    824c:	9e 01       	movw	r18, r28
    824e:	21 50       	subi	r18, 0x01	; 1
    8250:	3f 4f       	sbci	r19, 0xFF	; 255
    8252:	80 e0       	ldi	r24, 0x00	; 0
    8254:	90 e0       	ldi	r25, 0x00	; 0
    8256:	a8 e4       	ldi	r26, 0x48	; 72
    8258:	b2 e4       	ldi	r27, 0x42	; 66
    825a:	f9 01       	movw	r30, r18
    825c:	80 83       	st	Z, r24
    825e:	91 83       	std	Z+1, r25	; 0x01
    8260:	a2 83       	std	Z+2, r26	; 0x02
    8262:	b3 83       	std	Z+3, r27	; 0x03
    8264:	8e 01       	movw	r16, r28
    8266:	0b 58       	subi	r16, 0x8B	; 139
    8268:	1c 4f       	sbci	r17, 0xFC	; 252
    826a:	ce 01       	movw	r24, r28
    826c:	81 50       	subi	r24, 0x01	; 1
    826e:	9f 4f       	sbci	r25, 0xFF	; 255
    8270:	26 e6       	ldi	r18, 0x66	; 102
    8272:	36 e6       	ldi	r19, 0x66	; 102
    8274:	46 e6       	ldi	r20, 0x66	; 102
    8276:	55 e4       	ldi	r21, 0x45	; 69
    8278:	fc 01       	movw	r30, r24
    827a:	60 81       	ld	r22, Z
    827c:	71 81       	ldd	r23, Z+1	; 0x01
    827e:	82 81       	ldd	r24, Z+2	; 0x02
    8280:	93 81       	ldd	r25, Z+3	; 0x03
    8282:	0e 94 65 50 	call	0xa0ca	; 0xa0ca <__mulsf3>
    8286:	dc 01       	movw	r26, r24
    8288:	cb 01       	movw	r24, r22
    828a:	f8 01       	movw	r30, r16
    828c:	80 83       	st	Z, r24
    828e:	91 83       	std	Z+1, r25	; 0x01
    8290:	a2 83       	std	Z+2, r26	; 0x02
    8292:	b3 83       	std	Z+3, r27	; 0x03
    8294:	ce 01       	movw	r24, r28
    8296:	8b 58       	subi	r24, 0x8B	; 139
    8298:	9c 4f       	sbci	r25, 0xFC	; 252
    829a:	20 e0       	ldi	r18, 0x00	; 0
    829c:	30 e0       	ldi	r19, 0x00	; 0
    829e:	40 e8       	ldi	r20, 0x80	; 128
    82a0:	5f e3       	ldi	r21, 0x3F	; 63
    82a2:	fc 01       	movw	r30, r24
    82a4:	60 81       	ld	r22, Z
    82a6:	71 81       	ldd	r23, Z+1	; 0x01
    82a8:	82 81       	ldd	r24, Z+2	; 0x02
    82aa:	93 81       	ldd	r25, Z+3	; 0x03
    82ac:	0e 94 e4 4f 	call	0x9fc8	; 0x9fc8 <__cmpsf2>
    82b0:	88 23       	and	r24, r24
    82b2:	4c f4       	brge	.+18     	; 0x82c6 <__stack+0x60c7>
    82b4:	ce 01       	movw	r24, r28
    82b6:	87 58       	subi	r24, 0x87	; 135
    82b8:	9c 4f       	sbci	r25, 0xFC	; 252
    82ba:	21 e0       	ldi	r18, 0x01	; 1
    82bc:	30 e0       	ldi	r19, 0x00	; 0
    82be:	fc 01       	movw	r30, r24
    82c0:	31 83       	std	Z+1, r19	; 0x01
    82c2:	20 83       	st	Z, r18
    82c4:	6d c0       	rjmp	.+218    	; 0x83a0 <__stack+0x61a1>
    82c6:	ce 01       	movw	r24, r28
    82c8:	8b 58       	subi	r24, 0x8B	; 139
    82ca:	9c 4f       	sbci	r25, 0xFC	; 252
    82cc:	20 e0       	ldi	r18, 0x00	; 0
    82ce:	3f ef       	ldi	r19, 0xFF	; 255
    82d0:	4f e7       	ldi	r20, 0x7F	; 127
    82d2:	57 e4       	ldi	r21, 0x47	; 71
    82d4:	fc 01       	movw	r30, r24
    82d6:	60 81       	ld	r22, Z
    82d8:	71 81       	ldd	r23, Z+1	; 0x01
    82da:	82 81       	ldd	r24, Z+2	; 0x02
    82dc:	93 81       	ldd	r25, Z+3	; 0x03
    82de:	0e 94 61 50 	call	0xa0c2	; 0xa0c2 <__gesf2>
    82e2:	18 16       	cp	r1, r24
    82e4:	0c f0       	brlt	.+2      	; 0x82e8 <__stack+0x60e9>
    82e6:	4a c0       	rjmp	.+148    	; 0x837c <__stack+0x617d>
    82e8:	ce 01       	movw	r24, r28
    82ea:	81 50       	subi	r24, 0x01	; 1
    82ec:	9f 4f       	sbci	r25, 0xFF	; 255
    82ee:	20 e0       	ldi	r18, 0x00	; 0
    82f0:	30 e0       	ldi	r19, 0x00	; 0
    82f2:	40 e2       	ldi	r20, 0x20	; 32
    82f4:	51 e4       	ldi	r21, 0x41	; 65
    82f6:	fc 01       	movw	r30, r24
    82f8:	60 81       	ld	r22, Z
    82fa:	71 81       	ldd	r23, Z+1	; 0x01
    82fc:	82 81       	ldd	r24, Z+2	; 0x02
    82fe:	93 81       	ldd	r25, Z+3	; 0x03
    8300:	0e 94 65 50 	call	0xa0ca	; 0xa0ca <__mulsf3>
    8304:	dc 01       	movw	r26, r24
    8306:	cb 01       	movw	r24, r22
    8308:	8e 01       	movw	r16, r28
    830a:	07 58       	subi	r16, 0x87	; 135
    830c:	1c 4f       	sbci	r17, 0xFC	; 252
    830e:	bc 01       	movw	r22, r24
    8310:	cd 01       	movw	r24, r26
    8312:	0e 94 e8 4f 	call	0x9fd0	; 0x9fd0 <__fixunssfsi>
    8316:	dc 01       	movw	r26, r24
    8318:	cb 01       	movw	r24, r22
    831a:	f8 01       	movw	r30, r16
    831c:	91 83       	std	Z+1, r25	; 0x01
    831e:	80 83       	st	Z, r24
    8320:	24 c0       	rjmp	.+72     	; 0x836a <__stack+0x616b>
    8322:	ce 01       	movw	r24, r28
    8324:	85 58       	subi	r24, 0x85	; 133
    8326:	9c 4f       	sbci	r25, 0xFC	; 252
    8328:	20 e7       	ldi	r18, 0x70	; 112
    832a:	31 e0       	ldi	r19, 0x01	; 1
    832c:	fc 01       	movw	r30, r24
    832e:	31 83       	std	Z+1, r19	; 0x01
    8330:	20 83       	st	Z, r18
    8332:	ce 01       	movw	r24, r28
    8334:	85 58       	subi	r24, 0x85	; 133
    8336:	9c 4f       	sbci	r25, 0xFC	; 252
    8338:	fc 01       	movw	r30, r24
    833a:	80 81       	ld	r24, Z
    833c:	91 81       	ldd	r25, Z+1	; 0x01
    833e:	01 97       	sbiw	r24, 0x01	; 1
    8340:	f1 f7       	brne	.-4      	; 0x833e <__stack+0x613f>
    8342:	9e 01       	movw	r18, r28
    8344:	25 58       	subi	r18, 0x85	; 133
    8346:	3c 4f       	sbci	r19, 0xFC	; 252
    8348:	f9 01       	movw	r30, r18
    834a:	91 83       	std	Z+1, r25	; 0x01
    834c:	80 83       	st	Z, r24
    834e:	ce 01       	movw	r24, r28
    8350:	87 58       	subi	r24, 0x87	; 135
    8352:	9c 4f       	sbci	r25, 0xFC	; 252
    8354:	9e 01       	movw	r18, r28
    8356:	27 58       	subi	r18, 0x87	; 135
    8358:	3c 4f       	sbci	r19, 0xFC	; 252
    835a:	f9 01       	movw	r30, r18
    835c:	20 81       	ld	r18, Z
    835e:	31 81       	ldd	r19, Z+1	; 0x01
    8360:	21 50       	subi	r18, 0x01	; 1
    8362:	31 09       	sbc	r19, r1
    8364:	fc 01       	movw	r30, r24
    8366:	31 83       	std	Z+1, r19	; 0x01
    8368:	20 83       	st	Z, r18
    836a:	ce 01       	movw	r24, r28
    836c:	87 58       	subi	r24, 0x87	; 135
    836e:	9c 4f       	sbci	r25, 0xFC	; 252
    8370:	fc 01       	movw	r30, r24
    8372:	80 81       	ld	r24, Z
    8374:	91 81       	ldd	r25, Z+1	; 0x01
    8376:	89 2b       	or	r24, r25
    8378:	a1 f6       	brne	.-88     	; 0x8322 <__stack+0x6123>
    837a:	2c c0       	rjmp	.+88     	; 0x83d4 <__stack+0x61d5>
    837c:	8e 01       	movw	r16, r28
    837e:	07 58       	subi	r16, 0x87	; 135
    8380:	1c 4f       	sbci	r17, 0xFC	; 252
    8382:	ce 01       	movw	r24, r28
    8384:	8b 58       	subi	r24, 0x8B	; 139
    8386:	9c 4f       	sbci	r25, 0xFC	; 252
    8388:	fc 01       	movw	r30, r24
    838a:	60 81       	ld	r22, Z
    838c:	71 81       	ldd	r23, Z+1	; 0x01
    838e:	82 81       	ldd	r24, Z+2	; 0x02
    8390:	93 81       	ldd	r25, Z+3	; 0x03
    8392:	0e 94 e8 4f 	call	0x9fd0	; 0x9fd0 <__fixunssfsi>
    8396:	dc 01       	movw	r26, r24
    8398:	cb 01       	movw	r24, r22
    839a:	f8 01       	movw	r30, r16
    839c:	91 83       	std	Z+1, r25	; 0x01
    839e:	80 83       	st	Z, r24
    83a0:	ce 01       	movw	r24, r28
    83a2:	83 58       	subi	r24, 0x83	; 131
    83a4:	9c 4f       	sbci	r25, 0xFC	; 252
    83a6:	9e 01       	movw	r18, r28
    83a8:	27 58       	subi	r18, 0x87	; 135
    83aa:	3c 4f       	sbci	r19, 0xFC	; 252
    83ac:	f9 01       	movw	r30, r18
    83ae:	20 81       	ld	r18, Z
    83b0:	31 81       	ldd	r19, Z+1	; 0x01
    83b2:	fc 01       	movw	r30, r24
    83b4:	31 83       	std	Z+1, r19	; 0x01
    83b6:	20 83       	st	Z, r18
    83b8:	ce 01       	movw	r24, r28
    83ba:	83 58       	subi	r24, 0x83	; 131
    83bc:	9c 4f       	sbci	r25, 0xFC	; 252
    83be:	fc 01       	movw	r30, r24
    83c0:	80 81       	ld	r24, Z
    83c2:	91 81       	ldd	r25, Z+1	; 0x01
    83c4:	01 97       	sbiw	r24, 0x01	; 1
    83c6:	f1 f7       	brne	.-4      	; 0x83c4 <__stack+0x61c5>
    83c8:	9e 01       	movw	r18, r28
    83ca:	23 58       	subi	r18, 0x83	; 131
    83cc:	3c 4f       	sbci	r19, 0xFC	; 252
    83ce:	f9 01       	movw	r30, r18
    83d0:	91 83       	std	Z+1, r25	; 0x01
    83d2:	80 83       	st	Z, r24
    83d4:	0e 94 0c 0d 	call	0x1a18	; 0x1a18 <buzzer_on>
    83d8:	9e 01       	movw	r18, r28
    83da:	2d 5f       	subi	r18, 0xFD	; 253
    83dc:	3e 4f       	sbci	r19, 0xFE	; 254
    83de:	80 e0       	ldi	r24, 0x00	; 0
    83e0:	90 e0       	ldi	r25, 0x00	; 0
    83e2:	aa ef       	ldi	r26, 0xFA	; 250
    83e4:	b3 e4       	ldi	r27, 0x43	; 67
    83e6:	f9 01       	movw	r30, r18
    83e8:	80 83       	st	Z, r24
    83ea:	91 83       	std	Z+1, r25	; 0x01
    83ec:	a2 83       	std	Z+2, r26	; 0x02
    83ee:	b3 83       	std	Z+3, r27	; 0x03
    83f0:	8e 01       	movw	r16, r28
    83f2:	05 59       	subi	r16, 0x95	; 149
    83f4:	1c 4f       	sbci	r17, 0xFC	; 252
    83f6:	ce 01       	movw	r24, r28
    83f8:	8d 5f       	subi	r24, 0xFD	; 253
    83fa:	9e 4f       	sbci	r25, 0xFE	; 254
    83fc:	26 e6       	ldi	r18, 0x66	; 102
    83fe:	36 e6       	ldi	r19, 0x66	; 102
    8400:	46 e6       	ldi	r20, 0x66	; 102
    8402:	55 e4       	ldi	r21, 0x45	; 69
    8404:	fc 01       	movw	r30, r24
    8406:	60 81       	ld	r22, Z
    8408:	71 81       	ldd	r23, Z+1	; 0x01
    840a:	82 81       	ldd	r24, Z+2	; 0x02
    840c:	93 81       	ldd	r25, Z+3	; 0x03
    840e:	0e 94 65 50 	call	0xa0ca	; 0xa0ca <__mulsf3>
    8412:	dc 01       	movw	r26, r24
    8414:	cb 01       	movw	r24, r22
    8416:	f8 01       	movw	r30, r16
    8418:	80 83       	st	Z, r24
    841a:	91 83       	std	Z+1, r25	; 0x01
    841c:	a2 83       	std	Z+2, r26	; 0x02
    841e:	b3 83       	std	Z+3, r27	; 0x03
    8420:	ce 01       	movw	r24, r28
    8422:	85 59       	subi	r24, 0x95	; 149
    8424:	9c 4f       	sbci	r25, 0xFC	; 252
    8426:	20 e0       	ldi	r18, 0x00	; 0
    8428:	30 e0       	ldi	r19, 0x00	; 0
    842a:	40 e8       	ldi	r20, 0x80	; 128
    842c:	5f e3       	ldi	r21, 0x3F	; 63
    842e:	fc 01       	movw	r30, r24
    8430:	60 81       	ld	r22, Z
    8432:	71 81       	ldd	r23, Z+1	; 0x01
    8434:	82 81       	ldd	r24, Z+2	; 0x02
    8436:	93 81       	ldd	r25, Z+3	; 0x03
    8438:	0e 94 e4 4f 	call	0x9fc8	; 0x9fc8 <__cmpsf2>
    843c:	88 23       	and	r24, r24
    843e:	4c f4       	brge	.+18     	; 0x8452 <__stack+0x6253>
    8440:	ce 01       	movw	r24, r28
    8442:	81 59       	subi	r24, 0x91	; 145
    8444:	9c 4f       	sbci	r25, 0xFC	; 252
    8446:	21 e0       	ldi	r18, 0x01	; 1
    8448:	30 e0       	ldi	r19, 0x00	; 0
    844a:	fc 01       	movw	r30, r24
    844c:	31 83       	std	Z+1, r19	; 0x01
    844e:	20 83       	st	Z, r18
    8450:	6d c0       	rjmp	.+218    	; 0x852c <__stack+0x632d>
    8452:	ce 01       	movw	r24, r28
    8454:	85 59       	subi	r24, 0x95	; 149
    8456:	9c 4f       	sbci	r25, 0xFC	; 252
    8458:	20 e0       	ldi	r18, 0x00	; 0
    845a:	3f ef       	ldi	r19, 0xFF	; 255
    845c:	4f e7       	ldi	r20, 0x7F	; 127
    845e:	57 e4       	ldi	r21, 0x47	; 71
    8460:	fc 01       	movw	r30, r24
    8462:	60 81       	ld	r22, Z
    8464:	71 81       	ldd	r23, Z+1	; 0x01
    8466:	82 81       	ldd	r24, Z+2	; 0x02
    8468:	93 81       	ldd	r25, Z+3	; 0x03
    846a:	0e 94 61 50 	call	0xa0c2	; 0xa0c2 <__gesf2>
    846e:	18 16       	cp	r1, r24
    8470:	0c f0       	brlt	.+2      	; 0x8474 <__stack+0x6275>
    8472:	4a c0       	rjmp	.+148    	; 0x8508 <__stack+0x6309>
    8474:	ce 01       	movw	r24, r28
    8476:	8d 5f       	subi	r24, 0xFD	; 253
    8478:	9e 4f       	sbci	r25, 0xFE	; 254
    847a:	20 e0       	ldi	r18, 0x00	; 0
    847c:	30 e0       	ldi	r19, 0x00	; 0
    847e:	40 e2       	ldi	r20, 0x20	; 32
    8480:	51 e4       	ldi	r21, 0x41	; 65
    8482:	fc 01       	movw	r30, r24
    8484:	60 81       	ld	r22, Z
    8486:	71 81       	ldd	r23, Z+1	; 0x01
    8488:	82 81       	ldd	r24, Z+2	; 0x02
    848a:	93 81       	ldd	r25, Z+3	; 0x03
    848c:	0e 94 65 50 	call	0xa0ca	; 0xa0ca <__mulsf3>
    8490:	dc 01       	movw	r26, r24
    8492:	cb 01       	movw	r24, r22
    8494:	8e 01       	movw	r16, r28
    8496:	01 59       	subi	r16, 0x91	; 145
    8498:	1c 4f       	sbci	r17, 0xFC	; 252
    849a:	bc 01       	movw	r22, r24
    849c:	cd 01       	movw	r24, r26
    849e:	0e 94 e8 4f 	call	0x9fd0	; 0x9fd0 <__fixunssfsi>
    84a2:	dc 01       	movw	r26, r24
    84a4:	cb 01       	movw	r24, r22
    84a6:	f8 01       	movw	r30, r16
    84a8:	91 83       	std	Z+1, r25	; 0x01
    84aa:	80 83       	st	Z, r24
    84ac:	24 c0       	rjmp	.+72     	; 0x84f6 <__stack+0x62f7>
    84ae:	ce 01       	movw	r24, r28
    84b0:	8f 58       	subi	r24, 0x8F	; 143
    84b2:	9c 4f       	sbci	r25, 0xFC	; 252
    84b4:	20 e7       	ldi	r18, 0x70	; 112
    84b6:	31 e0       	ldi	r19, 0x01	; 1
    84b8:	fc 01       	movw	r30, r24
    84ba:	31 83       	std	Z+1, r19	; 0x01
    84bc:	20 83       	st	Z, r18
    84be:	ce 01       	movw	r24, r28
    84c0:	8f 58       	subi	r24, 0x8F	; 143
    84c2:	9c 4f       	sbci	r25, 0xFC	; 252
    84c4:	fc 01       	movw	r30, r24
    84c6:	80 81       	ld	r24, Z
    84c8:	91 81       	ldd	r25, Z+1	; 0x01
    84ca:	01 97       	sbiw	r24, 0x01	; 1
    84cc:	f1 f7       	brne	.-4      	; 0x84ca <__stack+0x62cb>
    84ce:	9e 01       	movw	r18, r28
    84d0:	2f 58       	subi	r18, 0x8F	; 143
    84d2:	3c 4f       	sbci	r19, 0xFC	; 252
    84d4:	f9 01       	movw	r30, r18
    84d6:	91 83       	std	Z+1, r25	; 0x01
    84d8:	80 83       	st	Z, r24
    84da:	ce 01       	movw	r24, r28
    84dc:	81 59       	subi	r24, 0x91	; 145
    84de:	9c 4f       	sbci	r25, 0xFC	; 252
    84e0:	9e 01       	movw	r18, r28
    84e2:	21 59       	subi	r18, 0x91	; 145
    84e4:	3c 4f       	sbci	r19, 0xFC	; 252
    84e6:	f9 01       	movw	r30, r18
    84e8:	20 81       	ld	r18, Z
    84ea:	31 81       	ldd	r19, Z+1	; 0x01
    84ec:	21 50       	subi	r18, 0x01	; 1
    84ee:	31 09       	sbc	r19, r1
    84f0:	fc 01       	movw	r30, r24
    84f2:	31 83       	std	Z+1, r19	; 0x01
    84f4:	20 83       	st	Z, r18
    84f6:	ce 01       	movw	r24, r28
    84f8:	81 59       	subi	r24, 0x91	; 145
    84fa:	9c 4f       	sbci	r25, 0xFC	; 252
    84fc:	fc 01       	movw	r30, r24
    84fe:	80 81       	ld	r24, Z
    8500:	91 81       	ldd	r25, Z+1	; 0x01
    8502:	89 2b       	or	r24, r25
    8504:	a1 f6       	brne	.-88     	; 0x84ae <__stack+0x62af>
    8506:	2c c0       	rjmp	.+88     	; 0x8560 <__stack+0x6361>
    8508:	8e 01       	movw	r16, r28
    850a:	01 59       	subi	r16, 0x91	; 145
    850c:	1c 4f       	sbci	r17, 0xFC	; 252
    850e:	ce 01       	movw	r24, r28
    8510:	85 59       	subi	r24, 0x95	; 149
    8512:	9c 4f       	sbci	r25, 0xFC	; 252
    8514:	fc 01       	movw	r30, r24
    8516:	60 81       	ld	r22, Z
    8518:	71 81       	ldd	r23, Z+1	; 0x01
    851a:	82 81       	ldd	r24, Z+2	; 0x02
    851c:	93 81       	ldd	r25, Z+3	; 0x03
    851e:	0e 94 e8 4f 	call	0x9fd0	; 0x9fd0 <__fixunssfsi>
    8522:	dc 01       	movw	r26, r24
    8524:	cb 01       	movw	r24, r22
    8526:	f8 01       	movw	r30, r16
    8528:	91 83       	std	Z+1, r25	; 0x01
    852a:	80 83       	st	Z, r24
    852c:	ce 01       	movw	r24, r28
    852e:	8d 58       	subi	r24, 0x8D	; 141
    8530:	9c 4f       	sbci	r25, 0xFC	; 252
    8532:	9e 01       	movw	r18, r28
    8534:	21 59       	subi	r18, 0x91	; 145
    8536:	3c 4f       	sbci	r19, 0xFC	; 252
    8538:	f9 01       	movw	r30, r18
    853a:	20 81       	ld	r18, Z
    853c:	31 81       	ldd	r19, Z+1	; 0x01
    853e:	fc 01       	movw	r30, r24
    8540:	31 83       	std	Z+1, r19	; 0x01
    8542:	20 83       	st	Z, r18
    8544:	ce 01       	movw	r24, r28
    8546:	8d 58       	subi	r24, 0x8D	; 141
    8548:	9c 4f       	sbci	r25, 0xFC	; 252
    854a:	fc 01       	movw	r30, r24
    854c:	80 81       	ld	r24, Z
    854e:	91 81       	ldd	r25, Z+1	; 0x01
    8550:	01 97       	sbiw	r24, 0x01	; 1
    8552:	f1 f7       	brne	.-4      	; 0x8550 <__stack+0x6351>
    8554:	9e 01       	movw	r18, r28
    8556:	2d 58       	subi	r18, 0x8D	; 141
    8558:	3c 4f       	sbci	r19, 0xFC	; 252
    855a:	f9 01       	movw	r30, r18
    855c:	91 83       	std	Z+1, r25	; 0x01
    855e:	80 83       	st	Z, r24
    8560:	0e 94 1d 0d 	call	0x1a3a	; 0x1a3a <buzzer_off>
    8564:	9e 01       	movw	r18, r28
    8566:	25 52       	subi	r18, 0x25	; 37
    8568:	3f 4f       	sbci	r19, 0xFF	; 255
    856a:	80 e0       	ldi	r24, 0x00	; 0
    856c:	90 e0       	ldi	r25, 0x00	; 0
    856e:	a8 e4       	ldi	r26, 0x48	; 72
    8570:	b2 e4       	ldi	r27, 0x42	; 66
    8572:	f9 01       	movw	r30, r18
    8574:	80 83       	st	Z, r24
    8576:	91 83       	std	Z+1, r25	; 0x01
    8578:	a2 83       	std	Z+2, r26	; 0x02
    857a:	b3 83       	std	Z+3, r27	; 0x03
    857c:	8e 01       	movw	r16, r28
    857e:	0f 59       	subi	r16, 0x9F	; 159
    8580:	1c 4f       	sbci	r17, 0xFC	; 252
    8582:	ce 01       	movw	r24, r28
    8584:	85 52       	subi	r24, 0x25	; 37
    8586:	9f 4f       	sbci	r25, 0xFF	; 255
    8588:	26 e6       	ldi	r18, 0x66	; 102
    858a:	36 e6       	ldi	r19, 0x66	; 102
    858c:	46 e6       	ldi	r20, 0x66	; 102
    858e:	55 e4       	ldi	r21, 0x45	; 69
    8590:	fc 01       	movw	r30, r24
    8592:	60 81       	ld	r22, Z
    8594:	71 81       	ldd	r23, Z+1	; 0x01
    8596:	82 81       	ldd	r24, Z+2	; 0x02
    8598:	93 81       	ldd	r25, Z+3	; 0x03
    859a:	0e 94 65 50 	call	0xa0ca	; 0xa0ca <__mulsf3>
    859e:	dc 01       	movw	r26, r24
    85a0:	cb 01       	movw	r24, r22
    85a2:	f8 01       	movw	r30, r16
    85a4:	80 83       	st	Z, r24
    85a6:	91 83       	std	Z+1, r25	; 0x01
    85a8:	a2 83       	std	Z+2, r26	; 0x02
    85aa:	b3 83       	std	Z+3, r27	; 0x03
    85ac:	ce 01       	movw	r24, r28
    85ae:	8f 59       	subi	r24, 0x9F	; 159
    85b0:	9c 4f       	sbci	r25, 0xFC	; 252
    85b2:	20 e0       	ldi	r18, 0x00	; 0
    85b4:	30 e0       	ldi	r19, 0x00	; 0
    85b6:	40 e8       	ldi	r20, 0x80	; 128
    85b8:	5f e3       	ldi	r21, 0x3F	; 63
    85ba:	fc 01       	movw	r30, r24
    85bc:	60 81       	ld	r22, Z
    85be:	71 81       	ldd	r23, Z+1	; 0x01
    85c0:	82 81       	ldd	r24, Z+2	; 0x02
    85c2:	93 81       	ldd	r25, Z+3	; 0x03
    85c4:	0e 94 e4 4f 	call	0x9fc8	; 0x9fc8 <__cmpsf2>
    85c8:	88 23       	and	r24, r24
    85ca:	4c f4       	brge	.+18     	; 0x85de <__stack+0x63df>
    85cc:	ce 01       	movw	r24, r28
    85ce:	8b 59       	subi	r24, 0x9B	; 155
    85d0:	9c 4f       	sbci	r25, 0xFC	; 252
    85d2:	21 e0       	ldi	r18, 0x01	; 1
    85d4:	30 e0       	ldi	r19, 0x00	; 0
    85d6:	fc 01       	movw	r30, r24
    85d8:	31 83       	std	Z+1, r19	; 0x01
    85da:	20 83       	st	Z, r18
    85dc:	6d c0       	rjmp	.+218    	; 0x86b8 <__stack+0x64b9>
    85de:	ce 01       	movw	r24, r28
    85e0:	8f 59       	subi	r24, 0x9F	; 159
    85e2:	9c 4f       	sbci	r25, 0xFC	; 252
    85e4:	20 e0       	ldi	r18, 0x00	; 0
    85e6:	3f ef       	ldi	r19, 0xFF	; 255
    85e8:	4f e7       	ldi	r20, 0x7F	; 127
    85ea:	57 e4       	ldi	r21, 0x47	; 71
    85ec:	fc 01       	movw	r30, r24
    85ee:	60 81       	ld	r22, Z
    85f0:	71 81       	ldd	r23, Z+1	; 0x01
    85f2:	82 81       	ldd	r24, Z+2	; 0x02
    85f4:	93 81       	ldd	r25, Z+3	; 0x03
    85f6:	0e 94 61 50 	call	0xa0c2	; 0xa0c2 <__gesf2>
    85fa:	18 16       	cp	r1, r24
    85fc:	0c f0       	brlt	.+2      	; 0x8600 <__stack+0x6401>
    85fe:	4a c0       	rjmp	.+148    	; 0x8694 <__stack+0x6495>
    8600:	ce 01       	movw	r24, r28
    8602:	85 52       	subi	r24, 0x25	; 37
    8604:	9f 4f       	sbci	r25, 0xFF	; 255
    8606:	20 e0       	ldi	r18, 0x00	; 0
    8608:	30 e0       	ldi	r19, 0x00	; 0
    860a:	40 e2       	ldi	r20, 0x20	; 32
    860c:	51 e4       	ldi	r21, 0x41	; 65
    860e:	fc 01       	movw	r30, r24
    8610:	60 81       	ld	r22, Z
    8612:	71 81       	ldd	r23, Z+1	; 0x01
    8614:	82 81       	ldd	r24, Z+2	; 0x02
    8616:	93 81       	ldd	r25, Z+3	; 0x03
    8618:	0e 94 65 50 	call	0xa0ca	; 0xa0ca <__mulsf3>
    861c:	dc 01       	movw	r26, r24
    861e:	cb 01       	movw	r24, r22
    8620:	8e 01       	movw	r16, r28
    8622:	0b 59       	subi	r16, 0x9B	; 155
    8624:	1c 4f       	sbci	r17, 0xFC	; 252
    8626:	bc 01       	movw	r22, r24
    8628:	cd 01       	movw	r24, r26
    862a:	0e 94 e8 4f 	call	0x9fd0	; 0x9fd0 <__fixunssfsi>
    862e:	dc 01       	movw	r26, r24
    8630:	cb 01       	movw	r24, r22
    8632:	f8 01       	movw	r30, r16
    8634:	91 83       	std	Z+1, r25	; 0x01
    8636:	80 83       	st	Z, r24
    8638:	24 c0       	rjmp	.+72     	; 0x8682 <__stack+0x6483>
    863a:	ce 01       	movw	r24, r28
    863c:	89 59       	subi	r24, 0x99	; 153
    863e:	9c 4f       	sbci	r25, 0xFC	; 252
    8640:	20 e7       	ldi	r18, 0x70	; 112
    8642:	31 e0       	ldi	r19, 0x01	; 1
    8644:	fc 01       	movw	r30, r24
    8646:	31 83       	std	Z+1, r19	; 0x01
    8648:	20 83       	st	Z, r18
    864a:	ce 01       	movw	r24, r28
    864c:	89 59       	subi	r24, 0x99	; 153
    864e:	9c 4f       	sbci	r25, 0xFC	; 252
    8650:	fc 01       	movw	r30, r24
    8652:	80 81       	ld	r24, Z
    8654:	91 81       	ldd	r25, Z+1	; 0x01
    8656:	01 97       	sbiw	r24, 0x01	; 1
    8658:	f1 f7       	brne	.-4      	; 0x8656 <__stack+0x6457>
    865a:	9e 01       	movw	r18, r28
    865c:	29 59       	subi	r18, 0x99	; 153
    865e:	3c 4f       	sbci	r19, 0xFC	; 252
    8660:	f9 01       	movw	r30, r18
    8662:	91 83       	std	Z+1, r25	; 0x01
    8664:	80 83       	st	Z, r24
    8666:	ce 01       	movw	r24, r28
    8668:	8b 59       	subi	r24, 0x9B	; 155
    866a:	9c 4f       	sbci	r25, 0xFC	; 252
    866c:	9e 01       	movw	r18, r28
    866e:	2b 59       	subi	r18, 0x9B	; 155
    8670:	3c 4f       	sbci	r19, 0xFC	; 252
    8672:	f9 01       	movw	r30, r18
    8674:	20 81       	ld	r18, Z
    8676:	31 81       	ldd	r19, Z+1	; 0x01
    8678:	21 50       	subi	r18, 0x01	; 1
    867a:	31 09       	sbc	r19, r1
    867c:	fc 01       	movw	r30, r24
    867e:	31 83       	std	Z+1, r19	; 0x01
    8680:	20 83       	st	Z, r18
    8682:	ce 01       	movw	r24, r28
    8684:	8b 59       	subi	r24, 0x9B	; 155
    8686:	9c 4f       	sbci	r25, 0xFC	; 252
    8688:	fc 01       	movw	r30, r24
    868a:	80 81       	ld	r24, Z
    868c:	91 81       	ldd	r25, Z+1	; 0x01
    868e:	89 2b       	or	r24, r25
    8690:	a1 f6       	brne	.-88     	; 0x863a <__stack+0x643b>
    8692:	2c c0       	rjmp	.+88     	; 0x86ec <__stack+0x64ed>
    8694:	8e 01       	movw	r16, r28
    8696:	0b 59       	subi	r16, 0x9B	; 155
    8698:	1c 4f       	sbci	r17, 0xFC	; 252
    869a:	ce 01       	movw	r24, r28
    869c:	8f 59       	subi	r24, 0x9F	; 159
    869e:	9c 4f       	sbci	r25, 0xFC	; 252
    86a0:	fc 01       	movw	r30, r24
    86a2:	60 81       	ld	r22, Z
    86a4:	71 81       	ldd	r23, Z+1	; 0x01
    86a6:	82 81       	ldd	r24, Z+2	; 0x02
    86a8:	93 81       	ldd	r25, Z+3	; 0x03
    86aa:	0e 94 e8 4f 	call	0x9fd0	; 0x9fd0 <__fixunssfsi>
    86ae:	dc 01       	movw	r26, r24
    86b0:	cb 01       	movw	r24, r22
    86b2:	f8 01       	movw	r30, r16
    86b4:	91 83       	std	Z+1, r25	; 0x01
    86b6:	80 83       	st	Z, r24
    86b8:	ce 01       	movw	r24, r28
    86ba:	87 59       	subi	r24, 0x97	; 151
    86bc:	9c 4f       	sbci	r25, 0xFC	; 252
    86be:	9e 01       	movw	r18, r28
    86c0:	2b 59       	subi	r18, 0x9B	; 155
    86c2:	3c 4f       	sbci	r19, 0xFC	; 252
    86c4:	f9 01       	movw	r30, r18
    86c6:	20 81       	ld	r18, Z
    86c8:	31 81       	ldd	r19, Z+1	; 0x01
    86ca:	fc 01       	movw	r30, r24
    86cc:	31 83       	std	Z+1, r19	; 0x01
    86ce:	20 83       	st	Z, r18
    86d0:	ce 01       	movw	r24, r28
    86d2:	87 59       	subi	r24, 0x97	; 151
    86d4:	9c 4f       	sbci	r25, 0xFC	; 252
    86d6:	fc 01       	movw	r30, r24
    86d8:	80 81       	ld	r24, Z
    86da:	91 81       	ldd	r25, Z+1	; 0x01
    86dc:	01 97       	sbiw	r24, 0x01	; 1
    86de:	f1 f7       	brne	.-4      	; 0x86dc <__stack+0x64dd>
    86e0:	9e 01       	movw	r18, r28
    86e2:	27 59       	subi	r18, 0x97	; 151
    86e4:	3c 4f       	sbci	r19, 0xFC	; 252
    86e6:	f9 01       	movw	r30, r18
    86e8:	91 83       	std	Z+1, r25	; 0x01
    86ea:	80 83       	st	Z, r24
    86ec:	80 91 34 02 	lds	r24, 0x0234	; 0x800234 <Center_white_line>
    86f0:	88 30       	cpi	r24, 0x08	; 8
    86f2:	48 f0       	brcs	.+18     	; 0x8706 <__stack+0x6507>
    86f4:	81 e0       	ldi	r24, 0x01	; 1
    86f6:	80 93 32 02 	sts	0x0232, r24	; 0x800232 <__data_end>
    86fa:	0e 94 8c 0e 	call	0x1d18	; 0x1d18 <forward>
    86fe:	60 ea       	ldi	r22, 0xA0	; 160
    8700:	80 ea       	ldi	r24, 0xA0	; 160
    8702:	0e 94 52 0e 	call	0x1ca4	; 0x1ca4 <velocity>
    8706:	80 91 33 02 	lds	r24, 0x0233	; 0x800233 <Left_white_line>
    870a:	87 30       	cpi	r24, 0x07	; 7
    870c:	68 f4       	brcc	.+26     	; 0x8728 <__stack+0x6529>
    870e:	80 91 32 02 	lds	r24, 0x0232	; 0x800232 <__data_end>
    8712:	88 23       	and	r24, r24
    8714:	49 f4       	brne	.+18     	; 0x8728 <__stack+0x6529>
    8716:	81 e0       	ldi	r24, 0x01	; 1
    8718:	80 93 32 02 	sts	0x0232, r24	; 0x800232 <__data_end>
    871c:	0e 94 8c 0e 	call	0x1d18	; 0x1d18 <forward>
    8720:	62 e3       	ldi	r22, 0x32	; 50
    8722:	82 e8       	ldi	r24, 0x82	; 130
    8724:	0e 94 52 0e 	call	0x1ca4	; 0x1ca4 <velocity>
    8728:	80 91 35 02 	lds	r24, 0x0235	; 0x800235 <Right_white_line>
    872c:	88 30       	cpi	r24, 0x08	; 8
    872e:	68 f4       	brcc	.+26     	; 0x874a <__stack+0x654b>
    8730:	80 91 32 02 	lds	r24, 0x0232	; 0x800232 <__data_end>
    8734:	88 23       	and	r24, r24
    8736:	49 f4       	brne	.+18     	; 0x874a <__stack+0x654b>
    8738:	81 e0       	ldi	r24, 0x01	; 1
    873a:	80 93 32 02 	sts	0x0232, r24	; 0x800232 <__data_end>
    873e:	0e 94 8c 0e 	call	0x1d18	; 0x1d18 <forward>
    8742:	62 e8       	ldi	r22, 0x82	; 130
    8744:	82 e3       	ldi	r24, 0x32	; 50
    8746:	0e 94 52 0e 	call	0x1ca4	; 0x1ca4 <velocity>
    874a:	80 91 34 02 	lds	r24, 0x0234	; 0x800234 <Center_white_line>
    874e:	87 30       	cpi	r24, 0x07	; 7
    8750:	70 f4       	brcc	.+28     	; 0x876e <__stack+0x656f>
    8752:	80 91 33 02 	lds	r24, 0x0233	; 0x800233 <Left_white_line>
    8756:	87 30       	cpi	r24, 0x07	; 7
    8758:	50 f4       	brcc	.+20     	; 0x876e <__stack+0x656f>
    875a:	80 91 35 02 	lds	r24, 0x0235	; 0x800235 <Right_white_line>
    875e:	87 30       	cpi	r24, 0x07	; 7
    8760:	30 f4       	brcc	.+12     	; 0x876e <__stack+0x656f>
    8762:	0e 94 8c 0e 	call	0x1d18	; 0x1d18 <forward>
    8766:	60 ea       	ldi	r22, 0xA0	; 160
    8768:	80 ea       	ldi	r24, 0xA0	; 160
    876a:	0e 94 52 0e 	call	0x1ca4	; 0x1ca4 <velocity>
    876e:	80 91 34 02 	lds	r24, 0x0234	; 0x800234 <Center_white_line>
    8772:	88 30       	cpi	r24, 0x08	; 8
    8774:	10 f4       	brcc	.+4      	; 0x877a <__stack+0x657b>
    8776:	0c 94 97 4f 	jmp	0x9f2e	; 0x9f2e <__stack+0x7d2f>
    877a:	80 91 33 02 	lds	r24, 0x0233	; 0x800233 <Left_white_line>
    877e:	88 30       	cpi	r24, 0x08	; 8
    8780:	10 f4       	brcc	.+4      	; 0x8786 <__stack+0x6587>
    8782:	0c 94 97 4f 	jmp	0x9f2e	; 0x9f2e <__stack+0x7d2f>
    8786:	80 91 35 02 	lds	r24, 0x0235	; 0x800235 <Right_white_line>
    878a:	88 30       	cpi	r24, 0x08	; 8
    878c:	10 f4       	brcc	.+4      	; 0x8792 <__stack+0x6593>
    878e:	0c 94 97 4f 	jmp	0x9f2e	; 0x9f2e <__stack+0x7d2f>
    8792:	0e 94 aa 0e 	call	0x1d54	; 0x1d54 <stop>
    8796:	9e 01       	movw	r18, r28
    8798:	25 5f       	subi	r18, 0xF5	; 245
    879a:	3e 4f       	sbci	r19, 0xFE	; 254
    879c:	80 e0       	ldi	r24, 0x00	; 0
    879e:	90 e0       	ldi	r25, 0x00	; 0
    87a0:	aa ef       	ldi	r26, 0xFA	; 250
    87a2:	b3 e4       	ldi	r27, 0x43	; 67
    87a4:	f9 01       	movw	r30, r18
    87a6:	80 83       	st	Z, r24
    87a8:	91 83       	std	Z+1, r25	; 0x01
    87aa:	a2 83       	std	Z+2, r26	; 0x02
    87ac:	b3 83       	std	Z+3, r27	; 0x03
    87ae:	8e 01       	movw	r16, r28
    87b0:	01 53       	subi	r16, 0x31	; 49
    87b2:	1c 4f       	sbci	r17, 0xFC	; 252
    87b4:	ce 01       	movw	r24, r28
    87b6:	85 5f       	subi	r24, 0xF5	; 245
    87b8:	9e 4f       	sbci	r25, 0xFE	; 254
    87ba:	26 e6       	ldi	r18, 0x66	; 102
    87bc:	36 e6       	ldi	r19, 0x66	; 102
    87be:	46 e6       	ldi	r20, 0x66	; 102
    87c0:	55 e4       	ldi	r21, 0x45	; 69
    87c2:	fc 01       	movw	r30, r24
    87c4:	60 81       	ld	r22, Z
    87c6:	71 81       	ldd	r23, Z+1	; 0x01
    87c8:	82 81       	ldd	r24, Z+2	; 0x02
    87ca:	93 81       	ldd	r25, Z+3	; 0x03
    87cc:	0e 94 65 50 	call	0xa0ca	; 0xa0ca <__mulsf3>
    87d0:	dc 01       	movw	r26, r24
    87d2:	cb 01       	movw	r24, r22
    87d4:	f8 01       	movw	r30, r16
    87d6:	80 83       	st	Z, r24
    87d8:	91 83       	std	Z+1, r25	; 0x01
    87da:	a2 83       	std	Z+2, r26	; 0x02
    87dc:	b3 83       	std	Z+3, r27	; 0x03
    87de:	ce 01       	movw	r24, r28
    87e0:	81 53       	subi	r24, 0x31	; 49
    87e2:	9c 4f       	sbci	r25, 0xFC	; 252
    87e4:	20 e0       	ldi	r18, 0x00	; 0
    87e6:	30 e0       	ldi	r19, 0x00	; 0
    87e8:	40 e8       	ldi	r20, 0x80	; 128
    87ea:	5f e3       	ldi	r21, 0x3F	; 63
    87ec:	fc 01       	movw	r30, r24
    87ee:	60 81       	ld	r22, Z
    87f0:	71 81       	ldd	r23, Z+1	; 0x01
    87f2:	82 81       	ldd	r24, Z+2	; 0x02
    87f4:	93 81       	ldd	r25, Z+3	; 0x03
    87f6:	0e 94 e4 4f 	call	0x9fc8	; 0x9fc8 <__cmpsf2>
    87fa:	88 23       	and	r24, r24
    87fc:	4c f4       	brge	.+18     	; 0x8810 <__stack+0x6611>
    87fe:	ce 01       	movw	r24, r28
    8800:	8d 52       	subi	r24, 0x2D	; 45
    8802:	9c 4f       	sbci	r25, 0xFC	; 252
    8804:	21 e0       	ldi	r18, 0x01	; 1
    8806:	30 e0       	ldi	r19, 0x00	; 0
    8808:	fc 01       	movw	r30, r24
    880a:	31 83       	std	Z+1, r19	; 0x01
    880c:	20 83       	st	Z, r18
    880e:	6d c0       	rjmp	.+218    	; 0x88ea <__stack+0x66eb>
    8810:	ce 01       	movw	r24, r28
    8812:	81 53       	subi	r24, 0x31	; 49
    8814:	9c 4f       	sbci	r25, 0xFC	; 252
    8816:	20 e0       	ldi	r18, 0x00	; 0
    8818:	3f ef       	ldi	r19, 0xFF	; 255
    881a:	4f e7       	ldi	r20, 0x7F	; 127
    881c:	57 e4       	ldi	r21, 0x47	; 71
    881e:	fc 01       	movw	r30, r24
    8820:	60 81       	ld	r22, Z
    8822:	71 81       	ldd	r23, Z+1	; 0x01
    8824:	82 81       	ldd	r24, Z+2	; 0x02
    8826:	93 81       	ldd	r25, Z+3	; 0x03
    8828:	0e 94 61 50 	call	0xa0c2	; 0xa0c2 <__gesf2>
    882c:	18 16       	cp	r1, r24
    882e:	0c f0       	brlt	.+2      	; 0x8832 <__stack+0x6633>
    8830:	4a c0       	rjmp	.+148    	; 0x88c6 <__stack+0x66c7>
    8832:	ce 01       	movw	r24, r28
    8834:	85 5f       	subi	r24, 0xF5	; 245
    8836:	9e 4f       	sbci	r25, 0xFE	; 254
    8838:	20 e0       	ldi	r18, 0x00	; 0
    883a:	30 e0       	ldi	r19, 0x00	; 0
    883c:	40 e2       	ldi	r20, 0x20	; 32
    883e:	51 e4       	ldi	r21, 0x41	; 65
    8840:	fc 01       	movw	r30, r24
    8842:	60 81       	ld	r22, Z
    8844:	71 81       	ldd	r23, Z+1	; 0x01
    8846:	82 81       	ldd	r24, Z+2	; 0x02
    8848:	93 81       	ldd	r25, Z+3	; 0x03
    884a:	0e 94 65 50 	call	0xa0ca	; 0xa0ca <__mulsf3>
    884e:	dc 01       	movw	r26, r24
    8850:	cb 01       	movw	r24, r22
    8852:	8e 01       	movw	r16, r28
    8854:	0d 52       	subi	r16, 0x2D	; 45
    8856:	1c 4f       	sbci	r17, 0xFC	; 252
    8858:	bc 01       	movw	r22, r24
    885a:	cd 01       	movw	r24, r26
    885c:	0e 94 e8 4f 	call	0x9fd0	; 0x9fd0 <__fixunssfsi>
    8860:	dc 01       	movw	r26, r24
    8862:	cb 01       	movw	r24, r22
    8864:	f8 01       	movw	r30, r16
    8866:	91 83       	std	Z+1, r25	; 0x01
    8868:	80 83       	st	Z, r24
    886a:	24 c0       	rjmp	.+72     	; 0x88b4 <__stack+0x66b5>
    886c:	ce 01       	movw	r24, r28
    886e:	8b 52       	subi	r24, 0x2B	; 43
    8870:	9c 4f       	sbci	r25, 0xFC	; 252
    8872:	20 e7       	ldi	r18, 0x70	; 112
    8874:	31 e0       	ldi	r19, 0x01	; 1
    8876:	fc 01       	movw	r30, r24
    8878:	31 83       	std	Z+1, r19	; 0x01
    887a:	20 83       	st	Z, r18
    887c:	ce 01       	movw	r24, r28
    887e:	8b 52       	subi	r24, 0x2B	; 43
    8880:	9c 4f       	sbci	r25, 0xFC	; 252
    8882:	fc 01       	movw	r30, r24
    8884:	80 81       	ld	r24, Z
    8886:	91 81       	ldd	r25, Z+1	; 0x01
    8888:	01 97       	sbiw	r24, 0x01	; 1
    888a:	f1 f7       	brne	.-4      	; 0x8888 <__stack+0x6689>
    888c:	9e 01       	movw	r18, r28
    888e:	2b 52       	subi	r18, 0x2B	; 43
    8890:	3c 4f       	sbci	r19, 0xFC	; 252
    8892:	f9 01       	movw	r30, r18
    8894:	91 83       	std	Z+1, r25	; 0x01
    8896:	80 83       	st	Z, r24
    8898:	ce 01       	movw	r24, r28
    889a:	8d 52       	subi	r24, 0x2D	; 45
    889c:	9c 4f       	sbci	r25, 0xFC	; 252
    889e:	9e 01       	movw	r18, r28
    88a0:	2d 52       	subi	r18, 0x2D	; 45
    88a2:	3c 4f       	sbci	r19, 0xFC	; 252
    88a4:	f9 01       	movw	r30, r18
    88a6:	20 81       	ld	r18, Z
    88a8:	31 81       	ldd	r19, Z+1	; 0x01
    88aa:	21 50       	subi	r18, 0x01	; 1
    88ac:	31 09       	sbc	r19, r1
    88ae:	fc 01       	movw	r30, r24
    88b0:	31 83       	std	Z+1, r19	; 0x01
    88b2:	20 83       	st	Z, r18
    88b4:	ce 01       	movw	r24, r28
    88b6:	8d 52       	subi	r24, 0x2D	; 45
    88b8:	9c 4f       	sbci	r25, 0xFC	; 252
    88ba:	fc 01       	movw	r30, r24
    88bc:	80 81       	ld	r24, Z
    88be:	91 81       	ldd	r25, Z+1	; 0x01
    88c0:	89 2b       	or	r24, r25
    88c2:	a1 f6       	brne	.-88     	; 0x886c <__stack+0x666d>
    88c4:	2c c0       	rjmp	.+88     	; 0x891e <__stack+0x671f>
    88c6:	8e 01       	movw	r16, r28
    88c8:	0d 52       	subi	r16, 0x2D	; 45
    88ca:	1c 4f       	sbci	r17, 0xFC	; 252
    88cc:	ce 01       	movw	r24, r28
    88ce:	81 53       	subi	r24, 0x31	; 49
    88d0:	9c 4f       	sbci	r25, 0xFC	; 252
    88d2:	fc 01       	movw	r30, r24
    88d4:	60 81       	ld	r22, Z
    88d6:	71 81       	ldd	r23, Z+1	; 0x01
    88d8:	82 81       	ldd	r24, Z+2	; 0x02
    88da:	93 81       	ldd	r25, Z+3	; 0x03
    88dc:	0e 94 e8 4f 	call	0x9fd0	; 0x9fd0 <__fixunssfsi>
    88e0:	dc 01       	movw	r26, r24
    88e2:	cb 01       	movw	r24, r22
    88e4:	f8 01       	movw	r30, r16
    88e6:	91 83       	std	Z+1, r25	; 0x01
    88e8:	80 83       	st	Z, r24
    88ea:	ce 01       	movw	r24, r28
    88ec:	89 52       	subi	r24, 0x29	; 41
    88ee:	9c 4f       	sbci	r25, 0xFC	; 252
    88f0:	9e 01       	movw	r18, r28
    88f2:	2d 52       	subi	r18, 0x2D	; 45
    88f4:	3c 4f       	sbci	r19, 0xFC	; 252
    88f6:	f9 01       	movw	r30, r18
    88f8:	20 81       	ld	r18, Z
    88fa:	31 81       	ldd	r19, Z+1	; 0x01
    88fc:	fc 01       	movw	r30, r24
    88fe:	31 83       	std	Z+1, r19	; 0x01
    8900:	20 83       	st	Z, r18
    8902:	ce 01       	movw	r24, r28
    8904:	89 52       	subi	r24, 0x29	; 41
    8906:	9c 4f       	sbci	r25, 0xFC	; 252
    8908:	fc 01       	movw	r30, r24
    890a:	80 81       	ld	r24, Z
    890c:	91 81       	ldd	r25, Z+1	; 0x01
    890e:	01 97       	sbiw	r24, 0x01	; 1
    8910:	f1 f7       	brne	.-4      	; 0x890e <__stack+0x670f>
    8912:	9e 01       	movw	r18, r28
    8914:	29 52       	subi	r18, 0x29	; 41
    8916:	3c 4f       	sbci	r19, 0xFC	; 252
    8918:	f9 01       	movw	r30, r18
    891a:	91 83       	std	Z+1, r25	; 0x01
    891c:	80 83       	st	Z, r24
    891e:	0e 94 8c 0e 	call	0x1d18	; 0x1d18 <forward>
    8922:	9e 01       	movw	r18, r28
    8924:	21 5f       	subi	r18, 0xF1	; 241
    8926:	3e 4f       	sbci	r19, 0xFE	; 254
    8928:	80 e0       	ldi	r24, 0x00	; 0
    892a:	90 e0       	ldi	r25, 0x00	; 0
    892c:	a6 e9       	ldi	r26, 0x96	; 150
    892e:	b3 e4       	ldi	r27, 0x43	; 67
    8930:	f9 01       	movw	r30, r18
    8932:	80 83       	st	Z, r24
    8934:	91 83       	std	Z+1, r25	; 0x01
    8936:	a2 83       	std	Z+2, r26	; 0x02
    8938:	b3 83       	std	Z+3, r27	; 0x03
    893a:	8e 01       	movw	r16, r28
    893c:	0b 53       	subi	r16, 0x3B	; 59
    893e:	1c 4f       	sbci	r17, 0xFC	; 252
    8940:	ce 01       	movw	r24, r28
    8942:	81 5f       	subi	r24, 0xF1	; 241
    8944:	9e 4f       	sbci	r25, 0xFE	; 254
    8946:	26 e6       	ldi	r18, 0x66	; 102
    8948:	36 e6       	ldi	r19, 0x66	; 102
    894a:	46 e6       	ldi	r20, 0x66	; 102
    894c:	55 e4       	ldi	r21, 0x45	; 69
    894e:	fc 01       	movw	r30, r24
    8950:	60 81       	ld	r22, Z
    8952:	71 81       	ldd	r23, Z+1	; 0x01
    8954:	82 81       	ldd	r24, Z+2	; 0x02
    8956:	93 81       	ldd	r25, Z+3	; 0x03
    8958:	0e 94 65 50 	call	0xa0ca	; 0xa0ca <__mulsf3>
    895c:	dc 01       	movw	r26, r24
    895e:	cb 01       	movw	r24, r22
    8960:	f8 01       	movw	r30, r16
    8962:	80 83       	st	Z, r24
    8964:	91 83       	std	Z+1, r25	; 0x01
    8966:	a2 83       	std	Z+2, r26	; 0x02
    8968:	b3 83       	std	Z+3, r27	; 0x03
    896a:	ce 01       	movw	r24, r28
    896c:	8b 53       	subi	r24, 0x3B	; 59
    896e:	9c 4f       	sbci	r25, 0xFC	; 252
    8970:	20 e0       	ldi	r18, 0x00	; 0
    8972:	30 e0       	ldi	r19, 0x00	; 0
    8974:	40 e8       	ldi	r20, 0x80	; 128
    8976:	5f e3       	ldi	r21, 0x3F	; 63
    8978:	fc 01       	movw	r30, r24
    897a:	60 81       	ld	r22, Z
    897c:	71 81       	ldd	r23, Z+1	; 0x01
    897e:	82 81       	ldd	r24, Z+2	; 0x02
    8980:	93 81       	ldd	r25, Z+3	; 0x03
    8982:	0e 94 e4 4f 	call	0x9fc8	; 0x9fc8 <__cmpsf2>
    8986:	88 23       	and	r24, r24
    8988:	4c f4       	brge	.+18     	; 0x899c <__stack+0x679d>
    898a:	ce 01       	movw	r24, r28
    898c:	87 53       	subi	r24, 0x37	; 55
    898e:	9c 4f       	sbci	r25, 0xFC	; 252
    8990:	21 e0       	ldi	r18, 0x01	; 1
    8992:	30 e0       	ldi	r19, 0x00	; 0
    8994:	fc 01       	movw	r30, r24
    8996:	31 83       	std	Z+1, r19	; 0x01
    8998:	20 83       	st	Z, r18
    899a:	6d c0       	rjmp	.+218    	; 0x8a76 <__stack+0x6877>
    899c:	ce 01       	movw	r24, r28
    899e:	8b 53       	subi	r24, 0x3B	; 59
    89a0:	9c 4f       	sbci	r25, 0xFC	; 252
    89a2:	20 e0       	ldi	r18, 0x00	; 0
    89a4:	3f ef       	ldi	r19, 0xFF	; 255
    89a6:	4f e7       	ldi	r20, 0x7F	; 127
    89a8:	57 e4       	ldi	r21, 0x47	; 71
    89aa:	fc 01       	movw	r30, r24
    89ac:	60 81       	ld	r22, Z
    89ae:	71 81       	ldd	r23, Z+1	; 0x01
    89b0:	82 81       	ldd	r24, Z+2	; 0x02
    89b2:	93 81       	ldd	r25, Z+3	; 0x03
    89b4:	0e 94 61 50 	call	0xa0c2	; 0xa0c2 <__gesf2>
    89b8:	18 16       	cp	r1, r24
    89ba:	0c f0       	brlt	.+2      	; 0x89be <__stack+0x67bf>
    89bc:	4a c0       	rjmp	.+148    	; 0x8a52 <__stack+0x6853>
    89be:	ce 01       	movw	r24, r28
    89c0:	81 5f       	subi	r24, 0xF1	; 241
    89c2:	9e 4f       	sbci	r25, 0xFE	; 254
    89c4:	20 e0       	ldi	r18, 0x00	; 0
    89c6:	30 e0       	ldi	r19, 0x00	; 0
    89c8:	40 e2       	ldi	r20, 0x20	; 32
    89ca:	51 e4       	ldi	r21, 0x41	; 65
    89cc:	fc 01       	movw	r30, r24
    89ce:	60 81       	ld	r22, Z
    89d0:	71 81       	ldd	r23, Z+1	; 0x01
    89d2:	82 81       	ldd	r24, Z+2	; 0x02
    89d4:	93 81       	ldd	r25, Z+3	; 0x03
    89d6:	0e 94 65 50 	call	0xa0ca	; 0xa0ca <__mulsf3>
    89da:	dc 01       	movw	r26, r24
    89dc:	cb 01       	movw	r24, r22
    89de:	8e 01       	movw	r16, r28
    89e0:	07 53       	subi	r16, 0x37	; 55
    89e2:	1c 4f       	sbci	r17, 0xFC	; 252
    89e4:	bc 01       	movw	r22, r24
    89e6:	cd 01       	movw	r24, r26
    89e8:	0e 94 e8 4f 	call	0x9fd0	; 0x9fd0 <__fixunssfsi>
    89ec:	dc 01       	movw	r26, r24
    89ee:	cb 01       	movw	r24, r22
    89f0:	f8 01       	movw	r30, r16
    89f2:	91 83       	std	Z+1, r25	; 0x01
    89f4:	80 83       	st	Z, r24
    89f6:	24 c0       	rjmp	.+72     	; 0x8a40 <__stack+0x6841>
    89f8:	ce 01       	movw	r24, r28
    89fa:	85 53       	subi	r24, 0x35	; 53
    89fc:	9c 4f       	sbci	r25, 0xFC	; 252
    89fe:	20 e7       	ldi	r18, 0x70	; 112
    8a00:	31 e0       	ldi	r19, 0x01	; 1
    8a02:	fc 01       	movw	r30, r24
    8a04:	31 83       	std	Z+1, r19	; 0x01
    8a06:	20 83       	st	Z, r18
    8a08:	ce 01       	movw	r24, r28
    8a0a:	85 53       	subi	r24, 0x35	; 53
    8a0c:	9c 4f       	sbci	r25, 0xFC	; 252
    8a0e:	fc 01       	movw	r30, r24
    8a10:	80 81       	ld	r24, Z
    8a12:	91 81       	ldd	r25, Z+1	; 0x01
    8a14:	01 97       	sbiw	r24, 0x01	; 1
    8a16:	f1 f7       	brne	.-4      	; 0x8a14 <__stack+0x6815>
    8a18:	9e 01       	movw	r18, r28
    8a1a:	25 53       	subi	r18, 0x35	; 53
    8a1c:	3c 4f       	sbci	r19, 0xFC	; 252
    8a1e:	f9 01       	movw	r30, r18
    8a20:	91 83       	std	Z+1, r25	; 0x01
    8a22:	80 83       	st	Z, r24
    8a24:	ce 01       	movw	r24, r28
    8a26:	87 53       	subi	r24, 0x37	; 55
    8a28:	9c 4f       	sbci	r25, 0xFC	; 252
    8a2a:	9e 01       	movw	r18, r28
    8a2c:	27 53       	subi	r18, 0x37	; 55
    8a2e:	3c 4f       	sbci	r19, 0xFC	; 252
    8a30:	f9 01       	movw	r30, r18
    8a32:	20 81       	ld	r18, Z
    8a34:	31 81       	ldd	r19, Z+1	; 0x01
    8a36:	21 50       	subi	r18, 0x01	; 1
    8a38:	31 09       	sbc	r19, r1
    8a3a:	fc 01       	movw	r30, r24
    8a3c:	31 83       	std	Z+1, r19	; 0x01
    8a3e:	20 83       	st	Z, r18
    8a40:	ce 01       	movw	r24, r28
    8a42:	87 53       	subi	r24, 0x37	; 55
    8a44:	9c 4f       	sbci	r25, 0xFC	; 252
    8a46:	fc 01       	movw	r30, r24
    8a48:	80 81       	ld	r24, Z
    8a4a:	91 81       	ldd	r25, Z+1	; 0x01
    8a4c:	89 2b       	or	r24, r25
    8a4e:	a1 f6       	brne	.-88     	; 0x89f8 <__stack+0x67f9>
    8a50:	2c c0       	rjmp	.+88     	; 0x8aaa <__stack+0x68ab>
    8a52:	8e 01       	movw	r16, r28
    8a54:	07 53       	subi	r16, 0x37	; 55
    8a56:	1c 4f       	sbci	r17, 0xFC	; 252
    8a58:	ce 01       	movw	r24, r28
    8a5a:	8b 53       	subi	r24, 0x3B	; 59
    8a5c:	9c 4f       	sbci	r25, 0xFC	; 252
    8a5e:	fc 01       	movw	r30, r24
    8a60:	60 81       	ld	r22, Z
    8a62:	71 81       	ldd	r23, Z+1	; 0x01
    8a64:	82 81       	ldd	r24, Z+2	; 0x02
    8a66:	93 81       	ldd	r25, Z+3	; 0x03
    8a68:	0e 94 e8 4f 	call	0x9fd0	; 0x9fd0 <__fixunssfsi>
    8a6c:	dc 01       	movw	r26, r24
    8a6e:	cb 01       	movw	r24, r22
    8a70:	f8 01       	movw	r30, r16
    8a72:	91 83       	std	Z+1, r25	; 0x01
    8a74:	80 83       	st	Z, r24
    8a76:	ce 01       	movw	r24, r28
    8a78:	83 53       	subi	r24, 0x33	; 51
    8a7a:	9c 4f       	sbci	r25, 0xFC	; 252
    8a7c:	9e 01       	movw	r18, r28
    8a7e:	27 53       	subi	r18, 0x37	; 55
    8a80:	3c 4f       	sbci	r19, 0xFC	; 252
    8a82:	f9 01       	movw	r30, r18
    8a84:	20 81       	ld	r18, Z
    8a86:	31 81       	ldd	r19, Z+1	; 0x01
    8a88:	fc 01       	movw	r30, r24
    8a8a:	31 83       	std	Z+1, r19	; 0x01
    8a8c:	20 83       	st	Z, r18
    8a8e:	ce 01       	movw	r24, r28
    8a90:	83 53       	subi	r24, 0x33	; 51
    8a92:	9c 4f       	sbci	r25, 0xFC	; 252
    8a94:	fc 01       	movw	r30, r24
    8a96:	80 81       	ld	r24, Z
    8a98:	91 81       	ldd	r25, Z+1	; 0x01
    8a9a:	01 97       	sbiw	r24, 0x01	; 1
    8a9c:	f1 f7       	brne	.-4      	; 0x8a9a <__stack+0x689b>
    8a9e:	9e 01       	movw	r18, r28
    8aa0:	23 53       	subi	r18, 0x33	; 51
    8aa2:	3c 4f       	sbci	r19, 0xFC	; 252
    8aa4:	f9 01       	movw	r30, r18
    8aa6:	91 83       	std	Z+1, r25	; 0x01
    8aa8:	80 83       	st	Z, r24
    8aaa:	0e 94 0c 0d 	call	0x1a18	; 0x1a18 <buzzer_on>
    8aae:	0e 94 96 0e 	call	0x1d2c	; 0x1d2c <left>
    8ab2:	9e 01       	movw	r18, r28
    8ab4:	2d 51       	subi	r18, 0x1D	; 29
    8ab6:	3f 4f       	sbci	r19, 0xFF	; 255
    8ab8:	80 e0       	ldi	r24, 0x00	; 0
    8aba:	90 e8       	ldi	r25, 0x80	; 128
    8abc:	ab eb       	ldi	r26, 0xBB	; 187
    8abe:	b4 e4       	ldi	r27, 0x44	; 68
    8ac0:	f9 01       	movw	r30, r18
    8ac2:	80 83       	st	Z, r24
    8ac4:	91 83       	std	Z+1, r25	; 0x01
    8ac6:	a2 83       	std	Z+2, r26	; 0x02
    8ac8:	b3 83       	std	Z+3, r27	; 0x03
    8aca:	8e 01       	movw	r16, r28
    8acc:	05 54       	subi	r16, 0x45	; 69
    8ace:	1c 4f       	sbci	r17, 0xFC	; 252
    8ad0:	ce 01       	movw	r24, r28
    8ad2:	8d 51       	subi	r24, 0x1D	; 29
    8ad4:	9f 4f       	sbci	r25, 0xFF	; 255
    8ad6:	26 e6       	ldi	r18, 0x66	; 102
    8ad8:	36 e6       	ldi	r19, 0x66	; 102
    8ada:	46 e6       	ldi	r20, 0x66	; 102
    8adc:	55 e4       	ldi	r21, 0x45	; 69
    8ade:	fc 01       	movw	r30, r24
    8ae0:	60 81       	ld	r22, Z
    8ae2:	71 81       	ldd	r23, Z+1	; 0x01
    8ae4:	82 81       	ldd	r24, Z+2	; 0x02
    8ae6:	93 81       	ldd	r25, Z+3	; 0x03
    8ae8:	0e 94 65 50 	call	0xa0ca	; 0xa0ca <__mulsf3>
    8aec:	dc 01       	movw	r26, r24
    8aee:	cb 01       	movw	r24, r22
    8af0:	f8 01       	movw	r30, r16
    8af2:	80 83       	st	Z, r24
    8af4:	91 83       	std	Z+1, r25	; 0x01
    8af6:	a2 83       	std	Z+2, r26	; 0x02
    8af8:	b3 83       	std	Z+3, r27	; 0x03
    8afa:	ce 01       	movw	r24, r28
    8afc:	85 54       	subi	r24, 0x45	; 69
    8afe:	9c 4f       	sbci	r25, 0xFC	; 252
    8b00:	20 e0       	ldi	r18, 0x00	; 0
    8b02:	30 e0       	ldi	r19, 0x00	; 0
    8b04:	40 e8       	ldi	r20, 0x80	; 128
    8b06:	5f e3       	ldi	r21, 0x3F	; 63
    8b08:	fc 01       	movw	r30, r24
    8b0a:	60 81       	ld	r22, Z
    8b0c:	71 81       	ldd	r23, Z+1	; 0x01
    8b0e:	82 81       	ldd	r24, Z+2	; 0x02
    8b10:	93 81       	ldd	r25, Z+3	; 0x03
    8b12:	0e 94 e4 4f 	call	0x9fc8	; 0x9fc8 <__cmpsf2>
    8b16:	88 23       	and	r24, r24
    8b18:	4c f4       	brge	.+18     	; 0x8b2c <__stack+0x692d>
    8b1a:	ce 01       	movw	r24, r28
    8b1c:	81 54       	subi	r24, 0x41	; 65
    8b1e:	9c 4f       	sbci	r25, 0xFC	; 252
    8b20:	21 e0       	ldi	r18, 0x01	; 1
    8b22:	30 e0       	ldi	r19, 0x00	; 0
    8b24:	fc 01       	movw	r30, r24
    8b26:	31 83       	std	Z+1, r19	; 0x01
    8b28:	20 83       	st	Z, r18
    8b2a:	6d c0       	rjmp	.+218    	; 0x8c06 <__stack+0x6a07>
    8b2c:	ce 01       	movw	r24, r28
    8b2e:	85 54       	subi	r24, 0x45	; 69
    8b30:	9c 4f       	sbci	r25, 0xFC	; 252
    8b32:	20 e0       	ldi	r18, 0x00	; 0
    8b34:	3f ef       	ldi	r19, 0xFF	; 255
    8b36:	4f e7       	ldi	r20, 0x7F	; 127
    8b38:	57 e4       	ldi	r21, 0x47	; 71
    8b3a:	fc 01       	movw	r30, r24
    8b3c:	60 81       	ld	r22, Z
    8b3e:	71 81       	ldd	r23, Z+1	; 0x01
    8b40:	82 81       	ldd	r24, Z+2	; 0x02
    8b42:	93 81       	ldd	r25, Z+3	; 0x03
    8b44:	0e 94 61 50 	call	0xa0c2	; 0xa0c2 <__gesf2>
    8b48:	18 16       	cp	r1, r24
    8b4a:	0c f0       	brlt	.+2      	; 0x8b4e <__stack+0x694f>
    8b4c:	4a c0       	rjmp	.+148    	; 0x8be2 <__stack+0x69e3>
    8b4e:	ce 01       	movw	r24, r28
    8b50:	8d 51       	subi	r24, 0x1D	; 29
    8b52:	9f 4f       	sbci	r25, 0xFF	; 255
    8b54:	20 e0       	ldi	r18, 0x00	; 0
    8b56:	30 e0       	ldi	r19, 0x00	; 0
    8b58:	40 e2       	ldi	r20, 0x20	; 32
    8b5a:	51 e4       	ldi	r21, 0x41	; 65
    8b5c:	fc 01       	movw	r30, r24
    8b5e:	60 81       	ld	r22, Z
    8b60:	71 81       	ldd	r23, Z+1	; 0x01
    8b62:	82 81       	ldd	r24, Z+2	; 0x02
    8b64:	93 81       	ldd	r25, Z+3	; 0x03
    8b66:	0e 94 65 50 	call	0xa0ca	; 0xa0ca <__mulsf3>
    8b6a:	dc 01       	movw	r26, r24
    8b6c:	cb 01       	movw	r24, r22
    8b6e:	8e 01       	movw	r16, r28
    8b70:	01 54       	subi	r16, 0x41	; 65
    8b72:	1c 4f       	sbci	r17, 0xFC	; 252
    8b74:	bc 01       	movw	r22, r24
    8b76:	cd 01       	movw	r24, r26
    8b78:	0e 94 e8 4f 	call	0x9fd0	; 0x9fd0 <__fixunssfsi>
    8b7c:	dc 01       	movw	r26, r24
    8b7e:	cb 01       	movw	r24, r22
    8b80:	f8 01       	movw	r30, r16
    8b82:	91 83       	std	Z+1, r25	; 0x01
    8b84:	80 83       	st	Z, r24
    8b86:	24 c0       	rjmp	.+72     	; 0x8bd0 <__stack+0x69d1>
    8b88:	ce 01       	movw	r24, r28
    8b8a:	8f 53       	subi	r24, 0x3F	; 63
    8b8c:	9c 4f       	sbci	r25, 0xFC	; 252
    8b8e:	20 e7       	ldi	r18, 0x70	; 112
    8b90:	31 e0       	ldi	r19, 0x01	; 1
    8b92:	fc 01       	movw	r30, r24
    8b94:	31 83       	std	Z+1, r19	; 0x01
    8b96:	20 83       	st	Z, r18
    8b98:	ce 01       	movw	r24, r28
    8b9a:	8f 53       	subi	r24, 0x3F	; 63
    8b9c:	9c 4f       	sbci	r25, 0xFC	; 252
    8b9e:	fc 01       	movw	r30, r24
    8ba0:	80 81       	ld	r24, Z
    8ba2:	91 81       	ldd	r25, Z+1	; 0x01
    8ba4:	01 97       	sbiw	r24, 0x01	; 1
    8ba6:	f1 f7       	brne	.-4      	; 0x8ba4 <__stack+0x69a5>
    8ba8:	9e 01       	movw	r18, r28
    8baa:	2f 53       	subi	r18, 0x3F	; 63
    8bac:	3c 4f       	sbci	r19, 0xFC	; 252
    8bae:	f9 01       	movw	r30, r18
    8bb0:	91 83       	std	Z+1, r25	; 0x01
    8bb2:	80 83       	st	Z, r24
    8bb4:	ce 01       	movw	r24, r28
    8bb6:	81 54       	subi	r24, 0x41	; 65
    8bb8:	9c 4f       	sbci	r25, 0xFC	; 252
    8bba:	9e 01       	movw	r18, r28
    8bbc:	21 54       	subi	r18, 0x41	; 65
    8bbe:	3c 4f       	sbci	r19, 0xFC	; 252
    8bc0:	f9 01       	movw	r30, r18
    8bc2:	20 81       	ld	r18, Z
    8bc4:	31 81       	ldd	r19, Z+1	; 0x01
    8bc6:	21 50       	subi	r18, 0x01	; 1
    8bc8:	31 09       	sbc	r19, r1
    8bca:	fc 01       	movw	r30, r24
    8bcc:	31 83       	std	Z+1, r19	; 0x01
    8bce:	20 83       	st	Z, r18
    8bd0:	ce 01       	movw	r24, r28
    8bd2:	81 54       	subi	r24, 0x41	; 65
    8bd4:	9c 4f       	sbci	r25, 0xFC	; 252
    8bd6:	fc 01       	movw	r30, r24
    8bd8:	80 81       	ld	r24, Z
    8bda:	91 81       	ldd	r25, Z+1	; 0x01
    8bdc:	89 2b       	or	r24, r25
    8bde:	a1 f6       	brne	.-88     	; 0x8b88 <__stack+0x6989>
    8be0:	2c c0       	rjmp	.+88     	; 0x8c3a <__stack+0x6a3b>
    8be2:	8e 01       	movw	r16, r28
    8be4:	01 54       	subi	r16, 0x41	; 65
    8be6:	1c 4f       	sbci	r17, 0xFC	; 252
    8be8:	ce 01       	movw	r24, r28
    8bea:	85 54       	subi	r24, 0x45	; 69
    8bec:	9c 4f       	sbci	r25, 0xFC	; 252
    8bee:	fc 01       	movw	r30, r24
    8bf0:	60 81       	ld	r22, Z
    8bf2:	71 81       	ldd	r23, Z+1	; 0x01
    8bf4:	82 81       	ldd	r24, Z+2	; 0x02
    8bf6:	93 81       	ldd	r25, Z+3	; 0x03
    8bf8:	0e 94 e8 4f 	call	0x9fd0	; 0x9fd0 <__fixunssfsi>
    8bfc:	dc 01       	movw	r26, r24
    8bfe:	cb 01       	movw	r24, r22
    8c00:	f8 01       	movw	r30, r16
    8c02:	91 83       	std	Z+1, r25	; 0x01
    8c04:	80 83       	st	Z, r24
    8c06:	ce 01       	movw	r24, r28
    8c08:	8d 53       	subi	r24, 0x3D	; 61
    8c0a:	9c 4f       	sbci	r25, 0xFC	; 252
    8c0c:	9e 01       	movw	r18, r28
    8c0e:	21 54       	subi	r18, 0x41	; 65
    8c10:	3c 4f       	sbci	r19, 0xFC	; 252
    8c12:	f9 01       	movw	r30, r18
    8c14:	20 81       	ld	r18, Z
    8c16:	31 81       	ldd	r19, Z+1	; 0x01
    8c18:	fc 01       	movw	r30, r24
    8c1a:	31 83       	std	Z+1, r19	; 0x01
    8c1c:	20 83       	st	Z, r18
    8c1e:	ce 01       	movw	r24, r28
    8c20:	8d 53       	subi	r24, 0x3D	; 61
    8c22:	9c 4f       	sbci	r25, 0xFC	; 252
    8c24:	fc 01       	movw	r30, r24
    8c26:	80 81       	ld	r24, Z
    8c28:	91 81       	ldd	r25, Z+1	; 0x01
    8c2a:	01 97       	sbiw	r24, 0x01	; 1
    8c2c:	f1 f7       	brne	.-4      	; 0x8c2a <__stack+0x6a2b>
    8c2e:	9e 01       	movw	r18, r28
    8c30:	2d 53       	subi	r18, 0x3D	; 61
    8c32:	3c 4f       	sbci	r19, 0xFC	; 252
    8c34:	f9 01       	movw	r30, r18
    8c36:	91 83       	std	Z+1, r25	; 0x01
    8c38:	80 83       	st	Z, r24
    8c3a:	0e 94 aa 0e 	call	0x1d54	; 0x1d54 <stop>
    8c3e:	1e 82       	std	Y+6, r1	; 0x06
    8c40:	1d 82       	std	Y+5, r1	; 0x05
    8c42:	0e 94 b4 0e 	call	0x1d68	; 0x1d68 <init_devices>
    8c46:	0e 94 60 0d 	call	0x1ac0	; 0x1ac0 <motion_pin_config>
    8c4a:	0e 94 f9 0e 	call	0x1df2	; 0x1df2 <bar_graph_led_pins_config>
    8c4e:	0e 94 f2 0c 	call	0x19e4	; 0x19e4 <buzzer_pin_config>
    8c52:	0e 94 2e 0d 	call	0x1a5c	; 0x1a5c <lcd_port_config>
    8c56:	0e 94 3d 06 	call	0xc7a	; 0xc7a <lcd_init>
    8c5a:	0e 94 bd 09 	call	0x137a	; 0x137a <lcd_clear>
    8c5e:	0e 94 b3 09 	call	0x1366	; 0x1366 <lcd_home>
    8c62:	0e 94 8c 0e 	call	0x1d18	; 0x1d18 <forward>
    8c66:	c1 c1       	rjmp	.+898    	; 0x8fea <__stack+0x6deb>
    8c68:	0e 94 0c 0d 	call	0x1a18	; 0x1a18 <buzzer_on>
    8c6c:	80 e0       	ldi	r24, 0x00	; 0
    8c6e:	0e 94 2a 0f 	call	0x1e54	; 0x1e54 <turn_on_bar_graph_led>
    8c72:	82 e0       	ldi	r24, 0x02	; 2
    8c74:	0e 94 2a 0f 	call	0x1e54	; 0x1e54 <turn_on_bar_graph_led>
    8c78:	84 e0       	ldi	r24, 0x04	; 4
    8c7a:	0e 94 2a 0f 	call	0x1e54	; 0x1e54 <turn_on_bar_graph_led>
    8c7e:	86 e0       	ldi	r24, 0x06	; 6
    8c80:	0e 94 2a 0f 	call	0x1e54	; 0x1e54 <turn_on_bar_graph_led>
    8c84:	9e 01       	movw	r18, r28
    8c86:	29 5e       	subi	r18, 0xE9	; 233
    8c88:	3e 4f       	sbci	r19, 0xFE	; 254
    8c8a:	80 e0       	ldi	r24, 0x00	; 0
    8c8c:	90 e0       	ldi	r25, 0x00	; 0
    8c8e:	a6 e1       	ldi	r26, 0x16	; 22
    8c90:	b3 e4       	ldi	r27, 0x43	; 67
    8c92:	f9 01       	movw	r30, r18
    8c94:	80 83       	st	Z, r24
    8c96:	91 83       	std	Z+1, r25	; 0x01
    8c98:	a2 83       	std	Z+2, r26	; 0x02
    8c9a:	b3 83       	std	Z+3, r27	; 0x03
    8c9c:	8e 01       	movw	r16, r28
    8c9e:	0d 51       	subi	r16, 0x1D	; 29
    8ca0:	1c 4f       	sbci	r17, 0xFC	; 252
    8ca2:	ce 01       	movw	r24, r28
    8ca4:	89 5e       	subi	r24, 0xE9	; 233
    8ca6:	9e 4f       	sbci	r25, 0xFE	; 254
    8ca8:	26 e6       	ldi	r18, 0x66	; 102
    8caa:	36 e6       	ldi	r19, 0x66	; 102
    8cac:	46 e6       	ldi	r20, 0x66	; 102
    8cae:	55 e4       	ldi	r21, 0x45	; 69
    8cb0:	fc 01       	movw	r30, r24
    8cb2:	60 81       	ld	r22, Z
    8cb4:	71 81       	ldd	r23, Z+1	; 0x01
    8cb6:	82 81       	ldd	r24, Z+2	; 0x02
    8cb8:	93 81       	ldd	r25, Z+3	; 0x03
    8cba:	0e 94 65 50 	call	0xa0ca	; 0xa0ca <__mulsf3>
    8cbe:	dc 01       	movw	r26, r24
    8cc0:	cb 01       	movw	r24, r22
    8cc2:	f8 01       	movw	r30, r16
    8cc4:	80 83       	st	Z, r24
    8cc6:	91 83       	std	Z+1, r25	; 0x01
    8cc8:	a2 83       	std	Z+2, r26	; 0x02
    8cca:	b3 83       	std	Z+3, r27	; 0x03
    8ccc:	ce 01       	movw	r24, r28
    8cce:	8d 51       	subi	r24, 0x1D	; 29
    8cd0:	9c 4f       	sbci	r25, 0xFC	; 252
    8cd2:	20 e0       	ldi	r18, 0x00	; 0
    8cd4:	30 e0       	ldi	r19, 0x00	; 0
    8cd6:	40 e8       	ldi	r20, 0x80	; 128
    8cd8:	5f e3       	ldi	r21, 0x3F	; 63
    8cda:	fc 01       	movw	r30, r24
    8cdc:	60 81       	ld	r22, Z
    8cde:	71 81       	ldd	r23, Z+1	; 0x01
    8ce0:	82 81       	ldd	r24, Z+2	; 0x02
    8ce2:	93 81       	ldd	r25, Z+3	; 0x03
    8ce4:	0e 94 e4 4f 	call	0x9fc8	; 0x9fc8 <__cmpsf2>
    8ce8:	88 23       	and	r24, r24
    8cea:	4c f4       	brge	.+18     	; 0x8cfe <__stack+0x6aff>
    8cec:	ce 01       	movw	r24, r28
    8cee:	89 51       	subi	r24, 0x19	; 25
    8cf0:	9c 4f       	sbci	r25, 0xFC	; 252
    8cf2:	21 e0       	ldi	r18, 0x01	; 1
    8cf4:	30 e0       	ldi	r19, 0x00	; 0
    8cf6:	fc 01       	movw	r30, r24
    8cf8:	31 83       	std	Z+1, r19	; 0x01
    8cfa:	20 83       	st	Z, r18
    8cfc:	6d c0       	rjmp	.+218    	; 0x8dd8 <__stack+0x6bd9>
    8cfe:	ce 01       	movw	r24, r28
    8d00:	8d 51       	subi	r24, 0x1D	; 29
    8d02:	9c 4f       	sbci	r25, 0xFC	; 252
    8d04:	20 e0       	ldi	r18, 0x00	; 0
    8d06:	3f ef       	ldi	r19, 0xFF	; 255
    8d08:	4f e7       	ldi	r20, 0x7F	; 127
    8d0a:	57 e4       	ldi	r21, 0x47	; 71
    8d0c:	fc 01       	movw	r30, r24
    8d0e:	60 81       	ld	r22, Z
    8d10:	71 81       	ldd	r23, Z+1	; 0x01
    8d12:	82 81       	ldd	r24, Z+2	; 0x02
    8d14:	93 81       	ldd	r25, Z+3	; 0x03
    8d16:	0e 94 61 50 	call	0xa0c2	; 0xa0c2 <__gesf2>
    8d1a:	18 16       	cp	r1, r24
    8d1c:	0c f0       	brlt	.+2      	; 0x8d20 <__stack+0x6b21>
    8d1e:	4a c0       	rjmp	.+148    	; 0x8db4 <__stack+0x6bb5>
    8d20:	ce 01       	movw	r24, r28
    8d22:	89 5e       	subi	r24, 0xE9	; 233
    8d24:	9e 4f       	sbci	r25, 0xFE	; 254
    8d26:	20 e0       	ldi	r18, 0x00	; 0
    8d28:	30 e0       	ldi	r19, 0x00	; 0
    8d2a:	40 e2       	ldi	r20, 0x20	; 32
    8d2c:	51 e4       	ldi	r21, 0x41	; 65
    8d2e:	fc 01       	movw	r30, r24
    8d30:	60 81       	ld	r22, Z
    8d32:	71 81       	ldd	r23, Z+1	; 0x01
    8d34:	82 81       	ldd	r24, Z+2	; 0x02
    8d36:	93 81       	ldd	r25, Z+3	; 0x03
    8d38:	0e 94 65 50 	call	0xa0ca	; 0xa0ca <__mulsf3>
    8d3c:	dc 01       	movw	r26, r24
    8d3e:	cb 01       	movw	r24, r22
    8d40:	8e 01       	movw	r16, r28
    8d42:	09 51       	subi	r16, 0x19	; 25
    8d44:	1c 4f       	sbci	r17, 0xFC	; 252
    8d46:	bc 01       	movw	r22, r24
    8d48:	cd 01       	movw	r24, r26
    8d4a:	0e 94 e8 4f 	call	0x9fd0	; 0x9fd0 <__fixunssfsi>
    8d4e:	dc 01       	movw	r26, r24
    8d50:	cb 01       	movw	r24, r22
    8d52:	f8 01       	movw	r30, r16
    8d54:	91 83       	std	Z+1, r25	; 0x01
    8d56:	80 83       	st	Z, r24
    8d58:	24 c0       	rjmp	.+72     	; 0x8da2 <__stack+0x6ba3>
    8d5a:	ce 01       	movw	r24, r28
    8d5c:	87 51       	subi	r24, 0x17	; 23
    8d5e:	9c 4f       	sbci	r25, 0xFC	; 252
    8d60:	20 e7       	ldi	r18, 0x70	; 112
    8d62:	31 e0       	ldi	r19, 0x01	; 1
    8d64:	fc 01       	movw	r30, r24
    8d66:	31 83       	std	Z+1, r19	; 0x01
    8d68:	20 83       	st	Z, r18
    8d6a:	ce 01       	movw	r24, r28
    8d6c:	87 51       	subi	r24, 0x17	; 23
    8d6e:	9c 4f       	sbci	r25, 0xFC	; 252
    8d70:	fc 01       	movw	r30, r24
    8d72:	80 81       	ld	r24, Z
    8d74:	91 81       	ldd	r25, Z+1	; 0x01
    8d76:	01 97       	sbiw	r24, 0x01	; 1
    8d78:	f1 f7       	brne	.-4      	; 0x8d76 <__stack+0x6b77>
    8d7a:	9e 01       	movw	r18, r28
    8d7c:	27 51       	subi	r18, 0x17	; 23
    8d7e:	3c 4f       	sbci	r19, 0xFC	; 252
    8d80:	f9 01       	movw	r30, r18
    8d82:	91 83       	std	Z+1, r25	; 0x01
    8d84:	80 83       	st	Z, r24
    8d86:	ce 01       	movw	r24, r28
    8d88:	89 51       	subi	r24, 0x19	; 25
    8d8a:	9c 4f       	sbci	r25, 0xFC	; 252
    8d8c:	9e 01       	movw	r18, r28
    8d8e:	29 51       	subi	r18, 0x19	; 25
    8d90:	3c 4f       	sbci	r19, 0xFC	; 252
    8d92:	f9 01       	movw	r30, r18
    8d94:	20 81       	ld	r18, Z
    8d96:	31 81       	ldd	r19, Z+1	; 0x01
    8d98:	21 50       	subi	r18, 0x01	; 1
    8d9a:	31 09       	sbc	r19, r1
    8d9c:	fc 01       	movw	r30, r24
    8d9e:	31 83       	std	Z+1, r19	; 0x01
    8da0:	20 83       	st	Z, r18
    8da2:	ce 01       	movw	r24, r28
    8da4:	89 51       	subi	r24, 0x19	; 25
    8da6:	9c 4f       	sbci	r25, 0xFC	; 252
    8da8:	fc 01       	movw	r30, r24
    8daa:	80 81       	ld	r24, Z
    8dac:	91 81       	ldd	r25, Z+1	; 0x01
    8dae:	89 2b       	or	r24, r25
    8db0:	a1 f6       	brne	.-88     	; 0x8d5a <__stack+0x6b5b>
    8db2:	2c c0       	rjmp	.+88     	; 0x8e0c <__stack+0x6c0d>
    8db4:	8e 01       	movw	r16, r28
    8db6:	09 51       	subi	r16, 0x19	; 25
    8db8:	1c 4f       	sbci	r17, 0xFC	; 252
    8dba:	ce 01       	movw	r24, r28
    8dbc:	8d 51       	subi	r24, 0x1D	; 29
    8dbe:	9c 4f       	sbci	r25, 0xFC	; 252
    8dc0:	fc 01       	movw	r30, r24
    8dc2:	60 81       	ld	r22, Z
    8dc4:	71 81       	ldd	r23, Z+1	; 0x01
    8dc6:	82 81       	ldd	r24, Z+2	; 0x02
    8dc8:	93 81       	ldd	r25, Z+3	; 0x03
    8dca:	0e 94 e8 4f 	call	0x9fd0	; 0x9fd0 <__fixunssfsi>
    8dce:	dc 01       	movw	r26, r24
    8dd0:	cb 01       	movw	r24, r22
    8dd2:	f8 01       	movw	r30, r16
    8dd4:	91 83       	std	Z+1, r25	; 0x01
    8dd6:	80 83       	st	Z, r24
    8dd8:	ce 01       	movw	r24, r28
    8dda:	85 51       	subi	r24, 0x15	; 21
    8ddc:	9c 4f       	sbci	r25, 0xFC	; 252
    8dde:	9e 01       	movw	r18, r28
    8de0:	29 51       	subi	r18, 0x19	; 25
    8de2:	3c 4f       	sbci	r19, 0xFC	; 252
    8de4:	f9 01       	movw	r30, r18
    8de6:	20 81       	ld	r18, Z
    8de8:	31 81       	ldd	r19, Z+1	; 0x01
    8dea:	fc 01       	movw	r30, r24
    8dec:	31 83       	std	Z+1, r19	; 0x01
    8dee:	20 83       	st	Z, r18
    8df0:	ce 01       	movw	r24, r28
    8df2:	85 51       	subi	r24, 0x15	; 21
    8df4:	9c 4f       	sbci	r25, 0xFC	; 252
    8df6:	fc 01       	movw	r30, r24
    8df8:	80 81       	ld	r24, Z
    8dfa:	91 81       	ldd	r25, Z+1	; 0x01
    8dfc:	01 97       	sbiw	r24, 0x01	; 1
    8dfe:	f1 f7       	brne	.-4      	; 0x8dfc <__stack+0x6bfd>
    8e00:	9e 01       	movw	r18, r28
    8e02:	25 51       	subi	r18, 0x15	; 21
    8e04:	3c 4f       	sbci	r19, 0xFC	; 252
    8e06:	f9 01       	movw	r30, r18
    8e08:	91 83       	std	Z+1, r25	; 0x01
    8e0a:	80 83       	st	Z, r24
    8e0c:	80 e0       	ldi	r24, 0x00	; 0
    8e0e:	0e 94 0a 0f 	call	0x1e14	; 0x1e14 <turn_off_bar_graph_led>
    8e12:	82 e0       	ldi	r24, 0x02	; 2
    8e14:	0e 94 0a 0f 	call	0x1e14	; 0x1e14 <turn_off_bar_graph_led>
    8e18:	84 e0       	ldi	r24, 0x04	; 4
    8e1a:	0e 94 0a 0f 	call	0x1e14	; 0x1e14 <turn_off_bar_graph_led>
    8e1e:	86 e0       	ldi	r24, 0x06	; 6
    8e20:	0e 94 0a 0f 	call	0x1e14	; 0x1e14 <turn_off_bar_graph_led>
    8e24:	0e 94 1d 0d 	call	0x1a3a	; 0x1a3a <buzzer_off>
    8e28:	81 e0       	ldi	r24, 0x01	; 1
    8e2a:	0e 94 2a 0f 	call	0x1e54	; 0x1e54 <turn_on_bar_graph_led>
    8e2e:	83 e0       	ldi	r24, 0x03	; 3
    8e30:	0e 94 2a 0f 	call	0x1e54	; 0x1e54 <turn_on_bar_graph_led>
    8e34:	85 e0       	ldi	r24, 0x05	; 5
    8e36:	0e 94 2a 0f 	call	0x1e54	; 0x1e54 <turn_on_bar_graph_led>
    8e3a:	87 e0       	ldi	r24, 0x07	; 7
    8e3c:	0e 94 2a 0f 	call	0x1e54	; 0x1e54 <turn_on_bar_graph_led>
    8e40:	9e 01       	movw	r18, r28
    8e42:	29 5f       	subi	r18, 0xF9	; 249
    8e44:	3e 4f       	sbci	r19, 0xFE	; 254
    8e46:	80 e0       	ldi	r24, 0x00	; 0
    8e48:	90 e0       	ldi	r25, 0x00	; 0
    8e4a:	a6 e1       	ldi	r26, 0x16	; 22
    8e4c:	b3 e4       	ldi	r27, 0x43	; 67
    8e4e:	f9 01       	movw	r30, r18
    8e50:	80 83       	st	Z, r24
    8e52:	91 83       	std	Z+1, r25	; 0x01
    8e54:	a2 83       	std	Z+2, r26	; 0x02
    8e56:	b3 83       	std	Z+3, r27	; 0x03
    8e58:	8e 01       	movw	r16, r28
    8e5a:	07 52       	subi	r16, 0x27	; 39
    8e5c:	1c 4f       	sbci	r17, 0xFC	; 252
    8e5e:	ce 01       	movw	r24, r28
    8e60:	89 5f       	subi	r24, 0xF9	; 249
    8e62:	9e 4f       	sbci	r25, 0xFE	; 254
    8e64:	26 e6       	ldi	r18, 0x66	; 102
    8e66:	36 e6       	ldi	r19, 0x66	; 102
    8e68:	46 e6       	ldi	r20, 0x66	; 102
    8e6a:	55 e4       	ldi	r21, 0x45	; 69
    8e6c:	fc 01       	movw	r30, r24
    8e6e:	60 81       	ld	r22, Z
    8e70:	71 81       	ldd	r23, Z+1	; 0x01
    8e72:	82 81       	ldd	r24, Z+2	; 0x02
    8e74:	93 81       	ldd	r25, Z+3	; 0x03
    8e76:	0e 94 65 50 	call	0xa0ca	; 0xa0ca <__mulsf3>
    8e7a:	dc 01       	movw	r26, r24
    8e7c:	cb 01       	movw	r24, r22
    8e7e:	f8 01       	movw	r30, r16
    8e80:	80 83       	st	Z, r24
    8e82:	91 83       	std	Z+1, r25	; 0x01
    8e84:	a2 83       	std	Z+2, r26	; 0x02
    8e86:	b3 83       	std	Z+3, r27	; 0x03
    8e88:	ce 01       	movw	r24, r28
    8e8a:	87 52       	subi	r24, 0x27	; 39
    8e8c:	9c 4f       	sbci	r25, 0xFC	; 252
    8e8e:	20 e0       	ldi	r18, 0x00	; 0
    8e90:	30 e0       	ldi	r19, 0x00	; 0
    8e92:	40 e8       	ldi	r20, 0x80	; 128
    8e94:	5f e3       	ldi	r21, 0x3F	; 63
    8e96:	fc 01       	movw	r30, r24
    8e98:	60 81       	ld	r22, Z
    8e9a:	71 81       	ldd	r23, Z+1	; 0x01
    8e9c:	82 81       	ldd	r24, Z+2	; 0x02
    8e9e:	93 81       	ldd	r25, Z+3	; 0x03
    8ea0:	0e 94 e4 4f 	call	0x9fc8	; 0x9fc8 <__cmpsf2>
    8ea4:	88 23       	and	r24, r24
    8ea6:	4c f4       	brge	.+18     	; 0x8eba <__stack+0x6cbb>
    8ea8:	ce 01       	movw	r24, r28
    8eaa:	83 52       	subi	r24, 0x23	; 35
    8eac:	9c 4f       	sbci	r25, 0xFC	; 252
    8eae:	21 e0       	ldi	r18, 0x01	; 1
    8eb0:	30 e0       	ldi	r19, 0x00	; 0
    8eb2:	fc 01       	movw	r30, r24
    8eb4:	31 83       	std	Z+1, r19	; 0x01
    8eb6:	20 83       	st	Z, r18
    8eb8:	6d c0       	rjmp	.+218    	; 0x8f94 <__stack+0x6d95>
    8eba:	ce 01       	movw	r24, r28
    8ebc:	87 52       	subi	r24, 0x27	; 39
    8ebe:	9c 4f       	sbci	r25, 0xFC	; 252
    8ec0:	20 e0       	ldi	r18, 0x00	; 0
    8ec2:	3f ef       	ldi	r19, 0xFF	; 255
    8ec4:	4f e7       	ldi	r20, 0x7F	; 127
    8ec6:	57 e4       	ldi	r21, 0x47	; 71
    8ec8:	fc 01       	movw	r30, r24
    8eca:	60 81       	ld	r22, Z
    8ecc:	71 81       	ldd	r23, Z+1	; 0x01
    8ece:	82 81       	ldd	r24, Z+2	; 0x02
    8ed0:	93 81       	ldd	r25, Z+3	; 0x03
    8ed2:	0e 94 61 50 	call	0xa0c2	; 0xa0c2 <__gesf2>
    8ed6:	18 16       	cp	r1, r24
    8ed8:	0c f0       	brlt	.+2      	; 0x8edc <__stack+0x6cdd>
    8eda:	4a c0       	rjmp	.+148    	; 0x8f70 <__stack+0x6d71>
    8edc:	ce 01       	movw	r24, r28
    8ede:	89 5f       	subi	r24, 0xF9	; 249
    8ee0:	9e 4f       	sbci	r25, 0xFE	; 254
    8ee2:	20 e0       	ldi	r18, 0x00	; 0
    8ee4:	30 e0       	ldi	r19, 0x00	; 0
    8ee6:	40 e2       	ldi	r20, 0x20	; 32
    8ee8:	51 e4       	ldi	r21, 0x41	; 65
    8eea:	fc 01       	movw	r30, r24
    8eec:	60 81       	ld	r22, Z
    8eee:	71 81       	ldd	r23, Z+1	; 0x01
    8ef0:	82 81       	ldd	r24, Z+2	; 0x02
    8ef2:	93 81       	ldd	r25, Z+3	; 0x03
    8ef4:	0e 94 65 50 	call	0xa0ca	; 0xa0ca <__mulsf3>
    8ef8:	dc 01       	movw	r26, r24
    8efa:	cb 01       	movw	r24, r22
    8efc:	8e 01       	movw	r16, r28
    8efe:	03 52       	subi	r16, 0x23	; 35
    8f00:	1c 4f       	sbci	r17, 0xFC	; 252
    8f02:	bc 01       	movw	r22, r24
    8f04:	cd 01       	movw	r24, r26
    8f06:	0e 94 e8 4f 	call	0x9fd0	; 0x9fd0 <__fixunssfsi>
    8f0a:	dc 01       	movw	r26, r24
    8f0c:	cb 01       	movw	r24, r22
    8f0e:	f8 01       	movw	r30, r16
    8f10:	91 83       	std	Z+1, r25	; 0x01
    8f12:	80 83       	st	Z, r24
    8f14:	24 c0       	rjmp	.+72     	; 0x8f5e <__stack+0x6d5f>
    8f16:	ce 01       	movw	r24, r28
    8f18:	81 52       	subi	r24, 0x21	; 33
    8f1a:	9c 4f       	sbci	r25, 0xFC	; 252
    8f1c:	20 e7       	ldi	r18, 0x70	; 112
    8f1e:	31 e0       	ldi	r19, 0x01	; 1
    8f20:	fc 01       	movw	r30, r24
    8f22:	31 83       	std	Z+1, r19	; 0x01
    8f24:	20 83       	st	Z, r18
    8f26:	ce 01       	movw	r24, r28
    8f28:	81 52       	subi	r24, 0x21	; 33
    8f2a:	9c 4f       	sbci	r25, 0xFC	; 252
    8f2c:	fc 01       	movw	r30, r24
    8f2e:	80 81       	ld	r24, Z
    8f30:	91 81       	ldd	r25, Z+1	; 0x01
    8f32:	01 97       	sbiw	r24, 0x01	; 1
    8f34:	f1 f7       	brne	.-4      	; 0x8f32 <__stack+0x6d33>
    8f36:	9e 01       	movw	r18, r28
    8f38:	21 52       	subi	r18, 0x21	; 33
    8f3a:	3c 4f       	sbci	r19, 0xFC	; 252
    8f3c:	f9 01       	movw	r30, r18
    8f3e:	91 83       	std	Z+1, r25	; 0x01
    8f40:	80 83       	st	Z, r24
    8f42:	ce 01       	movw	r24, r28
    8f44:	83 52       	subi	r24, 0x23	; 35
    8f46:	9c 4f       	sbci	r25, 0xFC	; 252
    8f48:	9e 01       	movw	r18, r28
    8f4a:	23 52       	subi	r18, 0x23	; 35
    8f4c:	3c 4f       	sbci	r19, 0xFC	; 252
    8f4e:	f9 01       	movw	r30, r18
    8f50:	20 81       	ld	r18, Z
    8f52:	31 81       	ldd	r19, Z+1	; 0x01
    8f54:	21 50       	subi	r18, 0x01	; 1
    8f56:	31 09       	sbc	r19, r1
    8f58:	fc 01       	movw	r30, r24
    8f5a:	31 83       	std	Z+1, r19	; 0x01
    8f5c:	20 83       	st	Z, r18
    8f5e:	ce 01       	movw	r24, r28
    8f60:	83 52       	subi	r24, 0x23	; 35
    8f62:	9c 4f       	sbci	r25, 0xFC	; 252
    8f64:	fc 01       	movw	r30, r24
    8f66:	80 81       	ld	r24, Z
    8f68:	91 81       	ldd	r25, Z+1	; 0x01
    8f6a:	89 2b       	or	r24, r25
    8f6c:	a1 f6       	brne	.-88     	; 0x8f16 <__stack+0x6d17>
    8f6e:	2c c0       	rjmp	.+88     	; 0x8fc8 <__stack+0x6dc9>
    8f70:	8e 01       	movw	r16, r28
    8f72:	03 52       	subi	r16, 0x23	; 35
    8f74:	1c 4f       	sbci	r17, 0xFC	; 252
    8f76:	ce 01       	movw	r24, r28
    8f78:	87 52       	subi	r24, 0x27	; 39
    8f7a:	9c 4f       	sbci	r25, 0xFC	; 252
    8f7c:	fc 01       	movw	r30, r24
    8f7e:	60 81       	ld	r22, Z
    8f80:	71 81       	ldd	r23, Z+1	; 0x01
    8f82:	82 81       	ldd	r24, Z+2	; 0x02
    8f84:	93 81       	ldd	r25, Z+3	; 0x03
    8f86:	0e 94 e8 4f 	call	0x9fd0	; 0x9fd0 <__fixunssfsi>
    8f8a:	dc 01       	movw	r26, r24
    8f8c:	cb 01       	movw	r24, r22
    8f8e:	f8 01       	movw	r30, r16
    8f90:	91 83       	std	Z+1, r25	; 0x01
    8f92:	80 83       	st	Z, r24
    8f94:	ce 01       	movw	r24, r28
    8f96:	8f 51       	subi	r24, 0x1F	; 31
    8f98:	9c 4f       	sbci	r25, 0xFC	; 252
    8f9a:	9e 01       	movw	r18, r28
    8f9c:	23 52       	subi	r18, 0x23	; 35
    8f9e:	3c 4f       	sbci	r19, 0xFC	; 252
    8fa0:	f9 01       	movw	r30, r18
    8fa2:	20 81       	ld	r18, Z
    8fa4:	31 81       	ldd	r19, Z+1	; 0x01
    8fa6:	fc 01       	movw	r30, r24
    8fa8:	31 83       	std	Z+1, r19	; 0x01
    8faa:	20 83       	st	Z, r18
    8fac:	ce 01       	movw	r24, r28
    8fae:	8f 51       	subi	r24, 0x1F	; 31
    8fb0:	9c 4f       	sbci	r25, 0xFC	; 252
    8fb2:	fc 01       	movw	r30, r24
    8fb4:	80 81       	ld	r24, Z
    8fb6:	91 81       	ldd	r25, Z+1	; 0x01
    8fb8:	01 97       	sbiw	r24, 0x01	; 1
    8fba:	f1 f7       	brne	.-4      	; 0x8fb8 <__stack+0x6db9>
    8fbc:	9e 01       	movw	r18, r28
    8fbe:	2f 51       	subi	r18, 0x1F	; 31
    8fc0:	3c 4f       	sbci	r19, 0xFC	; 252
    8fc2:	f9 01       	movw	r30, r18
    8fc4:	91 83       	std	Z+1, r25	; 0x01
    8fc6:	80 83       	st	Z, r24
    8fc8:	81 e0       	ldi	r24, 0x01	; 1
    8fca:	0e 94 0a 0f 	call	0x1e14	; 0x1e14 <turn_off_bar_graph_led>
    8fce:	83 e0       	ldi	r24, 0x03	; 3
    8fd0:	0e 94 0a 0f 	call	0x1e14	; 0x1e14 <turn_off_bar_graph_led>
    8fd4:	85 e0       	ldi	r24, 0x05	; 5
    8fd6:	0e 94 0a 0f 	call	0x1e14	; 0x1e14 <turn_off_bar_graph_led>
    8fda:	87 e0       	ldi	r24, 0x07	; 7
    8fdc:	0e 94 0a 0f 	call	0x1e14	; 0x1e14 <turn_off_bar_graph_led>
    8fe0:	8d 81       	ldd	r24, Y+5	; 0x05
    8fe2:	9e 81       	ldd	r25, Y+6	; 0x06
    8fe4:	01 96       	adiw	r24, 0x01	; 1
    8fe6:	9e 83       	std	Y+6, r25	; 0x06
    8fe8:	8d 83       	std	Y+5, r24	; 0x05
    8fea:	8d 81       	ldd	r24, Y+5	; 0x05
    8fec:	9e 81       	ldd	r25, Y+6	; 0x06
    8fee:	03 97       	sbiw	r24, 0x03	; 3
    8ff0:	0c f4       	brge	.+2      	; 0x8ff4 <__stack+0x6df5>
    8ff2:	3a ce       	rjmp	.-908    	; 0x8c68 <__stack+0x6a69>
    8ff4:	9e 01       	movw	r18, r28
    8ff6:	21 5e       	subi	r18, 0xE1	; 225
    8ff8:	3e 4f       	sbci	r19, 0xFE	; 254
    8ffa:	80 e0       	ldi	r24, 0x00	; 0
    8ffc:	90 e0       	ldi	r25, 0x00	; 0
    8ffe:	a8 ec       	ldi	r26, 0xC8	; 200
    9000:	b2 e4       	ldi	r27, 0x42	; 66
    9002:	f9 01       	movw	r30, r18
    9004:	80 83       	st	Z, r24
    9006:	91 83       	std	Z+1, r25	; 0x01
    9008:	a2 83       	std	Z+2, r26	; 0x02
    900a:	b3 83       	std	Z+3, r27	; 0x03
    900c:	8e 01       	movw	r16, r28
    900e:	0d 5c       	subi	r16, 0xCD	; 205
    9010:	1b 4f       	sbci	r17, 0xFB	; 251
    9012:	ce 01       	movw	r24, r28
    9014:	81 5e       	subi	r24, 0xE1	; 225
    9016:	9e 4f       	sbci	r25, 0xFE	; 254
    9018:	26 e6       	ldi	r18, 0x66	; 102
    901a:	36 e6       	ldi	r19, 0x66	; 102
    901c:	46 e6       	ldi	r20, 0x66	; 102
    901e:	55 e4       	ldi	r21, 0x45	; 69
    9020:	fc 01       	movw	r30, r24
    9022:	60 81       	ld	r22, Z
    9024:	71 81       	ldd	r23, Z+1	; 0x01
    9026:	82 81       	ldd	r24, Z+2	; 0x02
    9028:	93 81       	ldd	r25, Z+3	; 0x03
    902a:	0e 94 65 50 	call	0xa0ca	; 0xa0ca <__mulsf3>
    902e:	dc 01       	movw	r26, r24
    9030:	cb 01       	movw	r24, r22
    9032:	f8 01       	movw	r30, r16
    9034:	80 83       	st	Z, r24
    9036:	91 83       	std	Z+1, r25	; 0x01
    9038:	a2 83       	std	Z+2, r26	; 0x02
    903a:	b3 83       	std	Z+3, r27	; 0x03
    903c:	ce 01       	movw	r24, r28
    903e:	8d 5c       	subi	r24, 0xCD	; 205
    9040:	9b 4f       	sbci	r25, 0xFB	; 251
    9042:	20 e0       	ldi	r18, 0x00	; 0
    9044:	30 e0       	ldi	r19, 0x00	; 0
    9046:	40 e8       	ldi	r20, 0x80	; 128
    9048:	5f e3       	ldi	r21, 0x3F	; 63
    904a:	fc 01       	movw	r30, r24
    904c:	60 81       	ld	r22, Z
    904e:	71 81       	ldd	r23, Z+1	; 0x01
    9050:	82 81       	ldd	r24, Z+2	; 0x02
    9052:	93 81       	ldd	r25, Z+3	; 0x03
    9054:	b9 d7       	rcall	.+3954   	; 0x9fc8 <__cmpsf2>
    9056:	88 23       	and	r24, r24
    9058:	4c f4       	brge	.+18     	; 0x906c <__stack+0x6e6d>
    905a:	ce 01       	movw	r24, r28
    905c:	89 5c       	subi	r24, 0xC9	; 201
    905e:	9b 4f       	sbci	r25, 0xFB	; 251
    9060:	21 e0       	ldi	r18, 0x01	; 1
    9062:	30 e0       	ldi	r19, 0x00	; 0
    9064:	fc 01       	movw	r30, r24
    9066:	31 83       	std	Z+1, r19	; 0x01
    9068:	20 83       	st	Z, r18
    906a:	6b c0       	rjmp	.+214    	; 0x9142 <__stack+0x6f43>
    906c:	ce 01       	movw	r24, r28
    906e:	8d 5c       	subi	r24, 0xCD	; 205
    9070:	9b 4f       	sbci	r25, 0xFB	; 251
    9072:	20 e0       	ldi	r18, 0x00	; 0
    9074:	3f ef       	ldi	r19, 0xFF	; 255
    9076:	4f e7       	ldi	r20, 0x7F	; 127
    9078:	57 e4       	ldi	r21, 0x47	; 71
    907a:	fc 01       	movw	r30, r24
    907c:	60 81       	ld	r22, Z
    907e:	71 81       	ldd	r23, Z+1	; 0x01
    9080:	82 81       	ldd	r24, Z+2	; 0x02
    9082:	93 81       	ldd	r25, Z+3	; 0x03
    9084:	0e 94 61 50 	call	0xa0c2	; 0xa0c2 <__gesf2>
    9088:	18 16       	cp	r1, r24
    908a:	0c f0       	brlt	.+2      	; 0x908e <__stack+0x6e8f>
    908c:	49 c0       	rjmp	.+146    	; 0x9120 <__stack+0x6f21>
    908e:	ce 01       	movw	r24, r28
    9090:	81 5e       	subi	r24, 0xE1	; 225
    9092:	9e 4f       	sbci	r25, 0xFE	; 254
    9094:	20 e0       	ldi	r18, 0x00	; 0
    9096:	30 e0       	ldi	r19, 0x00	; 0
    9098:	40 e2       	ldi	r20, 0x20	; 32
    909a:	51 e4       	ldi	r21, 0x41	; 65
    909c:	fc 01       	movw	r30, r24
    909e:	60 81       	ld	r22, Z
    90a0:	71 81       	ldd	r23, Z+1	; 0x01
    90a2:	82 81       	ldd	r24, Z+2	; 0x02
    90a4:	93 81       	ldd	r25, Z+3	; 0x03
    90a6:	0e 94 65 50 	call	0xa0ca	; 0xa0ca <__mulsf3>
    90aa:	dc 01       	movw	r26, r24
    90ac:	cb 01       	movw	r24, r22
    90ae:	8e 01       	movw	r16, r28
    90b0:	09 5c       	subi	r16, 0xC9	; 201
    90b2:	1b 4f       	sbci	r17, 0xFB	; 251
    90b4:	bc 01       	movw	r22, r24
    90b6:	cd 01       	movw	r24, r26
    90b8:	8b d7       	rcall	.+3862   	; 0x9fd0 <__fixunssfsi>
    90ba:	dc 01       	movw	r26, r24
    90bc:	cb 01       	movw	r24, r22
    90be:	f8 01       	movw	r30, r16
    90c0:	91 83       	std	Z+1, r25	; 0x01
    90c2:	80 83       	st	Z, r24
    90c4:	24 c0       	rjmp	.+72     	; 0x910e <__stack+0x6f0f>
    90c6:	ce 01       	movw	r24, r28
    90c8:	87 5c       	subi	r24, 0xC7	; 199
    90ca:	9b 4f       	sbci	r25, 0xFB	; 251
    90cc:	20 e7       	ldi	r18, 0x70	; 112
    90ce:	31 e0       	ldi	r19, 0x01	; 1
    90d0:	fc 01       	movw	r30, r24
    90d2:	31 83       	std	Z+1, r19	; 0x01
    90d4:	20 83       	st	Z, r18
    90d6:	ce 01       	movw	r24, r28
    90d8:	87 5c       	subi	r24, 0xC7	; 199
    90da:	9b 4f       	sbci	r25, 0xFB	; 251
    90dc:	fc 01       	movw	r30, r24
    90de:	80 81       	ld	r24, Z
    90e0:	91 81       	ldd	r25, Z+1	; 0x01
    90e2:	01 97       	sbiw	r24, 0x01	; 1
    90e4:	f1 f7       	brne	.-4      	; 0x90e2 <__stack+0x6ee3>
    90e6:	9e 01       	movw	r18, r28
    90e8:	27 5c       	subi	r18, 0xC7	; 199
    90ea:	3b 4f       	sbci	r19, 0xFB	; 251
    90ec:	f9 01       	movw	r30, r18
    90ee:	91 83       	std	Z+1, r25	; 0x01
    90f0:	80 83       	st	Z, r24
    90f2:	ce 01       	movw	r24, r28
    90f4:	89 5c       	subi	r24, 0xC9	; 201
    90f6:	9b 4f       	sbci	r25, 0xFB	; 251
    90f8:	9e 01       	movw	r18, r28
    90fa:	29 5c       	subi	r18, 0xC9	; 201
    90fc:	3b 4f       	sbci	r19, 0xFB	; 251
    90fe:	f9 01       	movw	r30, r18
    9100:	20 81       	ld	r18, Z
    9102:	31 81       	ldd	r19, Z+1	; 0x01
    9104:	21 50       	subi	r18, 0x01	; 1
    9106:	31 09       	sbc	r19, r1
    9108:	fc 01       	movw	r30, r24
    910a:	31 83       	std	Z+1, r19	; 0x01
    910c:	20 83       	st	Z, r18
    910e:	ce 01       	movw	r24, r28
    9110:	89 5c       	subi	r24, 0xC9	; 201
    9112:	9b 4f       	sbci	r25, 0xFB	; 251
    9114:	fc 01       	movw	r30, r24
    9116:	80 81       	ld	r24, Z
    9118:	91 81       	ldd	r25, Z+1	; 0x01
    911a:	89 2b       	or	r24, r25
    911c:	a1 f6       	brne	.-88     	; 0x90c6 <__stack+0x6ec7>
    911e:	2b c0       	rjmp	.+86     	; 0x9176 <__stack+0x6f77>
    9120:	8e 01       	movw	r16, r28
    9122:	09 5c       	subi	r16, 0xC9	; 201
    9124:	1b 4f       	sbci	r17, 0xFB	; 251
    9126:	ce 01       	movw	r24, r28
    9128:	8d 5c       	subi	r24, 0xCD	; 205
    912a:	9b 4f       	sbci	r25, 0xFB	; 251
    912c:	fc 01       	movw	r30, r24
    912e:	60 81       	ld	r22, Z
    9130:	71 81       	ldd	r23, Z+1	; 0x01
    9132:	82 81       	ldd	r24, Z+2	; 0x02
    9134:	93 81       	ldd	r25, Z+3	; 0x03
    9136:	4c d7       	rcall	.+3736   	; 0x9fd0 <__fixunssfsi>
    9138:	dc 01       	movw	r26, r24
    913a:	cb 01       	movw	r24, r22
    913c:	f8 01       	movw	r30, r16
    913e:	91 83       	std	Z+1, r25	; 0x01
    9140:	80 83       	st	Z, r24
    9142:	ce 01       	movw	r24, r28
    9144:	85 5c       	subi	r24, 0xC5	; 197
    9146:	9b 4f       	sbci	r25, 0xFB	; 251
    9148:	9e 01       	movw	r18, r28
    914a:	29 5c       	subi	r18, 0xC9	; 201
    914c:	3b 4f       	sbci	r19, 0xFB	; 251
    914e:	f9 01       	movw	r30, r18
    9150:	20 81       	ld	r18, Z
    9152:	31 81       	ldd	r19, Z+1	; 0x01
    9154:	fc 01       	movw	r30, r24
    9156:	31 83       	std	Z+1, r19	; 0x01
    9158:	20 83       	st	Z, r18
    915a:	ce 01       	movw	r24, r28
    915c:	85 5c       	subi	r24, 0xC5	; 197
    915e:	9b 4f       	sbci	r25, 0xFB	; 251
    9160:	fc 01       	movw	r30, r24
    9162:	80 81       	ld	r24, Z
    9164:	91 81       	ldd	r25, Z+1	; 0x01
    9166:	01 97       	sbiw	r24, 0x01	; 1
    9168:	f1 f7       	brne	.-4      	; 0x9166 <__stack+0x6f67>
    916a:	9e 01       	movw	r18, r28
    916c:	25 5c       	subi	r18, 0xC5	; 197
    916e:	3b 4f       	sbci	r19, 0xFB	; 251
    9170:	f9 01       	movw	r30, r18
    9172:	91 83       	std	Z+1, r25	; 0x01
    9174:	80 83       	st	Z, r24
    9176:	0e 94 aa 0e 	call	0x1d54	; 0x1d54 <stop>
    917a:	9e 01       	movw	r18, r28
    917c:	2d 5d       	subi	r18, 0xDD	; 221
    917e:	3e 4f       	sbci	r19, 0xFE	; 254
    9180:	80 e0       	ldi	r24, 0x00	; 0
    9182:	90 e0       	ldi	r25, 0x00	; 0
    9184:	aa ef       	ldi	r26, 0xFA	; 250
    9186:	b3 e4       	ldi	r27, 0x43	; 67
    9188:	f9 01       	movw	r30, r18
    918a:	80 83       	st	Z, r24
    918c:	91 83       	std	Z+1, r25	; 0x01
    918e:	a2 83       	std	Z+2, r26	; 0x02
    9190:	b3 83       	std	Z+3, r27	; 0x03
    9192:	8e 01       	movw	r16, r28
    9194:	07 5d       	subi	r16, 0xD7	; 215
    9196:	1b 4f       	sbci	r17, 0xFB	; 251
    9198:	ce 01       	movw	r24, r28
    919a:	8d 5d       	subi	r24, 0xDD	; 221
    919c:	9e 4f       	sbci	r25, 0xFE	; 254
    919e:	26 e6       	ldi	r18, 0x66	; 102
    91a0:	36 e6       	ldi	r19, 0x66	; 102
    91a2:	46 e6       	ldi	r20, 0x66	; 102
    91a4:	55 e4       	ldi	r21, 0x45	; 69
    91a6:	fc 01       	movw	r30, r24
    91a8:	60 81       	ld	r22, Z
    91aa:	71 81       	ldd	r23, Z+1	; 0x01
    91ac:	82 81       	ldd	r24, Z+2	; 0x02
    91ae:	93 81       	ldd	r25, Z+3	; 0x03
    91b0:	8c d7       	rcall	.+3864   	; 0xa0ca <__mulsf3>
    91b2:	dc 01       	movw	r26, r24
    91b4:	cb 01       	movw	r24, r22
    91b6:	f8 01       	movw	r30, r16
    91b8:	80 83       	st	Z, r24
    91ba:	91 83       	std	Z+1, r25	; 0x01
    91bc:	a2 83       	std	Z+2, r26	; 0x02
    91be:	b3 83       	std	Z+3, r27	; 0x03
    91c0:	ce 01       	movw	r24, r28
    91c2:	87 5d       	subi	r24, 0xD7	; 215
    91c4:	9b 4f       	sbci	r25, 0xFB	; 251
    91c6:	20 e0       	ldi	r18, 0x00	; 0
    91c8:	30 e0       	ldi	r19, 0x00	; 0
    91ca:	40 e8       	ldi	r20, 0x80	; 128
    91cc:	5f e3       	ldi	r21, 0x3F	; 63
    91ce:	fc 01       	movw	r30, r24
    91d0:	60 81       	ld	r22, Z
    91d2:	71 81       	ldd	r23, Z+1	; 0x01
    91d4:	82 81       	ldd	r24, Z+2	; 0x02
    91d6:	93 81       	ldd	r25, Z+3	; 0x03
    91d8:	f7 d6       	rcall	.+3566   	; 0x9fc8 <__cmpsf2>
    91da:	88 23       	and	r24, r24
    91dc:	4c f4       	brge	.+18     	; 0x91f0 <__stack+0x6ff1>
    91de:	ce 01       	movw	r24, r28
    91e0:	83 5d       	subi	r24, 0xD3	; 211
    91e2:	9b 4f       	sbci	r25, 0xFB	; 251
    91e4:	21 e0       	ldi	r18, 0x01	; 1
    91e6:	30 e0       	ldi	r19, 0x00	; 0
    91e8:	fc 01       	movw	r30, r24
    91ea:	31 83       	std	Z+1, r19	; 0x01
    91ec:	20 83       	st	Z, r18
    91ee:	69 c0       	rjmp	.+210    	; 0x92c2 <__stack+0x70c3>
    91f0:	ce 01       	movw	r24, r28
    91f2:	87 5d       	subi	r24, 0xD7	; 215
    91f4:	9b 4f       	sbci	r25, 0xFB	; 251
    91f6:	20 e0       	ldi	r18, 0x00	; 0
    91f8:	3f ef       	ldi	r19, 0xFF	; 255
    91fa:	4f e7       	ldi	r20, 0x7F	; 127
    91fc:	57 e4       	ldi	r21, 0x47	; 71
    91fe:	fc 01       	movw	r30, r24
    9200:	60 81       	ld	r22, Z
    9202:	71 81       	ldd	r23, Z+1	; 0x01
    9204:	82 81       	ldd	r24, Z+2	; 0x02
    9206:	93 81       	ldd	r25, Z+3	; 0x03
    9208:	5c d7       	rcall	.+3768   	; 0xa0c2 <__gesf2>
    920a:	18 16       	cp	r1, r24
    920c:	0c f0       	brlt	.+2      	; 0x9210 <__stack+0x7011>
    920e:	48 c0       	rjmp	.+144    	; 0x92a0 <__stack+0x70a1>
    9210:	ce 01       	movw	r24, r28
    9212:	8d 5d       	subi	r24, 0xDD	; 221
    9214:	9e 4f       	sbci	r25, 0xFE	; 254
    9216:	20 e0       	ldi	r18, 0x00	; 0
    9218:	30 e0       	ldi	r19, 0x00	; 0
    921a:	40 e2       	ldi	r20, 0x20	; 32
    921c:	51 e4       	ldi	r21, 0x41	; 65
    921e:	fc 01       	movw	r30, r24
    9220:	60 81       	ld	r22, Z
    9222:	71 81       	ldd	r23, Z+1	; 0x01
    9224:	82 81       	ldd	r24, Z+2	; 0x02
    9226:	93 81       	ldd	r25, Z+3	; 0x03
    9228:	50 d7       	rcall	.+3744   	; 0xa0ca <__mulsf3>
    922a:	dc 01       	movw	r26, r24
    922c:	cb 01       	movw	r24, r22
    922e:	8e 01       	movw	r16, r28
    9230:	03 5d       	subi	r16, 0xD3	; 211
    9232:	1b 4f       	sbci	r17, 0xFB	; 251
    9234:	bc 01       	movw	r22, r24
    9236:	cd 01       	movw	r24, r26
    9238:	cb d6       	rcall	.+3478   	; 0x9fd0 <__fixunssfsi>
    923a:	dc 01       	movw	r26, r24
    923c:	cb 01       	movw	r24, r22
    923e:	f8 01       	movw	r30, r16
    9240:	91 83       	std	Z+1, r25	; 0x01
    9242:	80 83       	st	Z, r24
    9244:	24 c0       	rjmp	.+72     	; 0x928e <__stack+0x708f>
    9246:	ce 01       	movw	r24, r28
    9248:	81 5d       	subi	r24, 0xD1	; 209
    924a:	9b 4f       	sbci	r25, 0xFB	; 251
    924c:	20 e7       	ldi	r18, 0x70	; 112
    924e:	31 e0       	ldi	r19, 0x01	; 1
    9250:	fc 01       	movw	r30, r24
    9252:	31 83       	std	Z+1, r19	; 0x01
    9254:	20 83       	st	Z, r18
    9256:	ce 01       	movw	r24, r28
    9258:	81 5d       	subi	r24, 0xD1	; 209
    925a:	9b 4f       	sbci	r25, 0xFB	; 251
    925c:	fc 01       	movw	r30, r24
    925e:	80 81       	ld	r24, Z
    9260:	91 81       	ldd	r25, Z+1	; 0x01
    9262:	01 97       	sbiw	r24, 0x01	; 1
    9264:	f1 f7       	brne	.-4      	; 0x9262 <__stack+0x7063>
    9266:	9e 01       	movw	r18, r28
    9268:	21 5d       	subi	r18, 0xD1	; 209
    926a:	3b 4f       	sbci	r19, 0xFB	; 251
    926c:	f9 01       	movw	r30, r18
    926e:	91 83       	std	Z+1, r25	; 0x01
    9270:	80 83       	st	Z, r24
    9272:	ce 01       	movw	r24, r28
    9274:	83 5d       	subi	r24, 0xD3	; 211
    9276:	9b 4f       	sbci	r25, 0xFB	; 251
    9278:	9e 01       	movw	r18, r28
    927a:	23 5d       	subi	r18, 0xD3	; 211
    927c:	3b 4f       	sbci	r19, 0xFB	; 251
    927e:	f9 01       	movw	r30, r18
    9280:	20 81       	ld	r18, Z
    9282:	31 81       	ldd	r19, Z+1	; 0x01
    9284:	21 50       	subi	r18, 0x01	; 1
    9286:	31 09       	sbc	r19, r1
    9288:	fc 01       	movw	r30, r24
    928a:	31 83       	std	Z+1, r19	; 0x01
    928c:	20 83       	st	Z, r18
    928e:	ce 01       	movw	r24, r28
    9290:	83 5d       	subi	r24, 0xD3	; 211
    9292:	9b 4f       	sbci	r25, 0xFB	; 251
    9294:	fc 01       	movw	r30, r24
    9296:	80 81       	ld	r24, Z
    9298:	91 81       	ldd	r25, Z+1	; 0x01
    929a:	89 2b       	or	r24, r25
    929c:	a1 f6       	brne	.-88     	; 0x9246 <__stack+0x7047>
    929e:	2b c0       	rjmp	.+86     	; 0x92f6 <__stack+0x70f7>
    92a0:	8e 01       	movw	r16, r28
    92a2:	03 5d       	subi	r16, 0xD3	; 211
    92a4:	1b 4f       	sbci	r17, 0xFB	; 251
    92a6:	ce 01       	movw	r24, r28
    92a8:	87 5d       	subi	r24, 0xD7	; 215
    92aa:	9b 4f       	sbci	r25, 0xFB	; 251
    92ac:	fc 01       	movw	r30, r24
    92ae:	60 81       	ld	r22, Z
    92b0:	71 81       	ldd	r23, Z+1	; 0x01
    92b2:	82 81       	ldd	r24, Z+2	; 0x02
    92b4:	93 81       	ldd	r25, Z+3	; 0x03
    92b6:	8c d6       	rcall	.+3352   	; 0x9fd0 <__fixunssfsi>
    92b8:	dc 01       	movw	r26, r24
    92ba:	cb 01       	movw	r24, r22
    92bc:	f8 01       	movw	r30, r16
    92be:	91 83       	std	Z+1, r25	; 0x01
    92c0:	80 83       	st	Z, r24
    92c2:	ce 01       	movw	r24, r28
    92c4:	8f 5c       	subi	r24, 0xCF	; 207
    92c6:	9b 4f       	sbci	r25, 0xFB	; 251
    92c8:	9e 01       	movw	r18, r28
    92ca:	23 5d       	subi	r18, 0xD3	; 211
    92cc:	3b 4f       	sbci	r19, 0xFB	; 251
    92ce:	f9 01       	movw	r30, r18
    92d0:	20 81       	ld	r18, Z
    92d2:	31 81       	ldd	r19, Z+1	; 0x01
    92d4:	fc 01       	movw	r30, r24
    92d6:	31 83       	std	Z+1, r19	; 0x01
    92d8:	20 83       	st	Z, r18
    92da:	ce 01       	movw	r24, r28
    92dc:	8f 5c       	subi	r24, 0xCF	; 207
    92de:	9b 4f       	sbci	r25, 0xFB	; 251
    92e0:	fc 01       	movw	r30, r24
    92e2:	80 81       	ld	r24, Z
    92e4:	91 81       	ldd	r25, Z+1	; 0x01
    92e6:	01 97       	sbiw	r24, 0x01	; 1
    92e8:	f1 f7       	brne	.-4      	; 0x92e6 <__stack+0x70e7>
    92ea:	9e 01       	movw	r18, r28
    92ec:	2f 5c       	subi	r18, 0xCF	; 207
    92ee:	3b 4f       	sbci	r19, 0xFB	; 251
    92f0:	f9 01       	movw	r30, r18
    92f2:	91 83       	std	Z+1, r25	; 0x01
    92f4:	80 83       	st	Z, r24
    92f6:	0e 94 0c 0d 	call	0x1a18	; 0x1a18 <buzzer_on>
    92fa:	0e 94 a0 0e 	call	0x1d40	; 0x1d40 <right>
    92fe:	9e 01       	movw	r18, r28
    9300:	29 5d       	subi	r18, 0xD9	; 217
    9302:	3e 4f       	sbci	r19, 0xFE	; 254
    9304:	80 e0       	ldi	r24, 0x00	; 0
    9306:	90 e0       	ldi	r25, 0x00	; 0
    9308:	a9 e3       	ldi	r26, 0x39	; 57
    930a:	b4 e4       	ldi	r27, 0x44	; 68
    930c:	f9 01       	movw	r30, r18
    930e:	80 83       	st	Z, r24
    9310:	91 83       	std	Z+1, r25	; 0x01
    9312:	a2 83       	std	Z+2, r26	; 0x02
    9314:	b3 83       	std	Z+3, r27	; 0x03
    9316:	8e 01       	movw	r16, r28
    9318:	01 5e       	subi	r16, 0xE1	; 225
    931a:	1b 4f       	sbci	r17, 0xFB	; 251
    931c:	ce 01       	movw	r24, r28
    931e:	89 5d       	subi	r24, 0xD9	; 217
    9320:	9e 4f       	sbci	r25, 0xFE	; 254
    9322:	26 e6       	ldi	r18, 0x66	; 102
    9324:	36 e6       	ldi	r19, 0x66	; 102
    9326:	46 e6       	ldi	r20, 0x66	; 102
    9328:	55 e4       	ldi	r21, 0x45	; 69
    932a:	fc 01       	movw	r30, r24
    932c:	60 81       	ld	r22, Z
    932e:	71 81       	ldd	r23, Z+1	; 0x01
    9330:	82 81       	ldd	r24, Z+2	; 0x02
    9332:	93 81       	ldd	r25, Z+3	; 0x03
    9334:	ca d6       	rcall	.+3476   	; 0xa0ca <__mulsf3>
    9336:	dc 01       	movw	r26, r24
    9338:	cb 01       	movw	r24, r22
    933a:	f8 01       	movw	r30, r16
    933c:	80 83       	st	Z, r24
    933e:	91 83       	std	Z+1, r25	; 0x01
    9340:	a2 83       	std	Z+2, r26	; 0x02
    9342:	b3 83       	std	Z+3, r27	; 0x03
    9344:	ce 01       	movw	r24, r28
    9346:	81 5e       	subi	r24, 0xE1	; 225
    9348:	9b 4f       	sbci	r25, 0xFB	; 251
    934a:	20 e0       	ldi	r18, 0x00	; 0
    934c:	30 e0       	ldi	r19, 0x00	; 0
    934e:	40 e8       	ldi	r20, 0x80	; 128
    9350:	5f e3       	ldi	r21, 0x3F	; 63
    9352:	fc 01       	movw	r30, r24
    9354:	60 81       	ld	r22, Z
    9356:	71 81       	ldd	r23, Z+1	; 0x01
    9358:	82 81       	ldd	r24, Z+2	; 0x02
    935a:	93 81       	ldd	r25, Z+3	; 0x03
    935c:	35 d6       	rcall	.+3178   	; 0x9fc8 <__cmpsf2>
    935e:	88 23       	and	r24, r24
    9360:	4c f4       	brge	.+18     	; 0x9374 <__stack+0x7175>
    9362:	ce 01       	movw	r24, r28
    9364:	8d 5d       	subi	r24, 0xDD	; 221
    9366:	9b 4f       	sbci	r25, 0xFB	; 251
    9368:	21 e0       	ldi	r18, 0x01	; 1
    936a:	30 e0       	ldi	r19, 0x00	; 0
    936c:	fc 01       	movw	r30, r24
    936e:	31 83       	std	Z+1, r19	; 0x01
    9370:	20 83       	st	Z, r18
    9372:	69 c0       	rjmp	.+210    	; 0x9446 <__stack+0x7247>
    9374:	ce 01       	movw	r24, r28
    9376:	81 5e       	subi	r24, 0xE1	; 225
    9378:	9b 4f       	sbci	r25, 0xFB	; 251
    937a:	20 e0       	ldi	r18, 0x00	; 0
    937c:	3f ef       	ldi	r19, 0xFF	; 255
    937e:	4f e7       	ldi	r20, 0x7F	; 127
    9380:	57 e4       	ldi	r21, 0x47	; 71
    9382:	fc 01       	movw	r30, r24
    9384:	60 81       	ld	r22, Z
    9386:	71 81       	ldd	r23, Z+1	; 0x01
    9388:	82 81       	ldd	r24, Z+2	; 0x02
    938a:	93 81       	ldd	r25, Z+3	; 0x03
    938c:	9a d6       	rcall	.+3380   	; 0xa0c2 <__gesf2>
    938e:	18 16       	cp	r1, r24
    9390:	0c f0       	brlt	.+2      	; 0x9394 <__stack+0x7195>
    9392:	48 c0       	rjmp	.+144    	; 0x9424 <__stack+0x7225>
    9394:	ce 01       	movw	r24, r28
    9396:	89 5d       	subi	r24, 0xD9	; 217
    9398:	9e 4f       	sbci	r25, 0xFE	; 254
    939a:	20 e0       	ldi	r18, 0x00	; 0
    939c:	30 e0       	ldi	r19, 0x00	; 0
    939e:	40 e2       	ldi	r20, 0x20	; 32
    93a0:	51 e4       	ldi	r21, 0x41	; 65
    93a2:	fc 01       	movw	r30, r24
    93a4:	60 81       	ld	r22, Z
    93a6:	71 81       	ldd	r23, Z+1	; 0x01
    93a8:	82 81       	ldd	r24, Z+2	; 0x02
    93aa:	93 81       	ldd	r25, Z+3	; 0x03
    93ac:	8e d6       	rcall	.+3356   	; 0xa0ca <__mulsf3>
    93ae:	dc 01       	movw	r26, r24
    93b0:	cb 01       	movw	r24, r22
    93b2:	8e 01       	movw	r16, r28
    93b4:	0d 5d       	subi	r16, 0xDD	; 221
    93b6:	1b 4f       	sbci	r17, 0xFB	; 251
    93b8:	bc 01       	movw	r22, r24
    93ba:	cd 01       	movw	r24, r26
    93bc:	09 d6       	rcall	.+3090   	; 0x9fd0 <__fixunssfsi>
    93be:	dc 01       	movw	r26, r24
    93c0:	cb 01       	movw	r24, r22
    93c2:	f8 01       	movw	r30, r16
    93c4:	91 83       	std	Z+1, r25	; 0x01
    93c6:	80 83       	st	Z, r24
    93c8:	24 c0       	rjmp	.+72     	; 0x9412 <__stack+0x7213>
    93ca:	ce 01       	movw	r24, r28
    93cc:	8b 5d       	subi	r24, 0xDB	; 219
    93ce:	9b 4f       	sbci	r25, 0xFB	; 251
    93d0:	20 e7       	ldi	r18, 0x70	; 112
    93d2:	31 e0       	ldi	r19, 0x01	; 1
    93d4:	fc 01       	movw	r30, r24
    93d6:	31 83       	std	Z+1, r19	; 0x01
    93d8:	20 83       	st	Z, r18
    93da:	ce 01       	movw	r24, r28
    93dc:	8b 5d       	subi	r24, 0xDB	; 219
    93de:	9b 4f       	sbci	r25, 0xFB	; 251
    93e0:	fc 01       	movw	r30, r24
    93e2:	80 81       	ld	r24, Z
    93e4:	91 81       	ldd	r25, Z+1	; 0x01
    93e6:	01 97       	sbiw	r24, 0x01	; 1
    93e8:	f1 f7       	brne	.-4      	; 0x93e6 <__stack+0x71e7>
    93ea:	9e 01       	movw	r18, r28
    93ec:	2b 5d       	subi	r18, 0xDB	; 219
    93ee:	3b 4f       	sbci	r19, 0xFB	; 251
    93f0:	f9 01       	movw	r30, r18
    93f2:	91 83       	std	Z+1, r25	; 0x01
    93f4:	80 83       	st	Z, r24
    93f6:	ce 01       	movw	r24, r28
    93f8:	8d 5d       	subi	r24, 0xDD	; 221
    93fa:	9b 4f       	sbci	r25, 0xFB	; 251
    93fc:	9e 01       	movw	r18, r28
    93fe:	2d 5d       	subi	r18, 0xDD	; 221
    9400:	3b 4f       	sbci	r19, 0xFB	; 251
    9402:	f9 01       	movw	r30, r18
    9404:	20 81       	ld	r18, Z
    9406:	31 81       	ldd	r19, Z+1	; 0x01
    9408:	21 50       	subi	r18, 0x01	; 1
    940a:	31 09       	sbc	r19, r1
    940c:	fc 01       	movw	r30, r24
    940e:	31 83       	std	Z+1, r19	; 0x01
    9410:	20 83       	st	Z, r18
    9412:	ce 01       	movw	r24, r28
    9414:	8d 5d       	subi	r24, 0xDD	; 221
    9416:	9b 4f       	sbci	r25, 0xFB	; 251
    9418:	fc 01       	movw	r30, r24
    941a:	80 81       	ld	r24, Z
    941c:	91 81       	ldd	r25, Z+1	; 0x01
    941e:	89 2b       	or	r24, r25
    9420:	a1 f6       	brne	.-88     	; 0x93ca <__stack+0x71cb>
    9422:	2b c0       	rjmp	.+86     	; 0x947a <__stack+0x727b>
    9424:	8e 01       	movw	r16, r28
    9426:	0d 5d       	subi	r16, 0xDD	; 221
    9428:	1b 4f       	sbci	r17, 0xFB	; 251
    942a:	ce 01       	movw	r24, r28
    942c:	81 5e       	subi	r24, 0xE1	; 225
    942e:	9b 4f       	sbci	r25, 0xFB	; 251
    9430:	fc 01       	movw	r30, r24
    9432:	60 81       	ld	r22, Z
    9434:	71 81       	ldd	r23, Z+1	; 0x01
    9436:	82 81       	ldd	r24, Z+2	; 0x02
    9438:	93 81       	ldd	r25, Z+3	; 0x03
    943a:	ca d5       	rcall	.+2964   	; 0x9fd0 <__fixunssfsi>
    943c:	dc 01       	movw	r26, r24
    943e:	cb 01       	movw	r24, r22
    9440:	f8 01       	movw	r30, r16
    9442:	91 83       	std	Z+1, r25	; 0x01
    9444:	80 83       	st	Z, r24
    9446:	ce 01       	movw	r24, r28
    9448:	89 5d       	subi	r24, 0xD9	; 217
    944a:	9b 4f       	sbci	r25, 0xFB	; 251
    944c:	9e 01       	movw	r18, r28
    944e:	2d 5d       	subi	r18, 0xDD	; 221
    9450:	3b 4f       	sbci	r19, 0xFB	; 251
    9452:	f9 01       	movw	r30, r18
    9454:	20 81       	ld	r18, Z
    9456:	31 81       	ldd	r19, Z+1	; 0x01
    9458:	fc 01       	movw	r30, r24
    945a:	31 83       	std	Z+1, r19	; 0x01
    945c:	20 83       	st	Z, r18
    945e:	ce 01       	movw	r24, r28
    9460:	89 5d       	subi	r24, 0xD9	; 217
    9462:	9b 4f       	sbci	r25, 0xFB	; 251
    9464:	fc 01       	movw	r30, r24
    9466:	80 81       	ld	r24, Z
    9468:	91 81       	ldd	r25, Z+1	; 0x01
    946a:	01 97       	sbiw	r24, 0x01	; 1
    946c:	f1 f7       	brne	.-4      	; 0x946a <__stack+0x726b>
    946e:	9e 01       	movw	r18, r28
    9470:	29 5d       	subi	r18, 0xD9	; 217
    9472:	3b 4f       	sbci	r19, 0xFB	; 251
    9474:	f9 01       	movw	r30, r18
    9476:	91 83       	std	Z+1, r25	; 0x01
    9478:	80 83       	st	Z, r24
    947a:	0e 94 aa 0e 	call	0x1d54	; 0x1d54 <stop>
    947e:	0e 94 1d 0d 	call	0x1a3a	; 0x1a3a <buzzer_off>
    9482:	9e 01       	movw	r18, r28
    9484:	25 5d       	subi	r18, 0xD5	; 213
    9486:	3e 4f       	sbci	r19, 0xFE	; 254
    9488:	80 e0       	ldi	r24, 0x00	; 0
    948a:	90 e0       	ldi	r25, 0x00	; 0
    948c:	aa ef       	ldi	r26, 0xFA	; 250
    948e:	b3 e4       	ldi	r27, 0x43	; 67
    9490:	f9 01       	movw	r30, r18
    9492:	80 83       	st	Z, r24
    9494:	91 83       	std	Z+1, r25	; 0x01
    9496:	a2 83       	std	Z+2, r26	; 0x02
    9498:	b3 83       	std	Z+3, r27	; 0x03
    949a:	8e 01       	movw	r16, r28
    949c:	0b 5e       	subi	r16, 0xEB	; 235
    949e:	1b 4f       	sbci	r17, 0xFB	; 251
    94a0:	ce 01       	movw	r24, r28
    94a2:	85 5d       	subi	r24, 0xD5	; 213
    94a4:	9e 4f       	sbci	r25, 0xFE	; 254
    94a6:	26 e6       	ldi	r18, 0x66	; 102
    94a8:	36 e6       	ldi	r19, 0x66	; 102
    94aa:	46 e6       	ldi	r20, 0x66	; 102
    94ac:	55 e4       	ldi	r21, 0x45	; 69
    94ae:	fc 01       	movw	r30, r24
    94b0:	60 81       	ld	r22, Z
    94b2:	71 81       	ldd	r23, Z+1	; 0x01
    94b4:	82 81       	ldd	r24, Z+2	; 0x02
    94b6:	93 81       	ldd	r25, Z+3	; 0x03
    94b8:	08 d6       	rcall	.+3088   	; 0xa0ca <__mulsf3>
    94ba:	dc 01       	movw	r26, r24
    94bc:	cb 01       	movw	r24, r22
    94be:	f8 01       	movw	r30, r16
    94c0:	80 83       	st	Z, r24
    94c2:	91 83       	std	Z+1, r25	; 0x01
    94c4:	a2 83       	std	Z+2, r26	; 0x02
    94c6:	b3 83       	std	Z+3, r27	; 0x03
    94c8:	ce 01       	movw	r24, r28
    94ca:	8b 5e       	subi	r24, 0xEB	; 235
    94cc:	9b 4f       	sbci	r25, 0xFB	; 251
    94ce:	20 e0       	ldi	r18, 0x00	; 0
    94d0:	30 e0       	ldi	r19, 0x00	; 0
    94d2:	40 e8       	ldi	r20, 0x80	; 128
    94d4:	5f e3       	ldi	r21, 0x3F	; 63
    94d6:	fc 01       	movw	r30, r24
    94d8:	60 81       	ld	r22, Z
    94da:	71 81       	ldd	r23, Z+1	; 0x01
    94dc:	82 81       	ldd	r24, Z+2	; 0x02
    94de:	93 81       	ldd	r25, Z+3	; 0x03
    94e0:	73 d5       	rcall	.+2790   	; 0x9fc8 <__cmpsf2>
    94e2:	88 23       	and	r24, r24
    94e4:	4c f4       	brge	.+18     	; 0x94f8 <__stack+0x72f9>
    94e6:	ce 01       	movw	r24, r28
    94e8:	87 5e       	subi	r24, 0xE7	; 231
    94ea:	9b 4f       	sbci	r25, 0xFB	; 251
    94ec:	21 e0       	ldi	r18, 0x01	; 1
    94ee:	30 e0       	ldi	r19, 0x00	; 0
    94f0:	fc 01       	movw	r30, r24
    94f2:	31 83       	std	Z+1, r19	; 0x01
    94f4:	20 83       	st	Z, r18
    94f6:	69 c0       	rjmp	.+210    	; 0x95ca <__stack+0x73cb>
    94f8:	ce 01       	movw	r24, r28
    94fa:	8b 5e       	subi	r24, 0xEB	; 235
    94fc:	9b 4f       	sbci	r25, 0xFB	; 251
    94fe:	20 e0       	ldi	r18, 0x00	; 0
    9500:	3f ef       	ldi	r19, 0xFF	; 255
    9502:	4f e7       	ldi	r20, 0x7F	; 127
    9504:	57 e4       	ldi	r21, 0x47	; 71
    9506:	fc 01       	movw	r30, r24
    9508:	60 81       	ld	r22, Z
    950a:	71 81       	ldd	r23, Z+1	; 0x01
    950c:	82 81       	ldd	r24, Z+2	; 0x02
    950e:	93 81       	ldd	r25, Z+3	; 0x03
    9510:	d8 d5       	rcall	.+2992   	; 0xa0c2 <__gesf2>
    9512:	18 16       	cp	r1, r24
    9514:	0c f0       	brlt	.+2      	; 0x9518 <__stack+0x7319>
    9516:	48 c0       	rjmp	.+144    	; 0x95a8 <__stack+0x73a9>
    9518:	ce 01       	movw	r24, r28
    951a:	85 5d       	subi	r24, 0xD5	; 213
    951c:	9e 4f       	sbci	r25, 0xFE	; 254
    951e:	20 e0       	ldi	r18, 0x00	; 0
    9520:	30 e0       	ldi	r19, 0x00	; 0
    9522:	40 e2       	ldi	r20, 0x20	; 32
    9524:	51 e4       	ldi	r21, 0x41	; 65
    9526:	fc 01       	movw	r30, r24
    9528:	60 81       	ld	r22, Z
    952a:	71 81       	ldd	r23, Z+1	; 0x01
    952c:	82 81       	ldd	r24, Z+2	; 0x02
    952e:	93 81       	ldd	r25, Z+3	; 0x03
    9530:	cc d5       	rcall	.+2968   	; 0xa0ca <__mulsf3>
    9532:	dc 01       	movw	r26, r24
    9534:	cb 01       	movw	r24, r22
    9536:	8e 01       	movw	r16, r28
    9538:	07 5e       	subi	r16, 0xE7	; 231
    953a:	1b 4f       	sbci	r17, 0xFB	; 251
    953c:	bc 01       	movw	r22, r24
    953e:	cd 01       	movw	r24, r26
    9540:	47 d5       	rcall	.+2702   	; 0x9fd0 <__fixunssfsi>
    9542:	dc 01       	movw	r26, r24
    9544:	cb 01       	movw	r24, r22
    9546:	f8 01       	movw	r30, r16
    9548:	91 83       	std	Z+1, r25	; 0x01
    954a:	80 83       	st	Z, r24
    954c:	24 c0       	rjmp	.+72     	; 0x9596 <__stack+0x7397>
    954e:	ce 01       	movw	r24, r28
    9550:	85 5e       	subi	r24, 0xE5	; 229
    9552:	9b 4f       	sbci	r25, 0xFB	; 251
    9554:	20 e7       	ldi	r18, 0x70	; 112
    9556:	31 e0       	ldi	r19, 0x01	; 1
    9558:	fc 01       	movw	r30, r24
    955a:	31 83       	std	Z+1, r19	; 0x01
    955c:	20 83       	st	Z, r18
    955e:	ce 01       	movw	r24, r28
    9560:	85 5e       	subi	r24, 0xE5	; 229
    9562:	9b 4f       	sbci	r25, 0xFB	; 251
    9564:	fc 01       	movw	r30, r24
    9566:	80 81       	ld	r24, Z
    9568:	91 81       	ldd	r25, Z+1	; 0x01
    956a:	01 97       	sbiw	r24, 0x01	; 1
    956c:	f1 f7       	brne	.-4      	; 0x956a <__stack+0x736b>
    956e:	9e 01       	movw	r18, r28
    9570:	25 5e       	subi	r18, 0xE5	; 229
    9572:	3b 4f       	sbci	r19, 0xFB	; 251
    9574:	f9 01       	movw	r30, r18
    9576:	91 83       	std	Z+1, r25	; 0x01
    9578:	80 83       	st	Z, r24
    957a:	ce 01       	movw	r24, r28
    957c:	87 5e       	subi	r24, 0xE7	; 231
    957e:	9b 4f       	sbci	r25, 0xFB	; 251
    9580:	9e 01       	movw	r18, r28
    9582:	27 5e       	subi	r18, 0xE7	; 231
    9584:	3b 4f       	sbci	r19, 0xFB	; 251
    9586:	f9 01       	movw	r30, r18
    9588:	20 81       	ld	r18, Z
    958a:	31 81       	ldd	r19, Z+1	; 0x01
    958c:	21 50       	subi	r18, 0x01	; 1
    958e:	31 09       	sbc	r19, r1
    9590:	fc 01       	movw	r30, r24
    9592:	31 83       	std	Z+1, r19	; 0x01
    9594:	20 83       	st	Z, r18
    9596:	ce 01       	movw	r24, r28
    9598:	87 5e       	subi	r24, 0xE7	; 231
    959a:	9b 4f       	sbci	r25, 0xFB	; 251
    959c:	fc 01       	movw	r30, r24
    959e:	80 81       	ld	r24, Z
    95a0:	91 81       	ldd	r25, Z+1	; 0x01
    95a2:	89 2b       	or	r24, r25
    95a4:	a1 f6       	brne	.-88     	; 0x954e <__stack+0x734f>
    95a6:	2b c0       	rjmp	.+86     	; 0x95fe <__stack+0x73ff>
    95a8:	8e 01       	movw	r16, r28
    95aa:	07 5e       	subi	r16, 0xE7	; 231
    95ac:	1b 4f       	sbci	r17, 0xFB	; 251
    95ae:	ce 01       	movw	r24, r28
    95b0:	8b 5e       	subi	r24, 0xEB	; 235
    95b2:	9b 4f       	sbci	r25, 0xFB	; 251
    95b4:	fc 01       	movw	r30, r24
    95b6:	60 81       	ld	r22, Z
    95b8:	71 81       	ldd	r23, Z+1	; 0x01
    95ba:	82 81       	ldd	r24, Z+2	; 0x02
    95bc:	93 81       	ldd	r25, Z+3	; 0x03
    95be:	08 d5       	rcall	.+2576   	; 0x9fd0 <__fixunssfsi>
    95c0:	dc 01       	movw	r26, r24
    95c2:	cb 01       	movw	r24, r22
    95c4:	f8 01       	movw	r30, r16
    95c6:	91 83       	std	Z+1, r25	; 0x01
    95c8:	80 83       	st	Z, r24
    95ca:	ce 01       	movw	r24, r28
    95cc:	83 5e       	subi	r24, 0xE3	; 227
    95ce:	9b 4f       	sbci	r25, 0xFB	; 251
    95d0:	9e 01       	movw	r18, r28
    95d2:	27 5e       	subi	r18, 0xE7	; 231
    95d4:	3b 4f       	sbci	r19, 0xFB	; 251
    95d6:	f9 01       	movw	r30, r18
    95d8:	20 81       	ld	r18, Z
    95da:	31 81       	ldd	r19, Z+1	; 0x01
    95dc:	fc 01       	movw	r30, r24
    95de:	31 83       	std	Z+1, r19	; 0x01
    95e0:	20 83       	st	Z, r18
    95e2:	ce 01       	movw	r24, r28
    95e4:	83 5e       	subi	r24, 0xE3	; 227
    95e6:	9b 4f       	sbci	r25, 0xFB	; 251
    95e8:	fc 01       	movw	r30, r24
    95ea:	80 81       	ld	r24, Z
    95ec:	91 81       	ldd	r25, Z+1	; 0x01
    95ee:	01 97       	sbiw	r24, 0x01	; 1
    95f0:	f1 f7       	brne	.-4      	; 0x95ee <__stack+0x73ef>
    95f2:	9e 01       	movw	r18, r28
    95f4:	23 5e       	subi	r18, 0xE3	; 227
    95f6:	3b 4f       	sbci	r19, 0xFB	; 251
    95f8:	f9 01       	movw	r30, r18
    95fa:	91 83       	std	Z+1, r25	; 0x01
    95fc:	80 83       	st	Z, r24
    95fe:	0e 94 0c 0d 	call	0x1a18	; 0x1a18 <buzzer_on>
    9602:	0e 94 96 0e 	call	0x1d2c	; 0x1d2c <left>
    9606:	9e 01       	movw	r18, r28
    9608:	21 5d       	subi	r18, 0xD1	; 209
    960a:	3e 4f       	sbci	r19, 0xFE	; 254
    960c:	80 e0       	ldi	r24, 0x00	; 0
    960e:	90 e0       	ldi	r25, 0x00	; 0
    9610:	a9 eb       	ldi	r26, 0xB9	; 185
    9612:	b4 e4       	ldi	r27, 0x44	; 68
    9614:	f9 01       	movw	r30, r18
    9616:	80 83       	st	Z, r24
    9618:	91 83       	std	Z+1, r25	; 0x01
    961a:	a2 83       	std	Z+2, r26	; 0x02
    961c:	b3 83       	std	Z+3, r27	; 0x03
    961e:	8e 01       	movw	r16, r28
    9620:	05 5f       	subi	r16, 0xF5	; 245
    9622:	1b 4f       	sbci	r17, 0xFB	; 251
    9624:	ce 01       	movw	r24, r28
    9626:	81 5d       	subi	r24, 0xD1	; 209
    9628:	9e 4f       	sbci	r25, 0xFE	; 254
    962a:	26 e6       	ldi	r18, 0x66	; 102
    962c:	36 e6       	ldi	r19, 0x66	; 102
    962e:	46 e6       	ldi	r20, 0x66	; 102
    9630:	55 e4       	ldi	r21, 0x45	; 69
    9632:	fc 01       	movw	r30, r24
    9634:	60 81       	ld	r22, Z
    9636:	71 81       	ldd	r23, Z+1	; 0x01
    9638:	82 81       	ldd	r24, Z+2	; 0x02
    963a:	93 81       	ldd	r25, Z+3	; 0x03
    963c:	46 d5       	rcall	.+2700   	; 0xa0ca <__mulsf3>
    963e:	dc 01       	movw	r26, r24
    9640:	cb 01       	movw	r24, r22
    9642:	f8 01       	movw	r30, r16
    9644:	80 83       	st	Z, r24
    9646:	91 83       	std	Z+1, r25	; 0x01
    9648:	a2 83       	std	Z+2, r26	; 0x02
    964a:	b3 83       	std	Z+3, r27	; 0x03
    964c:	ce 01       	movw	r24, r28
    964e:	85 5f       	subi	r24, 0xF5	; 245
    9650:	9b 4f       	sbci	r25, 0xFB	; 251
    9652:	20 e0       	ldi	r18, 0x00	; 0
    9654:	30 e0       	ldi	r19, 0x00	; 0
    9656:	40 e8       	ldi	r20, 0x80	; 128
    9658:	5f e3       	ldi	r21, 0x3F	; 63
    965a:	fc 01       	movw	r30, r24
    965c:	60 81       	ld	r22, Z
    965e:	71 81       	ldd	r23, Z+1	; 0x01
    9660:	82 81       	ldd	r24, Z+2	; 0x02
    9662:	93 81       	ldd	r25, Z+3	; 0x03
    9664:	b1 d4       	rcall	.+2402   	; 0x9fc8 <__cmpsf2>
    9666:	88 23       	and	r24, r24
    9668:	4c f4       	brge	.+18     	; 0x967c <__stack+0x747d>
    966a:	ce 01       	movw	r24, r28
    966c:	81 5f       	subi	r24, 0xF1	; 241
    966e:	9b 4f       	sbci	r25, 0xFB	; 251
    9670:	21 e0       	ldi	r18, 0x01	; 1
    9672:	30 e0       	ldi	r19, 0x00	; 0
    9674:	fc 01       	movw	r30, r24
    9676:	31 83       	std	Z+1, r19	; 0x01
    9678:	20 83       	st	Z, r18
    967a:	69 c0       	rjmp	.+210    	; 0x974e <__stack+0x754f>
    967c:	ce 01       	movw	r24, r28
    967e:	85 5f       	subi	r24, 0xF5	; 245
    9680:	9b 4f       	sbci	r25, 0xFB	; 251
    9682:	20 e0       	ldi	r18, 0x00	; 0
    9684:	3f ef       	ldi	r19, 0xFF	; 255
    9686:	4f e7       	ldi	r20, 0x7F	; 127
    9688:	57 e4       	ldi	r21, 0x47	; 71
    968a:	fc 01       	movw	r30, r24
    968c:	60 81       	ld	r22, Z
    968e:	71 81       	ldd	r23, Z+1	; 0x01
    9690:	82 81       	ldd	r24, Z+2	; 0x02
    9692:	93 81       	ldd	r25, Z+3	; 0x03
    9694:	16 d5       	rcall	.+2604   	; 0xa0c2 <__gesf2>
    9696:	18 16       	cp	r1, r24
    9698:	0c f0       	brlt	.+2      	; 0x969c <__stack+0x749d>
    969a:	48 c0       	rjmp	.+144    	; 0x972c <__stack+0x752d>
    969c:	ce 01       	movw	r24, r28
    969e:	81 5d       	subi	r24, 0xD1	; 209
    96a0:	9e 4f       	sbci	r25, 0xFE	; 254
    96a2:	20 e0       	ldi	r18, 0x00	; 0
    96a4:	30 e0       	ldi	r19, 0x00	; 0
    96a6:	40 e2       	ldi	r20, 0x20	; 32
    96a8:	51 e4       	ldi	r21, 0x41	; 65
    96aa:	fc 01       	movw	r30, r24
    96ac:	60 81       	ld	r22, Z
    96ae:	71 81       	ldd	r23, Z+1	; 0x01
    96b0:	82 81       	ldd	r24, Z+2	; 0x02
    96b2:	93 81       	ldd	r25, Z+3	; 0x03
    96b4:	0a d5       	rcall	.+2580   	; 0xa0ca <__mulsf3>
    96b6:	dc 01       	movw	r26, r24
    96b8:	cb 01       	movw	r24, r22
    96ba:	8e 01       	movw	r16, r28
    96bc:	01 5f       	subi	r16, 0xF1	; 241
    96be:	1b 4f       	sbci	r17, 0xFB	; 251
    96c0:	bc 01       	movw	r22, r24
    96c2:	cd 01       	movw	r24, r26
    96c4:	85 d4       	rcall	.+2314   	; 0x9fd0 <__fixunssfsi>
    96c6:	dc 01       	movw	r26, r24
    96c8:	cb 01       	movw	r24, r22
    96ca:	f8 01       	movw	r30, r16
    96cc:	91 83       	std	Z+1, r25	; 0x01
    96ce:	80 83       	st	Z, r24
    96d0:	24 c0       	rjmp	.+72     	; 0x971a <__stack+0x751b>
    96d2:	ce 01       	movw	r24, r28
    96d4:	8f 5e       	subi	r24, 0xEF	; 239
    96d6:	9b 4f       	sbci	r25, 0xFB	; 251
    96d8:	20 e7       	ldi	r18, 0x70	; 112
    96da:	31 e0       	ldi	r19, 0x01	; 1
    96dc:	fc 01       	movw	r30, r24
    96de:	31 83       	std	Z+1, r19	; 0x01
    96e0:	20 83       	st	Z, r18
    96e2:	ce 01       	movw	r24, r28
    96e4:	8f 5e       	subi	r24, 0xEF	; 239
    96e6:	9b 4f       	sbci	r25, 0xFB	; 251
    96e8:	fc 01       	movw	r30, r24
    96ea:	80 81       	ld	r24, Z
    96ec:	91 81       	ldd	r25, Z+1	; 0x01
    96ee:	01 97       	sbiw	r24, 0x01	; 1
    96f0:	f1 f7       	brne	.-4      	; 0x96ee <__stack+0x74ef>
    96f2:	9e 01       	movw	r18, r28
    96f4:	2f 5e       	subi	r18, 0xEF	; 239
    96f6:	3b 4f       	sbci	r19, 0xFB	; 251
    96f8:	f9 01       	movw	r30, r18
    96fa:	91 83       	std	Z+1, r25	; 0x01
    96fc:	80 83       	st	Z, r24
    96fe:	ce 01       	movw	r24, r28
    9700:	81 5f       	subi	r24, 0xF1	; 241
    9702:	9b 4f       	sbci	r25, 0xFB	; 251
    9704:	9e 01       	movw	r18, r28
    9706:	21 5f       	subi	r18, 0xF1	; 241
    9708:	3b 4f       	sbci	r19, 0xFB	; 251
    970a:	f9 01       	movw	r30, r18
    970c:	20 81       	ld	r18, Z
    970e:	31 81       	ldd	r19, Z+1	; 0x01
    9710:	21 50       	subi	r18, 0x01	; 1
    9712:	31 09       	sbc	r19, r1
    9714:	fc 01       	movw	r30, r24
    9716:	31 83       	std	Z+1, r19	; 0x01
    9718:	20 83       	st	Z, r18
    971a:	ce 01       	movw	r24, r28
    971c:	81 5f       	subi	r24, 0xF1	; 241
    971e:	9b 4f       	sbci	r25, 0xFB	; 251
    9720:	fc 01       	movw	r30, r24
    9722:	80 81       	ld	r24, Z
    9724:	91 81       	ldd	r25, Z+1	; 0x01
    9726:	89 2b       	or	r24, r25
    9728:	a1 f6       	brne	.-88     	; 0x96d2 <__stack+0x74d3>
    972a:	2b c0       	rjmp	.+86     	; 0x9782 <__stack+0x7583>
    972c:	8e 01       	movw	r16, r28
    972e:	01 5f       	subi	r16, 0xF1	; 241
    9730:	1b 4f       	sbci	r17, 0xFB	; 251
    9732:	ce 01       	movw	r24, r28
    9734:	85 5f       	subi	r24, 0xF5	; 245
    9736:	9b 4f       	sbci	r25, 0xFB	; 251
    9738:	fc 01       	movw	r30, r24
    973a:	60 81       	ld	r22, Z
    973c:	71 81       	ldd	r23, Z+1	; 0x01
    973e:	82 81       	ldd	r24, Z+2	; 0x02
    9740:	93 81       	ldd	r25, Z+3	; 0x03
    9742:	46 d4       	rcall	.+2188   	; 0x9fd0 <__fixunssfsi>
    9744:	dc 01       	movw	r26, r24
    9746:	cb 01       	movw	r24, r22
    9748:	f8 01       	movw	r30, r16
    974a:	91 83       	std	Z+1, r25	; 0x01
    974c:	80 83       	st	Z, r24
    974e:	ce 01       	movw	r24, r28
    9750:	8d 5e       	subi	r24, 0xED	; 237
    9752:	9b 4f       	sbci	r25, 0xFB	; 251
    9754:	9e 01       	movw	r18, r28
    9756:	21 5f       	subi	r18, 0xF1	; 241
    9758:	3b 4f       	sbci	r19, 0xFB	; 251
    975a:	f9 01       	movw	r30, r18
    975c:	20 81       	ld	r18, Z
    975e:	31 81       	ldd	r19, Z+1	; 0x01
    9760:	fc 01       	movw	r30, r24
    9762:	31 83       	std	Z+1, r19	; 0x01
    9764:	20 83       	st	Z, r18
    9766:	ce 01       	movw	r24, r28
    9768:	8d 5e       	subi	r24, 0xED	; 237
    976a:	9b 4f       	sbci	r25, 0xFB	; 251
    976c:	fc 01       	movw	r30, r24
    976e:	80 81       	ld	r24, Z
    9770:	91 81       	ldd	r25, Z+1	; 0x01
    9772:	01 97       	sbiw	r24, 0x01	; 1
    9774:	f1 f7       	brne	.-4      	; 0x9772 <__stack+0x7573>
    9776:	9e 01       	movw	r18, r28
    9778:	2d 5e       	subi	r18, 0xED	; 237
    977a:	3b 4f       	sbci	r19, 0xFB	; 251
    977c:	f9 01       	movw	r30, r18
    977e:	91 83       	std	Z+1, r25	; 0x01
    9780:	80 83       	st	Z, r24
    9782:	0e 94 aa 0e 	call	0x1d54	; 0x1d54 <stop>
    9786:	0e 94 1d 0d 	call	0x1a3a	; 0x1a3a <buzzer_off>
    978a:	9e 01       	movw	r18, r28
    978c:	2d 5c       	subi	r18, 0xCD	; 205
    978e:	3e 4f       	sbci	r19, 0xFE	; 254
    9790:	80 e0       	ldi	r24, 0x00	; 0
    9792:	90 e0       	ldi	r25, 0x00	; 0
    9794:	aa ef       	ldi	r26, 0xFA	; 250
    9796:	b3 e4       	ldi	r27, 0x43	; 67
    9798:	f9 01       	movw	r30, r18
    979a:	80 83       	st	Z, r24
    979c:	91 83       	std	Z+1, r25	; 0x01
    979e:	a2 83       	std	Z+2, r26	; 0x02
    97a0:	b3 83       	std	Z+3, r27	; 0x03
    97a2:	8e 01       	movw	r16, r28
    97a4:	0f 5f       	subi	r16, 0xFF	; 255
    97a6:	1b 4f       	sbci	r17, 0xFB	; 251
    97a8:	ce 01       	movw	r24, r28
    97aa:	8d 5c       	subi	r24, 0xCD	; 205
    97ac:	9e 4f       	sbci	r25, 0xFE	; 254
    97ae:	26 e6       	ldi	r18, 0x66	; 102
    97b0:	36 e6       	ldi	r19, 0x66	; 102
    97b2:	46 e6       	ldi	r20, 0x66	; 102
    97b4:	55 e4       	ldi	r21, 0x45	; 69
    97b6:	fc 01       	movw	r30, r24
    97b8:	60 81       	ld	r22, Z
    97ba:	71 81       	ldd	r23, Z+1	; 0x01
    97bc:	82 81       	ldd	r24, Z+2	; 0x02
    97be:	93 81       	ldd	r25, Z+3	; 0x03
    97c0:	84 d4       	rcall	.+2312   	; 0xa0ca <__mulsf3>
    97c2:	dc 01       	movw	r26, r24
    97c4:	cb 01       	movw	r24, r22
    97c6:	f8 01       	movw	r30, r16
    97c8:	80 83       	st	Z, r24
    97ca:	91 83       	std	Z+1, r25	; 0x01
    97cc:	a2 83       	std	Z+2, r26	; 0x02
    97ce:	b3 83       	std	Z+3, r27	; 0x03
    97d0:	ce 01       	movw	r24, r28
    97d2:	8f 5f       	subi	r24, 0xFF	; 255
    97d4:	9b 4f       	sbci	r25, 0xFB	; 251
    97d6:	20 e0       	ldi	r18, 0x00	; 0
    97d8:	30 e0       	ldi	r19, 0x00	; 0
    97da:	40 e8       	ldi	r20, 0x80	; 128
    97dc:	5f e3       	ldi	r21, 0x3F	; 63
    97de:	fc 01       	movw	r30, r24
    97e0:	60 81       	ld	r22, Z
    97e2:	71 81       	ldd	r23, Z+1	; 0x01
    97e4:	82 81       	ldd	r24, Z+2	; 0x02
    97e6:	93 81       	ldd	r25, Z+3	; 0x03
    97e8:	ef d3       	rcall	.+2014   	; 0x9fc8 <__cmpsf2>
    97ea:	88 23       	and	r24, r24
    97ec:	4c f4       	brge	.+18     	; 0x9800 <__stack+0x7601>
    97ee:	ce 01       	movw	r24, r28
    97f0:	8b 5f       	subi	r24, 0xFB	; 251
    97f2:	9b 4f       	sbci	r25, 0xFB	; 251
    97f4:	21 e0       	ldi	r18, 0x01	; 1
    97f6:	30 e0       	ldi	r19, 0x00	; 0
    97f8:	fc 01       	movw	r30, r24
    97fa:	31 83       	std	Z+1, r19	; 0x01
    97fc:	20 83       	st	Z, r18
    97fe:	69 c0       	rjmp	.+210    	; 0x98d2 <__stack+0x76d3>
    9800:	ce 01       	movw	r24, r28
    9802:	8f 5f       	subi	r24, 0xFF	; 255
    9804:	9b 4f       	sbci	r25, 0xFB	; 251
    9806:	20 e0       	ldi	r18, 0x00	; 0
    9808:	3f ef       	ldi	r19, 0xFF	; 255
    980a:	4f e7       	ldi	r20, 0x7F	; 127
    980c:	57 e4       	ldi	r21, 0x47	; 71
    980e:	fc 01       	movw	r30, r24
    9810:	60 81       	ld	r22, Z
    9812:	71 81       	ldd	r23, Z+1	; 0x01
    9814:	82 81       	ldd	r24, Z+2	; 0x02
    9816:	93 81       	ldd	r25, Z+3	; 0x03
    9818:	54 d4       	rcall	.+2216   	; 0xa0c2 <__gesf2>
    981a:	18 16       	cp	r1, r24
    981c:	0c f0       	brlt	.+2      	; 0x9820 <__stack+0x7621>
    981e:	48 c0       	rjmp	.+144    	; 0x98b0 <__stack+0x76b1>
    9820:	ce 01       	movw	r24, r28
    9822:	8d 5c       	subi	r24, 0xCD	; 205
    9824:	9e 4f       	sbci	r25, 0xFE	; 254
    9826:	20 e0       	ldi	r18, 0x00	; 0
    9828:	30 e0       	ldi	r19, 0x00	; 0
    982a:	40 e2       	ldi	r20, 0x20	; 32
    982c:	51 e4       	ldi	r21, 0x41	; 65
    982e:	fc 01       	movw	r30, r24
    9830:	60 81       	ld	r22, Z
    9832:	71 81       	ldd	r23, Z+1	; 0x01
    9834:	82 81       	ldd	r24, Z+2	; 0x02
    9836:	93 81       	ldd	r25, Z+3	; 0x03
    9838:	48 d4       	rcall	.+2192   	; 0xa0ca <__mulsf3>
    983a:	dc 01       	movw	r26, r24
    983c:	cb 01       	movw	r24, r22
    983e:	8e 01       	movw	r16, r28
    9840:	0b 5f       	subi	r16, 0xFB	; 251
    9842:	1b 4f       	sbci	r17, 0xFB	; 251
    9844:	bc 01       	movw	r22, r24
    9846:	cd 01       	movw	r24, r26
    9848:	c3 d3       	rcall	.+1926   	; 0x9fd0 <__fixunssfsi>
    984a:	dc 01       	movw	r26, r24
    984c:	cb 01       	movw	r24, r22
    984e:	f8 01       	movw	r30, r16
    9850:	91 83       	std	Z+1, r25	; 0x01
    9852:	80 83       	st	Z, r24
    9854:	24 c0       	rjmp	.+72     	; 0x989e <__stack+0x769f>
    9856:	ce 01       	movw	r24, r28
    9858:	89 5f       	subi	r24, 0xF9	; 249
    985a:	9b 4f       	sbci	r25, 0xFB	; 251
    985c:	20 e7       	ldi	r18, 0x70	; 112
    985e:	31 e0       	ldi	r19, 0x01	; 1
    9860:	fc 01       	movw	r30, r24
    9862:	31 83       	std	Z+1, r19	; 0x01
    9864:	20 83       	st	Z, r18
    9866:	ce 01       	movw	r24, r28
    9868:	89 5f       	subi	r24, 0xF9	; 249
    986a:	9b 4f       	sbci	r25, 0xFB	; 251
    986c:	fc 01       	movw	r30, r24
    986e:	80 81       	ld	r24, Z
    9870:	91 81       	ldd	r25, Z+1	; 0x01
    9872:	01 97       	sbiw	r24, 0x01	; 1
    9874:	f1 f7       	brne	.-4      	; 0x9872 <__stack+0x7673>
    9876:	9e 01       	movw	r18, r28
    9878:	29 5f       	subi	r18, 0xF9	; 249
    987a:	3b 4f       	sbci	r19, 0xFB	; 251
    987c:	f9 01       	movw	r30, r18
    987e:	91 83       	std	Z+1, r25	; 0x01
    9880:	80 83       	st	Z, r24
    9882:	ce 01       	movw	r24, r28
    9884:	8b 5f       	subi	r24, 0xFB	; 251
    9886:	9b 4f       	sbci	r25, 0xFB	; 251
    9888:	9e 01       	movw	r18, r28
    988a:	2b 5f       	subi	r18, 0xFB	; 251
    988c:	3b 4f       	sbci	r19, 0xFB	; 251
    988e:	f9 01       	movw	r30, r18
    9890:	20 81       	ld	r18, Z
    9892:	31 81       	ldd	r19, Z+1	; 0x01
    9894:	21 50       	subi	r18, 0x01	; 1
    9896:	31 09       	sbc	r19, r1
    9898:	fc 01       	movw	r30, r24
    989a:	31 83       	std	Z+1, r19	; 0x01
    989c:	20 83       	st	Z, r18
    989e:	ce 01       	movw	r24, r28
    98a0:	8b 5f       	subi	r24, 0xFB	; 251
    98a2:	9b 4f       	sbci	r25, 0xFB	; 251
    98a4:	fc 01       	movw	r30, r24
    98a6:	80 81       	ld	r24, Z
    98a8:	91 81       	ldd	r25, Z+1	; 0x01
    98aa:	89 2b       	or	r24, r25
    98ac:	a1 f6       	brne	.-88     	; 0x9856 <__stack+0x7657>
    98ae:	2b c0       	rjmp	.+86     	; 0x9906 <__stack+0x7707>
    98b0:	8e 01       	movw	r16, r28
    98b2:	0b 5f       	subi	r16, 0xFB	; 251
    98b4:	1b 4f       	sbci	r17, 0xFB	; 251
    98b6:	ce 01       	movw	r24, r28
    98b8:	8f 5f       	subi	r24, 0xFF	; 255
    98ba:	9b 4f       	sbci	r25, 0xFB	; 251
    98bc:	fc 01       	movw	r30, r24
    98be:	60 81       	ld	r22, Z
    98c0:	71 81       	ldd	r23, Z+1	; 0x01
    98c2:	82 81       	ldd	r24, Z+2	; 0x02
    98c4:	93 81       	ldd	r25, Z+3	; 0x03
    98c6:	84 d3       	rcall	.+1800   	; 0x9fd0 <__fixunssfsi>
    98c8:	dc 01       	movw	r26, r24
    98ca:	cb 01       	movw	r24, r22
    98cc:	f8 01       	movw	r30, r16
    98ce:	91 83       	std	Z+1, r25	; 0x01
    98d0:	80 83       	st	Z, r24
    98d2:	ce 01       	movw	r24, r28
    98d4:	87 5f       	subi	r24, 0xF7	; 247
    98d6:	9b 4f       	sbci	r25, 0xFB	; 251
    98d8:	9e 01       	movw	r18, r28
    98da:	2b 5f       	subi	r18, 0xFB	; 251
    98dc:	3b 4f       	sbci	r19, 0xFB	; 251
    98de:	f9 01       	movw	r30, r18
    98e0:	20 81       	ld	r18, Z
    98e2:	31 81       	ldd	r19, Z+1	; 0x01
    98e4:	fc 01       	movw	r30, r24
    98e6:	31 83       	std	Z+1, r19	; 0x01
    98e8:	20 83       	st	Z, r18
    98ea:	ce 01       	movw	r24, r28
    98ec:	87 5f       	subi	r24, 0xF7	; 247
    98ee:	9b 4f       	sbci	r25, 0xFB	; 251
    98f0:	fc 01       	movw	r30, r24
    98f2:	80 81       	ld	r24, Z
    98f4:	91 81       	ldd	r25, Z+1	; 0x01
    98f6:	01 97       	sbiw	r24, 0x01	; 1
    98f8:	f1 f7       	brne	.-4      	; 0x98f6 <__stack+0x76f7>
    98fa:	9e 01       	movw	r18, r28
    98fc:	27 5f       	subi	r18, 0xF7	; 247
    98fe:	3b 4f       	sbci	r19, 0xFB	; 251
    9900:	f9 01       	movw	r30, r18
    9902:	91 83       	std	Z+1, r25	; 0x01
    9904:	80 83       	st	Z, r24
    9906:	0e 94 0c 0d 	call	0x1a18	; 0x1a18 <buzzer_on>
    990a:	0e 94 a0 0e 	call	0x1d40	; 0x1d40 <right>
    990e:	9e 01       	movw	r18, r28
    9910:	29 5c       	subi	r18, 0xC9	; 201
    9912:	3e 4f       	sbci	r19, 0xFE	; 254
    9914:	80 e0       	ldi	r24, 0x00	; 0
    9916:	90 e0       	ldi	r25, 0x00	; 0
    9918:	a9 e3       	ldi	r26, 0x39	; 57
    991a:	b4 e4       	ldi	r27, 0x44	; 68
    991c:	f9 01       	movw	r30, r18
    991e:	80 83       	st	Z, r24
    9920:	91 83       	std	Z+1, r25	; 0x01
    9922:	a2 83       	std	Z+2, r26	; 0x02
    9924:	b3 83       	std	Z+3, r27	; 0x03
    9926:	8e 01       	movw	r16, r28
    9928:	09 50       	subi	r16, 0x09	; 9
    992a:	1c 4f       	sbci	r17, 0xFC	; 252
    992c:	ce 01       	movw	r24, r28
    992e:	89 5c       	subi	r24, 0xC9	; 201
    9930:	9e 4f       	sbci	r25, 0xFE	; 254
    9932:	26 e6       	ldi	r18, 0x66	; 102
    9934:	36 e6       	ldi	r19, 0x66	; 102
    9936:	46 e6       	ldi	r20, 0x66	; 102
    9938:	55 e4       	ldi	r21, 0x45	; 69
    993a:	fc 01       	movw	r30, r24
    993c:	60 81       	ld	r22, Z
    993e:	71 81       	ldd	r23, Z+1	; 0x01
    9940:	82 81       	ldd	r24, Z+2	; 0x02
    9942:	93 81       	ldd	r25, Z+3	; 0x03
    9944:	c2 d3       	rcall	.+1924   	; 0xa0ca <__mulsf3>
    9946:	dc 01       	movw	r26, r24
    9948:	cb 01       	movw	r24, r22
    994a:	f8 01       	movw	r30, r16
    994c:	80 83       	st	Z, r24
    994e:	91 83       	std	Z+1, r25	; 0x01
    9950:	a2 83       	std	Z+2, r26	; 0x02
    9952:	b3 83       	std	Z+3, r27	; 0x03
    9954:	ce 01       	movw	r24, r28
    9956:	89 50       	subi	r24, 0x09	; 9
    9958:	9c 4f       	sbci	r25, 0xFC	; 252
    995a:	20 e0       	ldi	r18, 0x00	; 0
    995c:	30 e0       	ldi	r19, 0x00	; 0
    995e:	40 e8       	ldi	r20, 0x80	; 128
    9960:	5f e3       	ldi	r21, 0x3F	; 63
    9962:	fc 01       	movw	r30, r24
    9964:	60 81       	ld	r22, Z
    9966:	71 81       	ldd	r23, Z+1	; 0x01
    9968:	82 81       	ldd	r24, Z+2	; 0x02
    996a:	93 81       	ldd	r25, Z+3	; 0x03
    996c:	2d d3       	rcall	.+1626   	; 0x9fc8 <__cmpsf2>
    996e:	88 23       	and	r24, r24
    9970:	4c f4       	brge	.+18     	; 0x9984 <__stack+0x7785>
    9972:	ce 01       	movw	r24, r28
    9974:	85 50       	subi	r24, 0x05	; 5
    9976:	9c 4f       	sbci	r25, 0xFC	; 252
    9978:	21 e0       	ldi	r18, 0x01	; 1
    997a:	30 e0       	ldi	r19, 0x00	; 0
    997c:	fc 01       	movw	r30, r24
    997e:	31 83       	std	Z+1, r19	; 0x01
    9980:	20 83       	st	Z, r18
    9982:	69 c0       	rjmp	.+210    	; 0x9a56 <__stack+0x7857>
    9984:	ce 01       	movw	r24, r28
    9986:	89 50       	subi	r24, 0x09	; 9
    9988:	9c 4f       	sbci	r25, 0xFC	; 252
    998a:	20 e0       	ldi	r18, 0x00	; 0
    998c:	3f ef       	ldi	r19, 0xFF	; 255
    998e:	4f e7       	ldi	r20, 0x7F	; 127
    9990:	57 e4       	ldi	r21, 0x47	; 71
    9992:	fc 01       	movw	r30, r24
    9994:	60 81       	ld	r22, Z
    9996:	71 81       	ldd	r23, Z+1	; 0x01
    9998:	82 81       	ldd	r24, Z+2	; 0x02
    999a:	93 81       	ldd	r25, Z+3	; 0x03
    999c:	92 d3       	rcall	.+1828   	; 0xa0c2 <__gesf2>
    999e:	18 16       	cp	r1, r24
    99a0:	0c f0       	brlt	.+2      	; 0x99a4 <__stack+0x77a5>
    99a2:	48 c0       	rjmp	.+144    	; 0x9a34 <__stack+0x7835>
    99a4:	ce 01       	movw	r24, r28
    99a6:	89 5c       	subi	r24, 0xC9	; 201
    99a8:	9e 4f       	sbci	r25, 0xFE	; 254
    99aa:	20 e0       	ldi	r18, 0x00	; 0
    99ac:	30 e0       	ldi	r19, 0x00	; 0
    99ae:	40 e2       	ldi	r20, 0x20	; 32
    99b0:	51 e4       	ldi	r21, 0x41	; 65
    99b2:	fc 01       	movw	r30, r24
    99b4:	60 81       	ld	r22, Z
    99b6:	71 81       	ldd	r23, Z+1	; 0x01
    99b8:	82 81       	ldd	r24, Z+2	; 0x02
    99ba:	93 81       	ldd	r25, Z+3	; 0x03
    99bc:	86 d3       	rcall	.+1804   	; 0xa0ca <__mulsf3>
    99be:	dc 01       	movw	r26, r24
    99c0:	cb 01       	movw	r24, r22
    99c2:	8e 01       	movw	r16, r28
    99c4:	05 50       	subi	r16, 0x05	; 5
    99c6:	1c 4f       	sbci	r17, 0xFC	; 252
    99c8:	bc 01       	movw	r22, r24
    99ca:	cd 01       	movw	r24, r26
    99cc:	01 d3       	rcall	.+1538   	; 0x9fd0 <__fixunssfsi>
    99ce:	dc 01       	movw	r26, r24
    99d0:	cb 01       	movw	r24, r22
    99d2:	f8 01       	movw	r30, r16
    99d4:	91 83       	std	Z+1, r25	; 0x01
    99d6:	80 83       	st	Z, r24
    99d8:	24 c0       	rjmp	.+72     	; 0x9a22 <__stack+0x7823>
    99da:	ce 01       	movw	r24, r28
    99dc:	83 50       	subi	r24, 0x03	; 3
    99de:	9c 4f       	sbci	r25, 0xFC	; 252
    99e0:	20 e7       	ldi	r18, 0x70	; 112
    99e2:	31 e0       	ldi	r19, 0x01	; 1
    99e4:	fc 01       	movw	r30, r24
    99e6:	31 83       	std	Z+1, r19	; 0x01
    99e8:	20 83       	st	Z, r18
    99ea:	ce 01       	movw	r24, r28
    99ec:	83 50       	subi	r24, 0x03	; 3
    99ee:	9c 4f       	sbci	r25, 0xFC	; 252
    99f0:	fc 01       	movw	r30, r24
    99f2:	80 81       	ld	r24, Z
    99f4:	91 81       	ldd	r25, Z+1	; 0x01
    99f6:	01 97       	sbiw	r24, 0x01	; 1
    99f8:	f1 f7       	brne	.-4      	; 0x99f6 <__stack+0x77f7>
    99fa:	9e 01       	movw	r18, r28
    99fc:	23 50       	subi	r18, 0x03	; 3
    99fe:	3c 4f       	sbci	r19, 0xFC	; 252
    9a00:	f9 01       	movw	r30, r18
    9a02:	91 83       	std	Z+1, r25	; 0x01
    9a04:	80 83       	st	Z, r24
    9a06:	ce 01       	movw	r24, r28
    9a08:	85 50       	subi	r24, 0x05	; 5
    9a0a:	9c 4f       	sbci	r25, 0xFC	; 252
    9a0c:	9e 01       	movw	r18, r28
    9a0e:	25 50       	subi	r18, 0x05	; 5
    9a10:	3c 4f       	sbci	r19, 0xFC	; 252
    9a12:	f9 01       	movw	r30, r18
    9a14:	20 81       	ld	r18, Z
    9a16:	31 81       	ldd	r19, Z+1	; 0x01
    9a18:	21 50       	subi	r18, 0x01	; 1
    9a1a:	31 09       	sbc	r19, r1
    9a1c:	fc 01       	movw	r30, r24
    9a1e:	31 83       	std	Z+1, r19	; 0x01
    9a20:	20 83       	st	Z, r18
    9a22:	ce 01       	movw	r24, r28
    9a24:	85 50       	subi	r24, 0x05	; 5
    9a26:	9c 4f       	sbci	r25, 0xFC	; 252
    9a28:	fc 01       	movw	r30, r24
    9a2a:	80 81       	ld	r24, Z
    9a2c:	91 81       	ldd	r25, Z+1	; 0x01
    9a2e:	89 2b       	or	r24, r25
    9a30:	a1 f6       	brne	.-88     	; 0x99da <__stack+0x77db>
    9a32:	2b c0       	rjmp	.+86     	; 0x9a8a <__stack+0x788b>
    9a34:	8e 01       	movw	r16, r28
    9a36:	05 50       	subi	r16, 0x05	; 5
    9a38:	1c 4f       	sbci	r17, 0xFC	; 252
    9a3a:	ce 01       	movw	r24, r28
    9a3c:	89 50       	subi	r24, 0x09	; 9
    9a3e:	9c 4f       	sbci	r25, 0xFC	; 252
    9a40:	fc 01       	movw	r30, r24
    9a42:	60 81       	ld	r22, Z
    9a44:	71 81       	ldd	r23, Z+1	; 0x01
    9a46:	82 81       	ldd	r24, Z+2	; 0x02
    9a48:	93 81       	ldd	r25, Z+3	; 0x03
    9a4a:	c2 d2       	rcall	.+1412   	; 0x9fd0 <__fixunssfsi>
    9a4c:	dc 01       	movw	r26, r24
    9a4e:	cb 01       	movw	r24, r22
    9a50:	f8 01       	movw	r30, r16
    9a52:	91 83       	std	Z+1, r25	; 0x01
    9a54:	80 83       	st	Z, r24
    9a56:	ce 01       	movw	r24, r28
    9a58:	81 50       	subi	r24, 0x01	; 1
    9a5a:	9c 4f       	sbci	r25, 0xFC	; 252
    9a5c:	9e 01       	movw	r18, r28
    9a5e:	25 50       	subi	r18, 0x05	; 5
    9a60:	3c 4f       	sbci	r19, 0xFC	; 252
    9a62:	f9 01       	movw	r30, r18
    9a64:	20 81       	ld	r18, Z
    9a66:	31 81       	ldd	r19, Z+1	; 0x01
    9a68:	fc 01       	movw	r30, r24
    9a6a:	31 83       	std	Z+1, r19	; 0x01
    9a6c:	20 83       	st	Z, r18
    9a6e:	ce 01       	movw	r24, r28
    9a70:	81 50       	subi	r24, 0x01	; 1
    9a72:	9c 4f       	sbci	r25, 0xFC	; 252
    9a74:	fc 01       	movw	r30, r24
    9a76:	80 81       	ld	r24, Z
    9a78:	91 81       	ldd	r25, Z+1	; 0x01
    9a7a:	01 97       	sbiw	r24, 0x01	; 1
    9a7c:	f1 f7       	brne	.-4      	; 0x9a7a <__stack+0x787b>
    9a7e:	9e 01       	movw	r18, r28
    9a80:	21 50       	subi	r18, 0x01	; 1
    9a82:	3c 4f       	sbci	r19, 0xFC	; 252
    9a84:	f9 01       	movw	r30, r18
    9a86:	91 83       	std	Z+1, r25	; 0x01
    9a88:	80 83       	st	Z, r24
    9a8a:	0e 94 aa 0e 	call	0x1d54	; 0x1d54 <stop>
    9a8e:	0e 94 1d 0d 	call	0x1a3a	; 0x1a3a <buzzer_off>
    9a92:	9e 01       	movw	r18, r28
    9a94:	2d 5e       	subi	r18, 0xED	; 237
    9a96:	3e 4f       	sbci	r19, 0xFE	; 254
    9a98:	80 e0       	ldi	r24, 0x00	; 0
    9a9a:	90 e0       	ldi	r25, 0x00	; 0
    9a9c:	aa ef       	ldi	r26, 0xFA	; 250
    9a9e:	b3 e4       	ldi	r27, 0x43	; 67
    9aa0:	f9 01       	movw	r30, r18
    9aa2:	80 83       	st	Z, r24
    9aa4:	91 83       	std	Z+1, r25	; 0x01
    9aa6:	a2 83       	std	Z+2, r26	; 0x02
    9aa8:	b3 83       	std	Z+3, r27	; 0x03
    9aaa:	8e 01       	movw	r16, r28
    9aac:	03 51       	subi	r16, 0x13	; 19
    9aae:	1c 4f       	sbci	r17, 0xFC	; 252
    9ab0:	ce 01       	movw	r24, r28
    9ab2:	8d 5e       	subi	r24, 0xED	; 237
    9ab4:	9e 4f       	sbci	r25, 0xFE	; 254
    9ab6:	26 e6       	ldi	r18, 0x66	; 102
    9ab8:	36 e6       	ldi	r19, 0x66	; 102
    9aba:	46 e6       	ldi	r20, 0x66	; 102
    9abc:	55 e4       	ldi	r21, 0x45	; 69
    9abe:	fc 01       	movw	r30, r24
    9ac0:	60 81       	ld	r22, Z
    9ac2:	71 81       	ldd	r23, Z+1	; 0x01
    9ac4:	82 81       	ldd	r24, Z+2	; 0x02
    9ac6:	93 81       	ldd	r25, Z+3	; 0x03
    9ac8:	00 d3       	rcall	.+1536   	; 0xa0ca <__mulsf3>
    9aca:	dc 01       	movw	r26, r24
    9acc:	cb 01       	movw	r24, r22
    9ace:	f8 01       	movw	r30, r16
    9ad0:	80 83       	st	Z, r24
    9ad2:	91 83       	std	Z+1, r25	; 0x01
    9ad4:	a2 83       	std	Z+2, r26	; 0x02
    9ad6:	b3 83       	std	Z+3, r27	; 0x03
    9ad8:	ce 01       	movw	r24, r28
    9ada:	83 51       	subi	r24, 0x13	; 19
    9adc:	9c 4f       	sbci	r25, 0xFC	; 252
    9ade:	20 e0       	ldi	r18, 0x00	; 0
    9ae0:	30 e0       	ldi	r19, 0x00	; 0
    9ae2:	40 e8       	ldi	r20, 0x80	; 128
    9ae4:	5f e3       	ldi	r21, 0x3F	; 63
    9ae6:	fc 01       	movw	r30, r24
    9ae8:	60 81       	ld	r22, Z
    9aea:	71 81       	ldd	r23, Z+1	; 0x01
    9aec:	82 81       	ldd	r24, Z+2	; 0x02
    9aee:	93 81       	ldd	r25, Z+3	; 0x03
    9af0:	6b d2       	rcall	.+1238   	; 0x9fc8 <__cmpsf2>
    9af2:	88 23       	and	r24, r24
    9af4:	4c f4       	brge	.+18     	; 0x9b08 <__stack+0x7909>
    9af6:	ce 01       	movw	r24, r28
    9af8:	8f 50       	subi	r24, 0x0F	; 15
    9afa:	9c 4f       	sbci	r25, 0xFC	; 252
    9afc:	21 e0       	ldi	r18, 0x01	; 1
    9afe:	30 e0       	ldi	r19, 0x00	; 0
    9b00:	fc 01       	movw	r30, r24
    9b02:	31 83       	std	Z+1, r19	; 0x01
    9b04:	20 83       	st	Z, r18
    9b06:	69 c0       	rjmp	.+210    	; 0x9bda <__stack+0x79db>
    9b08:	ce 01       	movw	r24, r28
    9b0a:	83 51       	subi	r24, 0x13	; 19
    9b0c:	9c 4f       	sbci	r25, 0xFC	; 252
    9b0e:	20 e0       	ldi	r18, 0x00	; 0
    9b10:	3f ef       	ldi	r19, 0xFF	; 255
    9b12:	4f e7       	ldi	r20, 0x7F	; 127
    9b14:	57 e4       	ldi	r21, 0x47	; 71
    9b16:	fc 01       	movw	r30, r24
    9b18:	60 81       	ld	r22, Z
    9b1a:	71 81       	ldd	r23, Z+1	; 0x01
    9b1c:	82 81       	ldd	r24, Z+2	; 0x02
    9b1e:	93 81       	ldd	r25, Z+3	; 0x03
    9b20:	d0 d2       	rcall	.+1440   	; 0xa0c2 <__gesf2>
    9b22:	18 16       	cp	r1, r24
    9b24:	0c f0       	brlt	.+2      	; 0x9b28 <__stack+0x7929>
    9b26:	48 c0       	rjmp	.+144    	; 0x9bb8 <__stack+0x79b9>
    9b28:	ce 01       	movw	r24, r28
    9b2a:	8d 5e       	subi	r24, 0xED	; 237
    9b2c:	9e 4f       	sbci	r25, 0xFE	; 254
    9b2e:	20 e0       	ldi	r18, 0x00	; 0
    9b30:	30 e0       	ldi	r19, 0x00	; 0
    9b32:	40 e2       	ldi	r20, 0x20	; 32
    9b34:	51 e4       	ldi	r21, 0x41	; 65
    9b36:	fc 01       	movw	r30, r24
    9b38:	60 81       	ld	r22, Z
    9b3a:	71 81       	ldd	r23, Z+1	; 0x01
    9b3c:	82 81       	ldd	r24, Z+2	; 0x02
    9b3e:	93 81       	ldd	r25, Z+3	; 0x03
    9b40:	c4 d2       	rcall	.+1416   	; 0xa0ca <__mulsf3>
    9b42:	dc 01       	movw	r26, r24
    9b44:	cb 01       	movw	r24, r22
    9b46:	8e 01       	movw	r16, r28
    9b48:	0f 50       	subi	r16, 0x0F	; 15
    9b4a:	1c 4f       	sbci	r17, 0xFC	; 252
    9b4c:	bc 01       	movw	r22, r24
    9b4e:	cd 01       	movw	r24, r26
    9b50:	3f d2       	rcall	.+1150   	; 0x9fd0 <__fixunssfsi>
    9b52:	dc 01       	movw	r26, r24
    9b54:	cb 01       	movw	r24, r22
    9b56:	f8 01       	movw	r30, r16
    9b58:	91 83       	std	Z+1, r25	; 0x01
    9b5a:	80 83       	st	Z, r24
    9b5c:	24 c0       	rjmp	.+72     	; 0x9ba6 <__stack+0x79a7>
    9b5e:	ce 01       	movw	r24, r28
    9b60:	8d 50       	subi	r24, 0x0D	; 13
    9b62:	9c 4f       	sbci	r25, 0xFC	; 252
    9b64:	20 e7       	ldi	r18, 0x70	; 112
    9b66:	31 e0       	ldi	r19, 0x01	; 1
    9b68:	fc 01       	movw	r30, r24
    9b6a:	31 83       	std	Z+1, r19	; 0x01
    9b6c:	20 83       	st	Z, r18
    9b6e:	ce 01       	movw	r24, r28
    9b70:	8d 50       	subi	r24, 0x0D	; 13
    9b72:	9c 4f       	sbci	r25, 0xFC	; 252
    9b74:	fc 01       	movw	r30, r24
    9b76:	80 81       	ld	r24, Z
    9b78:	91 81       	ldd	r25, Z+1	; 0x01
    9b7a:	01 97       	sbiw	r24, 0x01	; 1
    9b7c:	f1 f7       	brne	.-4      	; 0x9b7a <__stack+0x797b>
    9b7e:	9e 01       	movw	r18, r28
    9b80:	2d 50       	subi	r18, 0x0D	; 13
    9b82:	3c 4f       	sbci	r19, 0xFC	; 252
    9b84:	f9 01       	movw	r30, r18
    9b86:	91 83       	std	Z+1, r25	; 0x01
    9b88:	80 83       	st	Z, r24
    9b8a:	ce 01       	movw	r24, r28
    9b8c:	8f 50       	subi	r24, 0x0F	; 15
    9b8e:	9c 4f       	sbci	r25, 0xFC	; 252
    9b90:	9e 01       	movw	r18, r28
    9b92:	2f 50       	subi	r18, 0x0F	; 15
    9b94:	3c 4f       	sbci	r19, 0xFC	; 252
    9b96:	f9 01       	movw	r30, r18
    9b98:	20 81       	ld	r18, Z
    9b9a:	31 81       	ldd	r19, Z+1	; 0x01
    9b9c:	21 50       	subi	r18, 0x01	; 1
    9b9e:	31 09       	sbc	r19, r1
    9ba0:	fc 01       	movw	r30, r24
    9ba2:	31 83       	std	Z+1, r19	; 0x01
    9ba4:	20 83       	st	Z, r18
    9ba6:	ce 01       	movw	r24, r28
    9ba8:	8f 50       	subi	r24, 0x0F	; 15
    9baa:	9c 4f       	sbci	r25, 0xFC	; 252
    9bac:	fc 01       	movw	r30, r24
    9bae:	80 81       	ld	r24, Z
    9bb0:	91 81       	ldd	r25, Z+1	; 0x01
    9bb2:	89 2b       	or	r24, r25
    9bb4:	a1 f6       	brne	.-88     	; 0x9b5e <__stack+0x795f>
    9bb6:	2b c0       	rjmp	.+86     	; 0x9c0e <__stack+0x7a0f>
    9bb8:	8e 01       	movw	r16, r28
    9bba:	0f 50       	subi	r16, 0x0F	; 15
    9bbc:	1c 4f       	sbci	r17, 0xFC	; 252
    9bbe:	ce 01       	movw	r24, r28
    9bc0:	83 51       	subi	r24, 0x13	; 19
    9bc2:	9c 4f       	sbci	r25, 0xFC	; 252
    9bc4:	fc 01       	movw	r30, r24
    9bc6:	60 81       	ld	r22, Z
    9bc8:	71 81       	ldd	r23, Z+1	; 0x01
    9bca:	82 81       	ldd	r24, Z+2	; 0x02
    9bcc:	93 81       	ldd	r25, Z+3	; 0x03
    9bce:	00 d2       	rcall	.+1024   	; 0x9fd0 <__fixunssfsi>
    9bd0:	dc 01       	movw	r26, r24
    9bd2:	cb 01       	movw	r24, r22
    9bd4:	f8 01       	movw	r30, r16
    9bd6:	91 83       	std	Z+1, r25	; 0x01
    9bd8:	80 83       	st	Z, r24
    9bda:	ce 01       	movw	r24, r28
    9bdc:	8b 50       	subi	r24, 0x0B	; 11
    9bde:	9c 4f       	sbci	r25, 0xFC	; 252
    9be0:	9e 01       	movw	r18, r28
    9be2:	2f 50       	subi	r18, 0x0F	; 15
    9be4:	3c 4f       	sbci	r19, 0xFC	; 252
    9be6:	f9 01       	movw	r30, r18
    9be8:	20 81       	ld	r18, Z
    9bea:	31 81       	ldd	r19, Z+1	; 0x01
    9bec:	fc 01       	movw	r30, r24
    9bee:	31 83       	std	Z+1, r19	; 0x01
    9bf0:	20 83       	st	Z, r18
    9bf2:	ce 01       	movw	r24, r28
    9bf4:	8b 50       	subi	r24, 0x0B	; 11
    9bf6:	9c 4f       	sbci	r25, 0xFC	; 252
    9bf8:	fc 01       	movw	r30, r24
    9bfa:	80 81       	ld	r24, Z
    9bfc:	91 81       	ldd	r25, Z+1	; 0x01
    9bfe:	01 97       	sbiw	r24, 0x01	; 1
    9c00:	f1 f7       	brne	.-4      	; 0x9bfe <__stack+0x79ff>
    9c02:	9e 01       	movw	r18, r28
    9c04:	2b 50       	subi	r18, 0x0B	; 11
    9c06:	3c 4f       	sbci	r19, 0xFC	; 252
    9c08:	f9 01       	movw	r30, r18
    9c0a:	91 83       	std	Z+1, r25	; 0x01
    9c0c:	80 83       	st	Z, r24
    9c0e:	18 86       	std	Y+8, r1	; 0x08
    9c10:	1f 82       	std	Y+7, r1	; 0x07
    9c12:	85 c1       	rjmp	.+778    	; 0x9f1e <__stack+0x7d1f>
    9c14:	0e 94 ec 0e 	call	0x1dd8	; 0x1dd8 <static_loop2>
    9c18:	9e 01       	movw	r18, r28
    9c1a:	25 5c       	subi	r18, 0xC5	; 197
    9c1c:	3e 4f       	sbci	r19, 0xFE	; 254
    9c1e:	80 e0       	ldi	r24, 0x00	; 0
    9c20:	90 e0       	ldi	r25, 0x00	; 0
    9c22:	af ea       	ldi	r26, 0xAF	; 175
    9c24:	b3 e4       	ldi	r27, 0x43	; 67
    9c26:	f9 01       	movw	r30, r18
    9c28:	80 83       	st	Z, r24
    9c2a:	91 83       	std	Z+1, r25	; 0x01
    9c2c:	a2 83       	std	Z+2, r26	; 0x02
    9c2e:	b3 83       	std	Z+3, r27	; 0x03
    9c30:	8e 01       	movw	r16, r28
    9c32:	09 5b       	subi	r16, 0xB9	; 185
    9c34:	1b 4f       	sbci	r17, 0xFB	; 251
    9c36:	ce 01       	movw	r24, r28
    9c38:	85 5c       	subi	r24, 0xC5	; 197
    9c3a:	9e 4f       	sbci	r25, 0xFE	; 254
    9c3c:	26 e6       	ldi	r18, 0x66	; 102
    9c3e:	36 e6       	ldi	r19, 0x66	; 102
    9c40:	46 e6       	ldi	r20, 0x66	; 102
    9c42:	55 e4       	ldi	r21, 0x45	; 69
    9c44:	fc 01       	movw	r30, r24
    9c46:	60 81       	ld	r22, Z
    9c48:	71 81       	ldd	r23, Z+1	; 0x01
    9c4a:	82 81       	ldd	r24, Z+2	; 0x02
    9c4c:	93 81       	ldd	r25, Z+3	; 0x03
    9c4e:	3d d2       	rcall	.+1146   	; 0xa0ca <__mulsf3>
    9c50:	dc 01       	movw	r26, r24
    9c52:	cb 01       	movw	r24, r22
    9c54:	f8 01       	movw	r30, r16
    9c56:	80 83       	st	Z, r24
    9c58:	91 83       	std	Z+1, r25	; 0x01
    9c5a:	a2 83       	std	Z+2, r26	; 0x02
    9c5c:	b3 83       	std	Z+3, r27	; 0x03
    9c5e:	ce 01       	movw	r24, r28
    9c60:	89 5b       	subi	r24, 0xB9	; 185
    9c62:	9b 4f       	sbci	r25, 0xFB	; 251
    9c64:	20 e0       	ldi	r18, 0x00	; 0
    9c66:	30 e0       	ldi	r19, 0x00	; 0
    9c68:	40 e8       	ldi	r20, 0x80	; 128
    9c6a:	5f e3       	ldi	r21, 0x3F	; 63
    9c6c:	fc 01       	movw	r30, r24
    9c6e:	60 81       	ld	r22, Z
    9c70:	71 81       	ldd	r23, Z+1	; 0x01
    9c72:	82 81       	ldd	r24, Z+2	; 0x02
    9c74:	93 81       	ldd	r25, Z+3	; 0x03
    9c76:	a8 d1       	rcall	.+848    	; 0x9fc8 <__cmpsf2>
    9c78:	88 23       	and	r24, r24
    9c7a:	4c f4       	brge	.+18     	; 0x9c8e <__stack+0x7a8f>
    9c7c:	ce 01       	movw	r24, r28
    9c7e:	85 5b       	subi	r24, 0xB5	; 181
    9c80:	9b 4f       	sbci	r25, 0xFB	; 251
    9c82:	21 e0       	ldi	r18, 0x01	; 1
    9c84:	30 e0       	ldi	r19, 0x00	; 0
    9c86:	fc 01       	movw	r30, r24
    9c88:	31 83       	std	Z+1, r19	; 0x01
    9c8a:	20 83       	st	Z, r18
    9c8c:	69 c0       	rjmp	.+210    	; 0x9d60 <__stack+0x7b61>
    9c8e:	ce 01       	movw	r24, r28
    9c90:	89 5b       	subi	r24, 0xB9	; 185
    9c92:	9b 4f       	sbci	r25, 0xFB	; 251
    9c94:	20 e0       	ldi	r18, 0x00	; 0
    9c96:	3f ef       	ldi	r19, 0xFF	; 255
    9c98:	4f e7       	ldi	r20, 0x7F	; 127
    9c9a:	57 e4       	ldi	r21, 0x47	; 71
    9c9c:	fc 01       	movw	r30, r24
    9c9e:	60 81       	ld	r22, Z
    9ca0:	71 81       	ldd	r23, Z+1	; 0x01
    9ca2:	82 81       	ldd	r24, Z+2	; 0x02
    9ca4:	93 81       	ldd	r25, Z+3	; 0x03
    9ca6:	0d d2       	rcall	.+1050   	; 0xa0c2 <__gesf2>
    9ca8:	18 16       	cp	r1, r24
    9caa:	0c f0       	brlt	.+2      	; 0x9cae <__stack+0x7aaf>
    9cac:	48 c0       	rjmp	.+144    	; 0x9d3e <__stack+0x7b3f>
    9cae:	ce 01       	movw	r24, r28
    9cb0:	85 5c       	subi	r24, 0xC5	; 197
    9cb2:	9e 4f       	sbci	r25, 0xFE	; 254
    9cb4:	20 e0       	ldi	r18, 0x00	; 0
    9cb6:	30 e0       	ldi	r19, 0x00	; 0
    9cb8:	40 e2       	ldi	r20, 0x20	; 32
    9cba:	51 e4       	ldi	r21, 0x41	; 65
    9cbc:	fc 01       	movw	r30, r24
    9cbe:	60 81       	ld	r22, Z
    9cc0:	71 81       	ldd	r23, Z+1	; 0x01
    9cc2:	82 81       	ldd	r24, Z+2	; 0x02
    9cc4:	93 81       	ldd	r25, Z+3	; 0x03
    9cc6:	01 d2       	rcall	.+1026   	; 0xa0ca <__mulsf3>
    9cc8:	dc 01       	movw	r26, r24
    9cca:	cb 01       	movw	r24, r22
    9ccc:	8e 01       	movw	r16, r28
    9cce:	05 5b       	subi	r16, 0xB5	; 181
    9cd0:	1b 4f       	sbci	r17, 0xFB	; 251
    9cd2:	bc 01       	movw	r22, r24
    9cd4:	cd 01       	movw	r24, r26
    9cd6:	7c d1       	rcall	.+760    	; 0x9fd0 <__fixunssfsi>
    9cd8:	dc 01       	movw	r26, r24
    9cda:	cb 01       	movw	r24, r22
    9cdc:	f8 01       	movw	r30, r16
    9cde:	91 83       	std	Z+1, r25	; 0x01
    9ce0:	80 83       	st	Z, r24
    9ce2:	24 c0       	rjmp	.+72     	; 0x9d2c <__stack+0x7b2d>
    9ce4:	ce 01       	movw	r24, r28
    9ce6:	83 5b       	subi	r24, 0xB3	; 179
    9ce8:	9b 4f       	sbci	r25, 0xFB	; 251
    9cea:	20 e7       	ldi	r18, 0x70	; 112
    9cec:	31 e0       	ldi	r19, 0x01	; 1
    9cee:	fc 01       	movw	r30, r24
    9cf0:	31 83       	std	Z+1, r19	; 0x01
    9cf2:	20 83       	st	Z, r18
    9cf4:	ce 01       	movw	r24, r28
    9cf6:	83 5b       	subi	r24, 0xB3	; 179
    9cf8:	9b 4f       	sbci	r25, 0xFB	; 251
    9cfa:	fc 01       	movw	r30, r24
    9cfc:	80 81       	ld	r24, Z
    9cfe:	91 81       	ldd	r25, Z+1	; 0x01
    9d00:	01 97       	sbiw	r24, 0x01	; 1
    9d02:	f1 f7       	brne	.-4      	; 0x9d00 <__stack+0x7b01>
    9d04:	9e 01       	movw	r18, r28
    9d06:	23 5b       	subi	r18, 0xB3	; 179
    9d08:	3b 4f       	sbci	r19, 0xFB	; 251
    9d0a:	f9 01       	movw	r30, r18
    9d0c:	91 83       	std	Z+1, r25	; 0x01
    9d0e:	80 83       	st	Z, r24
    9d10:	ce 01       	movw	r24, r28
    9d12:	85 5b       	subi	r24, 0xB5	; 181
    9d14:	9b 4f       	sbci	r25, 0xFB	; 251
    9d16:	9e 01       	movw	r18, r28
    9d18:	25 5b       	subi	r18, 0xB5	; 181
    9d1a:	3b 4f       	sbci	r19, 0xFB	; 251
    9d1c:	f9 01       	movw	r30, r18
    9d1e:	20 81       	ld	r18, Z
    9d20:	31 81       	ldd	r19, Z+1	; 0x01
    9d22:	21 50       	subi	r18, 0x01	; 1
    9d24:	31 09       	sbc	r19, r1
    9d26:	fc 01       	movw	r30, r24
    9d28:	31 83       	std	Z+1, r19	; 0x01
    9d2a:	20 83       	st	Z, r18
    9d2c:	ce 01       	movw	r24, r28
    9d2e:	85 5b       	subi	r24, 0xB5	; 181
    9d30:	9b 4f       	sbci	r25, 0xFB	; 251
    9d32:	fc 01       	movw	r30, r24
    9d34:	80 81       	ld	r24, Z
    9d36:	91 81       	ldd	r25, Z+1	; 0x01
    9d38:	89 2b       	or	r24, r25
    9d3a:	a1 f6       	brne	.-88     	; 0x9ce4 <__stack+0x7ae5>
    9d3c:	2b c0       	rjmp	.+86     	; 0x9d94 <__stack+0x7b95>
    9d3e:	8e 01       	movw	r16, r28
    9d40:	05 5b       	subi	r16, 0xB5	; 181
    9d42:	1b 4f       	sbci	r17, 0xFB	; 251
    9d44:	ce 01       	movw	r24, r28
    9d46:	89 5b       	subi	r24, 0xB9	; 185
    9d48:	9b 4f       	sbci	r25, 0xFB	; 251
    9d4a:	fc 01       	movw	r30, r24
    9d4c:	60 81       	ld	r22, Z
    9d4e:	71 81       	ldd	r23, Z+1	; 0x01
    9d50:	82 81       	ldd	r24, Z+2	; 0x02
    9d52:	93 81       	ldd	r25, Z+3	; 0x03
    9d54:	3d d1       	rcall	.+634    	; 0x9fd0 <__fixunssfsi>
    9d56:	dc 01       	movw	r26, r24
    9d58:	cb 01       	movw	r24, r22
    9d5a:	f8 01       	movw	r30, r16
    9d5c:	91 83       	std	Z+1, r25	; 0x01
    9d5e:	80 83       	st	Z, r24
    9d60:	ce 01       	movw	r24, r28
    9d62:	81 5b       	subi	r24, 0xB1	; 177
    9d64:	9b 4f       	sbci	r25, 0xFB	; 251
    9d66:	9e 01       	movw	r18, r28
    9d68:	25 5b       	subi	r18, 0xB5	; 181
    9d6a:	3b 4f       	sbci	r19, 0xFB	; 251
    9d6c:	f9 01       	movw	r30, r18
    9d6e:	20 81       	ld	r18, Z
    9d70:	31 81       	ldd	r19, Z+1	; 0x01
    9d72:	fc 01       	movw	r30, r24
    9d74:	31 83       	std	Z+1, r19	; 0x01
    9d76:	20 83       	st	Z, r18
    9d78:	ce 01       	movw	r24, r28
    9d7a:	81 5b       	subi	r24, 0xB1	; 177
    9d7c:	9b 4f       	sbci	r25, 0xFB	; 251
    9d7e:	fc 01       	movw	r30, r24
    9d80:	80 81       	ld	r24, Z
    9d82:	91 81       	ldd	r25, Z+1	; 0x01
    9d84:	01 97       	sbiw	r24, 0x01	; 1
    9d86:	f1 f7       	brne	.-4      	; 0x9d84 <__stack+0x7b85>
    9d88:	9e 01       	movw	r18, r28
    9d8a:	21 5b       	subi	r18, 0xB1	; 177
    9d8c:	3b 4f       	sbci	r19, 0xFB	; 251
    9d8e:	f9 01       	movw	r30, r18
    9d90:	91 83       	std	Z+1, r25	; 0x01
    9d92:	80 83       	st	Z, r24
    9d94:	0e 94 bd 09 	call	0x137a	; 0x137a <lcd_clear>
    9d98:	9e 01       	movw	r18, r28
    9d9a:	25 5e       	subi	r18, 0xE5	; 229
    9d9c:	3e 4f       	sbci	r19, 0xFE	; 254
    9d9e:	80 e0       	ldi	r24, 0x00	; 0
    9da0:	90 e0       	ldi	r25, 0x00	; 0
    9da2:	a8 ec       	ldi	r26, 0xC8	; 200
    9da4:	b3 e4       	ldi	r27, 0x43	; 67
    9da6:	f9 01       	movw	r30, r18
    9da8:	80 83       	st	Z, r24
    9daa:	91 83       	std	Z+1, r25	; 0x01
    9dac:	a2 83       	std	Z+2, r26	; 0x02
    9dae:	b3 83       	std	Z+3, r27	; 0x03
    9db0:	8e 01       	movw	r16, r28
    9db2:	03 5c       	subi	r16, 0xC3	; 195
    9db4:	1b 4f       	sbci	r17, 0xFB	; 251
    9db6:	ce 01       	movw	r24, r28
    9db8:	85 5e       	subi	r24, 0xE5	; 229
    9dba:	9e 4f       	sbci	r25, 0xFE	; 254
    9dbc:	26 e6       	ldi	r18, 0x66	; 102
    9dbe:	36 e6       	ldi	r19, 0x66	; 102
    9dc0:	46 e6       	ldi	r20, 0x66	; 102
    9dc2:	55 e4       	ldi	r21, 0x45	; 69
    9dc4:	fc 01       	movw	r30, r24
    9dc6:	60 81       	ld	r22, Z
    9dc8:	71 81       	ldd	r23, Z+1	; 0x01
    9dca:	82 81       	ldd	r24, Z+2	; 0x02
    9dcc:	93 81       	ldd	r25, Z+3	; 0x03
    9dce:	7d d1       	rcall	.+762    	; 0xa0ca <__mulsf3>
    9dd0:	dc 01       	movw	r26, r24
    9dd2:	cb 01       	movw	r24, r22
    9dd4:	f8 01       	movw	r30, r16
    9dd6:	80 83       	st	Z, r24
    9dd8:	91 83       	std	Z+1, r25	; 0x01
    9dda:	a2 83       	std	Z+2, r26	; 0x02
    9ddc:	b3 83       	std	Z+3, r27	; 0x03
    9dde:	ce 01       	movw	r24, r28
    9de0:	83 5c       	subi	r24, 0xC3	; 195
    9de2:	9b 4f       	sbci	r25, 0xFB	; 251
    9de4:	20 e0       	ldi	r18, 0x00	; 0
    9de6:	30 e0       	ldi	r19, 0x00	; 0
    9de8:	40 e8       	ldi	r20, 0x80	; 128
    9dea:	5f e3       	ldi	r21, 0x3F	; 63
    9dec:	fc 01       	movw	r30, r24
    9dee:	60 81       	ld	r22, Z
    9df0:	71 81       	ldd	r23, Z+1	; 0x01
    9df2:	82 81       	ldd	r24, Z+2	; 0x02
    9df4:	93 81       	ldd	r25, Z+3	; 0x03
    9df6:	e8 d0       	rcall	.+464    	; 0x9fc8 <__cmpsf2>
    9df8:	88 23       	and	r24, r24
    9dfa:	4c f4       	brge	.+18     	; 0x9e0e <__stack+0x7c0f>
    9dfc:	ce 01       	movw	r24, r28
    9dfe:	8f 5b       	subi	r24, 0xBF	; 191
    9e00:	9b 4f       	sbci	r25, 0xFB	; 251
    9e02:	21 e0       	ldi	r18, 0x01	; 1
    9e04:	30 e0       	ldi	r19, 0x00	; 0
    9e06:	fc 01       	movw	r30, r24
    9e08:	31 83       	std	Z+1, r19	; 0x01
    9e0a:	20 83       	st	Z, r18
    9e0c:	69 c0       	rjmp	.+210    	; 0x9ee0 <__stack+0x7ce1>
    9e0e:	ce 01       	movw	r24, r28
    9e10:	83 5c       	subi	r24, 0xC3	; 195
    9e12:	9b 4f       	sbci	r25, 0xFB	; 251
    9e14:	20 e0       	ldi	r18, 0x00	; 0
    9e16:	3f ef       	ldi	r19, 0xFF	; 255
    9e18:	4f e7       	ldi	r20, 0x7F	; 127
    9e1a:	57 e4       	ldi	r21, 0x47	; 71
    9e1c:	fc 01       	movw	r30, r24
    9e1e:	60 81       	ld	r22, Z
    9e20:	71 81       	ldd	r23, Z+1	; 0x01
    9e22:	82 81       	ldd	r24, Z+2	; 0x02
    9e24:	93 81       	ldd	r25, Z+3	; 0x03
    9e26:	4d d1       	rcall	.+666    	; 0xa0c2 <__gesf2>
    9e28:	18 16       	cp	r1, r24
    9e2a:	0c f0       	brlt	.+2      	; 0x9e2e <__stack+0x7c2f>
    9e2c:	48 c0       	rjmp	.+144    	; 0x9ebe <__stack+0x7cbf>
    9e2e:	ce 01       	movw	r24, r28
    9e30:	85 5e       	subi	r24, 0xE5	; 229
    9e32:	9e 4f       	sbci	r25, 0xFE	; 254
    9e34:	20 e0       	ldi	r18, 0x00	; 0
    9e36:	30 e0       	ldi	r19, 0x00	; 0
    9e38:	40 e2       	ldi	r20, 0x20	; 32
    9e3a:	51 e4       	ldi	r21, 0x41	; 65
    9e3c:	fc 01       	movw	r30, r24
    9e3e:	60 81       	ld	r22, Z
    9e40:	71 81       	ldd	r23, Z+1	; 0x01
    9e42:	82 81       	ldd	r24, Z+2	; 0x02
    9e44:	93 81       	ldd	r25, Z+3	; 0x03
    9e46:	41 d1       	rcall	.+642    	; 0xa0ca <__mulsf3>
    9e48:	dc 01       	movw	r26, r24
    9e4a:	cb 01       	movw	r24, r22
    9e4c:	8e 01       	movw	r16, r28
    9e4e:	0f 5b       	subi	r16, 0xBF	; 191
    9e50:	1b 4f       	sbci	r17, 0xFB	; 251
    9e52:	bc 01       	movw	r22, r24
    9e54:	cd 01       	movw	r24, r26
    9e56:	bc d0       	rcall	.+376    	; 0x9fd0 <__fixunssfsi>
    9e58:	dc 01       	movw	r26, r24
    9e5a:	cb 01       	movw	r24, r22
    9e5c:	f8 01       	movw	r30, r16
    9e5e:	91 83       	std	Z+1, r25	; 0x01
    9e60:	80 83       	st	Z, r24
    9e62:	24 c0       	rjmp	.+72     	; 0x9eac <__stack+0x7cad>
    9e64:	ce 01       	movw	r24, r28
    9e66:	8d 5b       	subi	r24, 0xBD	; 189
    9e68:	9b 4f       	sbci	r25, 0xFB	; 251
    9e6a:	20 e7       	ldi	r18, 0x70	; 112
    9e6c:	31 e0       	ldi	r19, 0x01	; 1
    9e6e:	fc 01       	movw	r30, r24
    9e70:	31 83       	std	Z+1, r19	; 0x01
    9e72:	20 83       	st	Z, r18
    9e74:	ce 01       	movw	r24, r28
    9e76:	8d 5b       	subi	r24, 0xBD	; 189
    9e78:	9b 4f       	sbci	r25, 0xFB	; 251
    9e7a:	fc 01       	movw	r30, r24
    9e7c:	80 81       	ld	r24, Z
    9e7e:	91 81       	ldd	r25, Z+1	; 0x01
    9e80:	01 97       	sbiw	r24, 0x01	; 1
    9e82:	f1 f7       	brne	.-4      	; 0x9e80 <__stack+0x7c81>
    9e84:	9e 01       	movw	r18, r28
    9e86:	2d 5b       	subi	r18, 0xBD	; 189
    9e88:	3b 4f       	sbci	r19, 0xFB	; 251
    9e8a:	f9 01       	movw	r30, r18
    9e8c:	91 83       	std	Z+1, r25	; 0x01
    9e8e:	80 83       	st	Z, r24
    9e90:	ce 01       	movw	r24, r28
    9e92:	8f 5b       	subi	r24, 0xBF	; 191
    9e94:	9b 4f       	sbci	r25, 0xFB	; 251
    9e96:	9e 01       	movw	r18, r28
    9e98:	2f 5b       	subi	r18, 0xBF	; 191
    9e9a:	3b 4f       	sbci	r19, 0xFB	; 251
    9e9c:	f9 01       	movw	r30, r18
    9e9e:	20 81       	ld	r18, Z
    9ea0:	31 81       	ldd	r19, Z+1	; 0x01
    9ea2:	21 50       	subi	r18, 0x01	; 1
    9ea4:	31 09       	sbc	r19, r1
    9ea6:	fc 01       	movw	r30, r24
    9ea8:	31 83       	std	Z+1, r19	; 0x01
    9eaa:	20 83       	st	Z, r18
    9eac:	ce 01       	movw	r24, r28
    9eae:	8f 5b       	subi	r24, 0xBF	; 191
    9eb0:	9b 4f       	sbci	r25, 0xFB	; 251
    9eb2:	fc 01       	movw	r30, r24
    9eb4:	80 81       	ld	r24, Z
    9eb6:	91 81       	ldd	r25, Z+1	; 0x01
    9eb8:	89 2b       	or	r24, r25
    9eba:	a1 f6       	brne	.-88     	; 0x9e64 <__stack+0x7c65>
    9ebc:	2b c0       	rjmp	.+86     	; 0x9f14 <__stack+0x7d15>
    9ebe:	8e 01       	movw	r16, r28
    9ec0:	0f 5b       	subi	r16, 0xBF	; 191
    9ec2:	1b 4f       	sbci	r17, 0xFB	; 251
    9ec4:	ce 01       	movw	r24, r28
    9ec6:	83 5c       	subi	r24, 0xC3	; 195
    9ec8:	9b 4f       	sbci	r25, 0xFB	; 251
    9eca:	fc 01       	movw	r30, r24
    9ecc:	60 81       	ld	r22, Z
    9ece:	71 81       	ldd	r23, Z+1	; 0x01
    9ed0:	82 81       	ldd	r24, Z+2	; 0x02
    9ed2:	93 81       	ldd	r25, Z+3	; 0x03
    9ed4:	7d d0       	rcall	.+250    	; 0x9fd0 <__fixunssfsi>
    9ed6:	dc 01       	movw	r26, r24
    9ed8:	cb 01       	movw	r24, r22
    9eda:	f8 01       	movw	r30, r16
    9edc:	91 83       	std	Z+1, r25	; 0x01
    9ede:	80 83       	st	Z, r24
    9ee0:	ce 01       	movw	r24, r28
    9ee2:	8b 5b       	subi	r24, 0xBB	; 187
    9ee4:	9b 4f       	sbci	r25, 0xFB	; 251
    9ee6:	9e 01       	movw	r18, r28
    9ee8:	2f 5b       	subi	r18, 0xBF	; 191
    9eea:	3b 4f       	sbci	r19, 0xFB	; 251
    9eec:	f9 01       	movw	r30, r18
    9eee:	20 81       	ld	r18, Z
    9ef0:	31 81       	ldd	r19, Z+1	; 0x01
    9ef2:	fc 01       	movw	r30, r24
    9ef4:	31 83       	std	Z+1, r19	; 0x01
    9ef6:	20 83       	st	Z, r18
    9ef8:	ce 01       	movw	r24, r28
    9efa:	8b 5b       	subi	r24, 0xBB	; 187
    9efc:	9b 4f       	sbci	r25, 0xFB	; 251
    9efe:	fc 01       	movw	r30, r24
    9f00:	80 81       	ld	r24, Z
    9f02:	91 81       	ldd	r25, Z+1	; 0x01
    9f04:	01 97       	sbiw	r24, 0x01	; 1
    9f06:	f1 f7       	brne	.-4      	; 0x9f04 <__stack+0x7d05>
    9f08:	9e 01       	movw	r18, r28
    9f0a:	2b 5b       	subi	r18, 0xBB	; 187
    9f0c:	3b 4f       	sbci	r19, 0xFB	; 251
    9f0e:	f9 01       	movw	r30, r18
    9f10:	91 83       	std	Z+1, r25	; 0x01
    9f12:	80 83       	st	Z, r24
    9f14:	8f 81       	ldd	r24, Y+7	; 0x07
    9f16:	98 85       	ldd	r25, Y+8	; 0x08
    9f18:	01 96       	adiw	r24, 0x01	; 1
    9f1a:	98 87       	std	Y+8, r25	; 0x08
    9f1c:	8f 83       	std	Y+7, r24	; 0x07
    9f1e:	8f 81       	ldd	r24, Y+7	; 0x07
    9f20:	98 85       	ldd	r25, Y+8	; 0x08
    9f22:	03 97       	sbiw	r24, 0x03	; 3
    9f24:	0c f4       	brge	.+2      	; 0x9f28 <__stack+0x7d29>
    9f26:	76 ce       	rjmp	.-788    	; 0x9c14 <__stack+0x7a15>
    9f28:	0e 94 da 0e 	call	0x1db4	; 0x1db4 <static_loop>
    9f2c:	fd cf       	rjmp	.-6      	; 0x9f28 <__stack+0x7d29>
    9f2e:	29 81       	ldd	r18, Y+1	; 0x01
    9f30:	3a 81       	ldd	r19, Y+2	; 0x02
    9f32:	8b 81       	ldd	r24, Y+3	; 0x03
    9f34:	9c 81       	ldd	r25, Y+4	; 0x04
    9f36:	82 17       	cp	r24, r18
    9f38:	93 07       	cpc	r25, r19
    9f3a:	34 f4       	brge	.+12     	; 0x9f48 <__stack+0x7d49>
    9f3c:	89 81       	ldd	r24, Y+1	; 0x01
    9f3e:	9a 81       	ldd	r25, Y+2	; 0x02
    9f40:	89 2b       	or	r24, r25
    9f42:	11 f0       	breq	.+4      	; 0x9f48 <__stack+0x7d49>
    9f44:	0c 94 2b 37 	jmp	0x6e56	; 0x6e56 <__stack+0x4c57>
    9f48:	0e 94 aa 0e 	call	0x1d54	; 0x1d54 <stop>
    9f4c:	89 81       	ldd	r24, Y+1	; 0x01
    9f4e:	9a 81       	ldd	r25, Y+2	; 0x02
    9f50:	89 2b       	or	r24, r25
    9f52:	11 f0       	breq	.+4      	; 0x9f58 <__stack+0x7d59>
    9f54:	0c 94 b6 0f 	jmp	0x1f6c	; 0x1f6c <main+0xda>
    9f58:	0c 94 63 0f 	jmp	0x1ec6	; 0x1ec6 <main+0x34>

00009f5c <__divmodhi4>:
    9f5c:	97 fb       	bst	r25, 7
    9f5e:	07 2e       	mov	r0, r23
    9f60:	16 f4       	brtc	.+4      	; 0x9f66 <__divmodhi4+0xa>
    9f62:	00 94       	com	r0
    9f64:	06 d0       	rcall	.+12     	; 0x9f72 <__divmodhi4_neg1>
    9f66:	77 fd       	sbrc	r23, 7
    9f68:	08 d0       	rcall	.+16     	; 0x9f7a <__divmodhi4_neg2>
    9f6a:	1a d0       	rcall	.+52     	; 0x9fa0 <__udivmodhi4>
    9f6c:	07 fc       	sbrc	r0, 7
    9f6e:	05 d0       	rcall	.+10     	; 0x9f7a <__divmodhi4_neg2>
    9f70:	3e f4       	brtc	.+14     	; 0x9f80 <__divmodhi4_exit>

00009f72 <__divmodhi4_neg1>:
    9f72:	90 95       	com	r25
    9f74:	81 95       	neg	r24
    9f76:	9f 4f       	sbci	r25, 0xFF	; 255
    9f78:	08 95       	ret

00009f7a <__divmodhi4_neg2>:
    9f7a:	70 95       	com	r23
    9f7c:	61 95       	neg	r22
    9f7e:	7f 4f       	sbci	r23, 0xFF	; 255

00009f80 <__divmodhi4_exit>:
    9f80:	08 95       	ret

00009f82 <__umulhisi3>:
    9f82:	a2 9f       	mul	r26, r18
    9f84:	b0 01       	movw	r22, r0
    9f86:	b3 9f       	mul	r27, r19
    9f88:	c0 01       	movw	r24, r0
    9f8a:	a3 9f       	mul	r26, r19
    9f8c:	70 0d       	add	r23, r0
    9f8e:	81 1d       	adc	r24, r1
    9f90:	11 24       	eor	r1, r1
    9f92:	91 1d       	adc	r25, r1
    9f94:	b2 9f       	mul	r27, r18
    9f96:	70 0d       	add	r23, r0
    9f98:	81 1d       	adc	r24, r1
    9f9a:	11 24       	eor	r1, r1
    9f9c:	91 1d       	adc	r25, r1
    9f9e:	08 95       	ret

00009fa0 <__udivmodhi4>:
    9fa0:	aa 1b       	sub	r26, r26
    9fa2:	bb 1b       	sub	r27, r27
    9fa4:	51 e1       	ldi	r21, 0x11	; 17
    9fa6:	07 c0       	rjmp	.+14     	; 0x9fb6 <__udivmodhi4_ep>

00009fa8 <__udivmodhi4_loop>:
    9fa8:	aa 1f       	adc	r26, r26
    9faa:	bb 1f       	adc	r27, r27
    9fac:	a6 17       	cp	r26, r22
    9fae:	b7 07       	cpc	r27, r23
    9fb0:	10 f0       	brcs	.+4      	; 0x9fb6 <__udivmodhi4_ep>
    9fb2:	a6 1b       	sub	r26, r22
    9fb4:	b7 0b       	sbc	r27, r23

00009fb6 <__udivmodhi4_ep>:
    9fb6:	88 1f       	adc	r24, r24
    9fb8:	99 1f       	adc	r25, r25
    9fba:	5a 95       	dec	r21
    9fbc:	a9 f7       	brne	.-22     	; 0x9fa8 <__udivmodhi4_loop>
    9fbe:	80 95       	com	r24
    9fc0:	90 95       	com	r25
    9fc2:	bc 01       	movw	r22, r24
    9fc4:	cd 01       	movw	r24, r26
    9fc6:	08 95       	ret

00009fc8 <__cmpsf2>:
    9fc8:	2f d0       	rcall	.+94     	; 0xa028 <__fp_cmp>
    9fca:	08 f4       	brcc	.+2      	; 0x9fce <__cmpsf2+0x6>
    9fcc:	81 e0       	ldi	r24, 0x01	; 1
    9fce:	08 95       	ret

00009fd0 <__fixunssfsi>:
    9fd0:	57 d0       	rcall	.+174    	; 0xa080 <__fp_splitA>
    9fd2:	88 f0       	brcs	.+34     	; 0x9ff6 <__fixunssfsi+0x26>
    9fd4:	9f 57       	subi	r25, 0x7F	; 127
    9fd6:	90 f0       	brcs	.+36     	; 0x9ffc <__fixunssfsi+0x2c>
    9fd8:	b9 2f       	mov	r27, r25
    9fda:	99 27       	eor	r25, r25
    9fdc:	b7 51       	subi	r27, 0x17	; 23
    9fde:	a0 f0       	brcs	.+40     	; 0xa008 <__fixunssfsi+0x38>
    9fe0:	d1 f0       	breq	.+52     	; 0xa016 <__fixunssfsi+0x46>
    9fe2:	66 0f       	add	r22, r22
    9fe4:	77 1f       	adc	r23, r23
    9fe6:	88 1f       	adc	r24, r24
    9fe8:	99 1f       	adc	r25, r25
    9fea:	1a f0       	brmi	.+6      	; 0x9ff2 <__fixunssfsi+0x22>
    9fec:	ba 95       	dec	r27
    9fee:	c9 f7       	brne	.-14     	; 0x9fe2 <__fixunssfsi+0x12>
    9ff0:	12 c0       	rjmp	.+36     	; 0xa016 <__fixunssfsi+0x46>
    9ff2:	b1 30       	cpi	r27, 0x01	; 1
    9ff4:	81 f0       	breq	.+32     	; 0xa016 <__fixunssfsi+0x46>
    9ff6:	5e d0       	rcall	.+188    	; 0xa0b4 <__fp_zero>
    9ff8:	b1 e0       	ldi	r27, 0x01	; 1
    9ffa:	08 95       	ret
    9ffc:	5b c0       	rjmp	.+182    	; 0xa0b4 <__fp_zero>
    9ffe:	67 2f       	mov	r22, r23
    a000:	78 2f       	mov	r23, r24
    a002:	88 27       	eor	r24, r24
    a004:	b8 5f       	subi	r27, 0xF8	; 248
    a006:	39 f0       	breq	.+14     	; 0xa016 <__fixunssfsi+0x46>
    a008:	b9 3f       	cpi	r27, 0xF9	; 249
    a00a:	cc f3       	brlt	.-14     	; 0x9ffe <__fixunssfsi+0x2e>
    a00c:	86 95       	lsr	r24
    a00e:	77 95       	ror	r23
    a010:	67 95       	ror	r22
    a012:	b3 95       	inc	r27
    a014:	d9 f7       	brne	.-10     	; 0xa00c <__fixunssfsi+0x3c>
    a016:	3e f4       	brtc	.+14     	; 0xa026 <__fixunssfsi+0x56>
    a018:	90 95       	com	r25
    a01a:	80 95       	com	r24
    a01c:	70 95       	com	r23
    a01e:	61 95       	neg	r22
    a020:	7f 4f       	sbci	r23, 0xFF	; 255
    a022:	8f 4f       	sbci	r24, 0xFF	; 255
    a024:	9f 4f       	sbci	r25, 0xFF	; 255
    a026:	08 95       	ret

0000a028 <__fp_cmp>:
    a028:	99 0f       	add	r25, r25
    a02a:	00 08       	sbc	r0, r0
    a02c:	55 0f       	add	r21, r21
    a02e:	aa 0b       	sbc	r26, r26
    a030:	e0 e8       	ldi	r30, 0x80	; 128
    a032:	fe ef       	ldi	r31, 0xFE	; 254
    a034:	16 16       	cp	r1, r22
    a036:	17 06       	cpc	r1, r23
    a038:	e8 07       	cpc	r30, r24
    a03a:	f9 07       	cpc	r31, r25
    a03c:	c0 f0       	brcs	.+48     	; 0xa06e <__fp_cmp+0x46>
    a03e:	12 16       	cp	r1, r18
    a040:	13 06       	cpc	r1, r19
    a042:	e4 07       	cpc	r30, r20
    a044:	f5 07       	cpc	r31, r21
    a046:	98 f0       	brcs	.+38     	; 0xa06e <__fp_cmp+0x46>
    a048:	62 1b       	sub	r22, r18
    a04a:	73 0b       	sbc	r23, r19
    a04c:	84 0b       	sbc	r24, r20
    a04e:	95 0b       	sbc	r25, r21
    a050:	39 f4       	brne	.+14     	; 0xa060 <__fp_cmp+0x38>
    a052:	0a 26       	eor	r0, r26
    a054:	61 f0       	breq	.+24     	; 0xa06e <__fp_cmp+0x46>
    a056:	23 2b       	or	r18, r19
    a058:	24 2b       	or	r18, r20
    a05a:	25 2b       	or	r18, r21
    a05c:	21 f4       	brne	.+8      	; 0xa066 <__fp_cmp+0x3e>
    a05e:	08 95       	ret
    a060:	0a 26       	eor	r0, r26
    a062:	09 f4       	brne	.+2      	; 0xa066 <__fp_cmp+0x3e>
    a064:	a1 40       	sbci	r26, 0x01	; 1
    a066:	a6 95       	lsr	r26
    a068:	8f ef       	ldi	r24, 0xFF	; 255
    a06a:	81 1d       	adc	r24, r1
    a06c:	81 1d       	adc	r24, r1
    a06e:	08 95       	ret

0000a070 <__fp_split3>:
    a070:	57 fd       	sbrc	r21, 7
    a072:	90 58       	subi	r25, 0x80	; 128
    a074:	44 0f       	add	r20, r20
    a076:	55 1f       	adc	r21, r21
    a078:	59 f0       	breq	.+22     	; 0xa090 <__fp_splitA+0x10>
    a07a:	5f 3f       	cpi	r21, 0xFF	; 255
    a07c:	71 f0       	breq	.+28     	; 0xa09a <__fp_splitA+0x1a>
    a07e:	47 95       	ror	r20

0000a080 <__fp_splitA>:
    a080:	88 0f       	add	r24, r24
    a082:	97 fb       	bst	r25, 7
    a084:	99 1f       	adc	r25, r25
    a086:	61 f0       	breq	.+24     	; 0xa0a0 <__fp_splitA+0x20>
    a088:	9f 3f       	cpi	r25, 0xFF	; 255
    a08a:	79 f0       	breq	.+30     	; 0xa0aa <__fp_splitA+0x2a>
    a08c:	87 95       	ror	r24
    a08e:	08 95       	ret
    a090:	12 16       	cp	r1, r18
    a092:	13 06       	cpc	r1, r19
    a094:	14 06       	cpc	r1, r20
    a096:	55 1f       	adc	r21, r21
    a098:	f2 cf       	rjmp	.-28     	; 0xa07e <__fp_split3+0xe>
    a09a:	46 95       	lsr	r20
    a09c:	f1 df       	rcall	.-30     	; 0xa080 <__fp_splitA>
    a09e:	08 c0       	rjmp	.+16     	; 0xa0b0 <__fp_splitA+0x30>
    a0a0:	16 16       	cp	r1, r22
    a0a2:	17 06       	cpc	r1, r23
    a0a4:	18 06       	cpc	r1, r24
    a0a6:	99 1f       	adc	r25, r25
    a0a8:	f1 cf       	rjmp	.-30     	; 0xa08c <__fp_splitA+0xc>
    a0aa:	86 95       	lsr	r24
    a0ac:	71 05       	cpc	r23, r1
    a0ae:	61 05       	cpc	r22, r1
    a0b0:	08 94       	sec
    a0b2:	08 95       	ret

0000a0b4 <__fp_zero>:
    a0b4:	e8 94       	clt

0000a0b6 <__fp_szero>:
    a0b6:	bb 27       	eor	r27, r27
    a0b8:	66 27       	eor	r22, r22
    a0ba:	77 27       	eor	r23, r23
    a0bc:	cb 01       	movw	r24, r22
    a0be:	97 f9       	bld	r25, 7
    a0c0:	08 95       	ret

0000a0c2 <__gesf2>:
    a0c2:	b2 df       	rcall	.-156    	; 0xa028 <__fp_cmp>
    a0c4:	08 f4       	brcc	.+2      	; 0xa0c8 <__gesf2+0x6>
    a0c6:	8f ef       	ldi	r24, 0xFF	; 255
    a0c8:	08 95       	ret

0000a0ca <__mulsf3>:
    a0ca:	0b d0       	rcall	.+22     	; 0xa0e2 <__mulsf3x>
    a0cc:	78 c0       	rjmp	.+240    	; 0xa1be <__fp_round>
    a0ce:	69 d0       	rcall	.+210    	; 0xa1a2 <__fp_pscA>
    a0d0:	28 f0       	brcs	.+10     	; 0xa0dc <__mulsf3+0x12>
    a0d2:	6e d0       	rcall	.+220    	; 0xa1b0 <__fp_pscB>
    a0d4:	18 f0       	brcs	.+6      	; 0xa0dc <__mulsf3+0x12>
    a0d6:	95 23       	and	r25, r21
    a0d8:	09 f0       	breq	.+2      	; 0xa0dc <__mulsf3+0x12>
    a0da:	5a c0       	rjmp	.+180    	; 0xa190 <__fp_inf>
    a0dc:	5f c0       	rjmp	.+190    	; 0xa19c <__fp_nan>
    a0de:	11 24       	eor	r1, r1
    a0e0:	ea cf       	rjmp	.-44     	; 0xa0b6 <__fp_szero>

0000a0e2 <__mulsf3x>:
    a0e2:	c6 df       	rcall	.-116    	; 0xa070 <__fp_split3>
    a0e4:	a0 f3       	brcs	.-24     	; 0xa0ce <__mulsf3+0x4>

0000a0e6 <__mulsf3_pse>:
    a0e6:	95 9f       	mul	r25, r21
    a0e8:	d1 f3       	breq	.-12     	; 0xa0de <__mulsf3+0x14>
    a0ea:	95 0f       	add	r25, r21
    a0ec:	50 e0       	ldi	r21, 0x00	; 0
    a0ee:	55 1f       	adc	r21, r21
    a0f0:	62 9f       	mul	r22, r18
    a0f2:	f0 01       	movw	r30, r0
    a0f4:	72 9f       	mul	r23, r18
    a0f6:	bb 27       	eor	r27, r27
    a0f8:	f0 0d       	add	r31, r0
    a0fa:	b1 1d       	adc	r27, r1
    a0fc:	63 9f       	mul	r22, r19
    a0fe:	aa 27       	eor	r26, r26
    a100:	f0 0d       	add	r31, r0
    a102:	b1 1d       	adc	r27, r1
    a104:	aa 1f       	adc	r26, r26
    a106:	64 9f       	mul	r22, r20
    a108:	66 27       	eor	r22, r22
    a10a:	b0 0d       	add	r27, r0
    a10c:	a1 1d       	adc	r26, r1
    a10e:	66 1f       	adc	r22, r22
    a110:	82 9f       	mul	r24, r18
    a112:	22 27       	eor	r18, r18
    a114:	b0 0d       	add	r27, r0
    a116:	a1 1d       	adc	r26, r1
    a118:	62 1f       	adc	r22, r18
    a11a:	73 9f       	mul	r23, r19
    a11c:	b0 0d       	add	r27, r0
    a11e:	a1 1d       	adc	r26, r1
    a120:	62 1f       	adc	r22, r18
    a122:	83 9f       	mul	r24, r19
    a124:	a0 0d       	add	r26, r0
    a126:	61 1d       	adc	r22, r1
    a128:	22 1f       	adc	r18, r18
    a12a:	74 9f       	mul	r23, r20
    a12c:	33 27       	eor	r19, r19
    a12e:	a0 0d       	add	r26, r0
    a130:	61 1d       	adc	r22, r1
    a132:	23 1f       	adc	r18, r19
    a134:	84 9f       	mul	r24, r20
    a136:	60 0d       	add	r22, r0
    a138:	21 1d       	adc	r18, r1
    a13a:	82 2f       	mov	r24, r18
    a13c:	76 2f       	mov	r23, r22
    a13e:	6a 2f       	mov	r22, r26
    a140:	11 24       	eor	r1, r1
    a142:	9f 57       	subi	r25, 0x7F	; 127
    a144:	50 40       	sbci	r21, 0x00	; 0
    a146:	8a f0       	brmi	.+34     	; 0xa16a <__mulsf3_pse+0x84>
    a148:	e1 f0       	breq	.+56     	; 0xa182 <__mulsf3_pse+0x9c>
    a14a:	88 23       	and	r24, r24
    a14c:	4a f0       	brmi	.+18     	; 0xa160 <__mulsf3_pse+0x7a>
    a14e:	ee 0f       	add	r30, r30
    a150:	ff 1f       	adc	r31, r31
    a152:	bb 1f       	adc	r27, r27
    a154:	66 1f       	adc	r22, r22
    a156:	77 1f       	adc	r23, r23
    a158:	88 1f       	adc	r24, r24
    a15a:	91 50       	subi	r25, 0x01	; 1
    a15c:	50 40       	sbci	r21, 0x00	; 0
    a15e:	a9 f7       	brne	.-22     	; 0xa14a <__mulsf3_pse+0x64>
    a160:	9e 3f       	cpi	r25, 0xFE	; 254
    a162:	51 05       	cpc	r21, r1
    a164:	70 f0       	brcs	.+28     	; 0xa182 <__mulsf3_pse+0x9c>
    a166:	14 c0       	rjmp	.+40     	; 0xa190 <__fp_inf>
    a168:	a6 cf       	rjmp	.-180    	; 0xa0b6 <__fp_szero>
    a16a:	5f 3f       	cpi	r21, 0xFF	; 255
    a16c:	ec f3       	brlt	.-6      	; 0xa168 <__mulsf3_pse+0x82>
    a16e:	98 3e       	cpi	r25, 0xE8	; 232
    a170:	dc f3       	brlt	.-10     	; 0xa168 <__mulsf3_pse+0x82>
    a172:	86 95       	lsr	r24
    a174:	77 95       	ror	r23
    a176:	67 95       	ror	r22
    a178:	b7 95       	ror	r27
    a17a:	f7 95       	ror	r31
    a17c:	e7 95       	ror	r30
    a17e:	9f 5f       	subi	r25, 0xFF	; 255
    a180:	c1 f7       	brne	.-16     	; 0xa172 <__mulsf3_pse+0x8c>
    a182:	fe 2b       	or	r31, r30
    a184:	88 0f       	add	r24, r24
    a186:	91 1d       	adc	r25, r1
    a188:	96 95       	lsr	r25
    a18a:	87 95       	ror	r24
    a18c:	97 f9       	bld	r25, 7
    a18e:	08 95       	ret

0000a190 <__fp_inf>:
    a190:	97 f9       	bld	r25, 7
    a192:	9f 67       	ori	r25, 0x7F	; 127
    a194:	80 e8       	ldi	r24, 0x80	; 128
    a196:	70 e0       	ldi	r23, 0x00	; 0
    a198:	60 e0       	ldi	r22, 0x00	; 0
    a19a:	08 95       	ret

0000a19c <__fp_nan>:
    a19c:	9f ef       	ldi	r25, 0xFF	; 255
    a19e:	80 ec       	ldi	r24, 0xC0	; 192
    a1a0:	08 95       	ret

0000a1a2 <__fp_pscA>:
    a1a2:	00 24       	eor	r0, r0
    a1a4:	0a 94       	dec	r0
    a1a6:	16 16       	cp	r1, r22
    a1a8:	17 06       	cpc	r1, r23
    a1aa:	18 06       	cpc	r1, r24
    a1ac:	09 06       	cpc	r0, r25
    a1ae:	08 95       	ret

0000a1b0 <__fp_pscB>:
    a1b0:	00 24       	eor	r0, r0
    a1b2:	0a 94       	dec	r0
    a1b4:	12 16       	cp	r1, r18
    a1b6:	13 06       	cpc	r1, r19
    a1b8:	14 06       	cpc	r1, r20
    a1ba:	05 06       	cpc	r0, r21
    a1bc:	08 95       	ret

0000a1be <__fp_round>:
    a1be:	09 2e       	mov	r0, r25
    a1c0:	03 94       	inc	r0
    a1c2:	00 0c       	add	r0, r0
    a1c4:	11 f4       	brne	.+4      	; 0xa1ca <__fp_round+0xc>
    a1c6:	88 23       	and	r24, r24
    a1c8:	52 f0       	brmi	.+20     	; 0xa1de <__fp_round+0x20>
    a1ca:	bb 0f       	add	r27, r27
    a1cc:	40 f4       	brcc	.+16     	; 0xa1de <__fp_round+0x20>
    a1ce:	bf 2b       	or	r27, r31
    a1d0:	11 f4       	brne	.+4      	; 0xa1d6 <__fp_round+0x18>
    a1d2:	60 ff       	sbrs	r22, 0
    a1d4:	04 c0       	rjmp	.+8      	; 0xa1de <__fp_round+0x20>
    a1d6:	6f 5f       	subi	r22, 0xFF	; 255
    a1d8:	7f 4f       	sbci	r23, 0xFF	; 255
    a1da:	8f 4f       	sbci	r24, 0xFF	; 255
    a1dc:	9f 4f       	sbci	r25, 0xFF	; 255
    a1de:	08 95       	ret

0000a1e0 <do_rand>:
    a1e0:	8f 92       	push	r8
    a1e2:	9f 92       	push	r9
    a1e4:	af 92       	push	r10
    a1e6:	bf 92       	push	r11
    a1e8:	cf 92       	push	r12
    a1ea:	df 92       	push	r13
    a1ec:	ef 92       	push	r14
    a1ee:	ff 92       	push	r15
    a1f0:	cf 93       	push	r28
    a1f2:	df 93       	push	r29
    a1f4:	ec 01       	movw	r28, r24
    a1f6:	68 81       	ld	r22, Y
    a1f8:	79 81       	ldd	r23, Y+1	; 0x01
    a1fa:	8a 81       	ldd	r24, Y+2	; 0x02
    a1fc:	9b 81       	ldd	r25, Y+3	; 0x03
    a1fe:	61 15       	cp	r22, r1
    a200:	71 05       	cpc	r23, r1
    a202:	81 05       	cpc	r24, r1
    a204:	91 05       	cpc	r25, r1
    a206:	21 f4       	brne	.+8      	; 0xa210 <do_rand+0x30>
    a208:	64 e2       	ldi	r22, 0x24	; 36
    a20a:	79 ed       	ldi	r23, 0xD9	; 217
    a20c:	8b e5       	ldi	r24, 0x5B	; 91
    a20e:	97 e0       	ldi	r25, 0x07	; 7
    a210:	2d e1       	ldi	r18, 0x1D	; 29
    a212:	33 ef       	ldi	r19, 0xF3	; 243
    a214:	41 e0       	ldi	r20, 0x01	; 1
    a216:	50 e0       	ldi	r21, 0x00	; 0
    a218:	38 d0       	rcall	.+112    	; 0xa28a <__divmodsi4>
    a21a:	49 01       	movw	r8, r18
    a21c:	5a 01       	movw	r10, r20
    a21e:	9b 01       	movw	r18, r22
    a220:	ac 01       	movw	r20, r24
    a222:	a7 ea       	ldi	r26, 0xA7	; 167
    a224:	b1 e4       	ldi	r27, 0x41	; 65
    a226:	4d d0       	rcall	.+154    	; 0xa2c2 <__muluhisi3>
    a228:	6b 01       	movw	r12, r22
    a22a:	7c 01       	movw	r14, r24
    a22c:	ac ee       	ldi	r26, 0xEC	; 236
    a22e:	b4 ef       	ldi	r27, 0xF4	; 244
    a230:	a5 01       	movw	r20, r10
    a232:	94 01       	movw	r18, r8
    a234:	52 d0       	rcall	.+164    	; 0xa2da <__mulohisi3>
    a236:	dc 01       	movw	r26, r24
    a238:	cb 01       	movw	r24, r22
    a23a:	8c 0d       	add	r24, r12
    a23c:	9d 1d       	adc	r25, r13
    a23e:	ae 1d       	adc	r26, r14
    a240:	bf 1d       	adc	r27, r15
    a242:	b7 ff       	sbrs	r27, 7
    a244:	03 c0       	rjmp	.+6      	; 0xa24c <do_rand+0x6c>
    a246:	01 97       	sbiw	r24, 0x01	; 1
    a248:	a1 09       	sbc	r26, r1
    a24a:	b0 48       	sbci	r27, 0x80	; 128
    a24c:	88 83       	st	Y, r24
    a24e:	99 83       	std	Y+1, r25	; 0x01
    a250:	aa 83       	std	Y+2, r26	; 0x02
    a252:	bb 83       	std	Y+3, r27	; 0x03
    a254:	9f 77       	andi	r25, 0x7F	; 127
    a256:	df 91       	pop	r29
    a258:	cf 91       	pop	r28
    a25a:	ff 90       	pop	r15
    a25c:	ef 90       	pop	r14
    a25e:	df 90       	pop	r13
    a260:	cf 90       	pop	r12
    a262:	bf 90       	pop	r11
    a264:	af 90       	pop	r10
    a266:	9f 90       	pop	r9
    a268:	8f 90       	pop	r8
    a26a:	08 95       	ret

0000a26c <rand_r>:
    a26c:	b9 cf       	rjmp	.-142    	; 0xa1e0 <do_rand>

0000a26e <rand>:
    a26e:	80 e0       	ldi	r24, 0x00	; 0
    a270:	92 e0       	ldi	r25, 0x02	; 2
    a272:	b6 cf       	rjmp	.-148    	; 0xa1e0 <do_rand>

0000a274 <srand>:
    a274:	a0 e0       	ldi	r26, 0x00	; 0
    a276:	b0 e0       	ldi	r27, 0x00	; 0
    a278:	80 93 00 02 	sts	0x0200, r24	; 0x800200 <__DATA_REGION_ORIGIN__>
    a27c:	90 93 01 02 	sts	0x0201, r25	; 0x800201 <__DATA_REGION_ORIGIN__+0x1>
    a280:	a0 93 02 02 	sts	0x0202, r26	; 0x800202 <__DATA_REGION_ORIGIN__+0x2>
    a284:	b0 93 03 02 	sts	0x0203, r27	; 0x800203 <__DATA_REGION_ORIGIN__+0x3>
    a288:	08 95       	ret

0000a28a <__divmodsi4>:
    a28a:	05 2e       	mov	r0, r21
    a28c:	97 fb       	bst	r25, 7
    a28e:	16 f4       	brtc	.+4      	; 0xa294 <__divmodsi4+0xa>
    a290:	00 94       	com	r0
    a292:	0f d0       	rcall	.+30     	; 0xa2b2 <__negsi2>
    a294:	57 fd       	sbrc	r21, 7
    a296:	05 d0       	rcall	.+10     	; 0xa2a2 <__divmodsi4_neg2>
    a298:	24 d0       	rcall	.+72     	; 0xa2e2 <__udivmodsi4>
    a29a:	07 fc       	sbrc	r0, 7
    a29c:	02 d0       	rcall	.+4      	; 0xa2a2 <__divmodsi4_neg2>
    a29e:	46 f4       	brtc	.+16     	; 0xa2b0 <__divmodsi4_exit>
    a2a0:	08 c0       	rjmp	.+16     	; 0xa2b2 <__negsi2>

0000a2a2 <__divmodsi4_neg2>:
    a2a2:	50 95       	com	r21
    a2a4:	40 95       	com	r20
    a2a6:	30 95       	com	r19
    a2a8:	21 95       	neg	r18
    a2aa:	3f 4f       	sbci	r19, 0xFF	; 255
    a2ac:	4f 4f       	sbci	r20, 0xFF	; 255
    a2ae:	5f 4f       	sbci	r21, 0xFF	; 255

0000a2b0 <__divmodsi4_exit>:
    a2b0:	08 95       	ret

0000a2b2 <__negsi2>:
    a2b2:	90 95       	com	r25
    a2b4:	80 95       	com	r24
    a2b6:	70 95       	com	r23
    a2b8:	61 95       	neg	r22
    a2ba:	7f 4f       	sbci	r23, 0xFF	; 255
    a2bc:	8f 4f       	sbci	r24, 0xFF	; 255
    a2be:	9f 4f       	sbci	r25, 0xFF	; 255
    a2c0:	08 95       	ret

0000a2c2 <__muluhisi3>:
    a2c2:	5f de       	rcall	.-834    	; 0x9f82 <__umulhisi3>
    a2c4:	a5 9f       	mul	r26, r21
    a2c6:	90 0d       	add	r25, r0
    a2c8:	b4 9f       	mul	r27, r20
    a2ca:	90 0d       	add	r25, r0
    a2cc:	a4 9f       	mul	r26, r20
    a2ce:	80 0d       	add	r24, r0
    a2d0:	91 1d       	adc	r25, r1
    a2d2:	11 24       	eor	r1, r1
    a2d4:	08 95       	ret

0000a2d6 <__mulshisi3>:
    a2d6:	b7 ff       	sbrs	r27, 7
    a2d8:	f4 cf       	rjmp	.-24     	; 0xa2c2 <__muluhisi3>

0000a2da <__mulohisi3>:
    a2da:	f3 df       	rcall	.-26     	; 0xa2c2 <__muluhisi3>
    a2dc:	82 1b       	sub	r24, r18
    a2de:	93 0b       	sbc	r25, r19
    a2e0:	08 95       	ret

0000a2e2 <__udivmodsi4>:
    a2e2:	a1 e2       	ldi	r26, 0x21	; 33
    a2e4:	1a 2e       	mov	r1, r26
    a2e6:	aa 1b       	sub	r26, r26
    a2e8:	bb 1b       	sub	r27, r27
    a2ea:	fd 01       	movw	r30, r26
    a2ec:	0d c0       	rjmp	.+26     	; 0xa308 <__udivmodsi4_ep>

0000a2ee <__udivmodsi4_loop>:
    a2ee:	aa 1f       	adc	r26, r26
    a2f0:	bb 1f       	adc	r27, r27
    a2f2:	ee 1f       	adc	r30, r30
    a2f4:	ff 1f       	adc	r31, r31
    a2f6:	a2 17       	cp	r26, r18
    a2f8:	b3 07       	cpc	r27, r19
    a2fa:	e4 07       	cpc	r30, r20
    a2fc:	f5 07       	cpc	r31, r21
    a2fe:	20 f0       	brcs	.+8      	; 0xa308 <__udivmodsi4_ep>
    a300:	a2 1b       	sub	r26, r18
    a302:	b3 0b       	sbc	r27, r19
    a304:	e4 0b       	sbc	r30, r20
    a306:	f5 0b       	sbc	r31, r21

0000a308 <__udivmodsi4_ep>:
    a308:	66 1f       	adc	r22, r22
    a30a:	77 1f       	adc	r23, r23
    a30c:	88 1f       	adc	r24, r24
    a30e:	99 1f       	adc	r25, r25
    a310:	1a 94       	dec	r1
    a312:	69 f7       	brne	.-38     	; 0xa2ee <__udivmodsi4_loop>
    a314:	60 95       	com	r22
    a316:	70 95       	com	r23
    a318:	80 95       	com	r24
    a31a:	90 95       	com	r25
    a31c:	9b 01       	movw	r18, r22
    a31e:	ac 01       	movw	r20, r24
    a320:	bd 01       	movw	r22, r26
    a322:	cf 01       	movw	r24, r30
    a324:	08 95       	ret

0000a326 <_exit>:
    a326:	f8 94       	cli

0000a328 <__stop_program>:
    a328:	ff cf       	rjmp	.-2      	; 0xa328 <__stop_program>
